
nominal2.elf:     file format elf32-avr

Sections:
Idx Name          Size      VMA       LMA       File off  Algn
  0 .data         000000e0  00800100  00005e54  00005ee8  2**0
                  CONTENTS, ALLOC, LOAD, DATA
  1 .text         00005e54  00000000  00000000  00000094  2**1
                  CONTENTS, ALLOC, LOAD, READONLY, CODE
  2 .bss          00000384  008001e0  008001e0  00005fc8  2**0
                  ALLOC
  3 .comment      00000030  00000000  00000000  00005fc8  2**0
                  CONTENTS, READONLY
  4 .debug_aranges 000003e0  00000000  00000000  00005ff8  2**0
                  CONTENTS, READONLY, DEBUGGING
  5 .debug_info   000061ff  00000000  00000000  000063d8  2**0
                  CONTENTS, READONLY, DEBUGGING
  6 .debug_abbrev 000017c1  00000000  00000000  0000c5d7  2**0
                  CONTENTS, READONLY, DEBUGGING
  7 .debug_line   00002975  00000000  00000000  0000dd98  2**0
                  CONTENTS, READONLY, DEBUGGING
  8 .debug_frame  00000f74  00000000  00000000  00010710  2**2
                  CONTENTS, READONLY, DEBUGGING
  9 .debug_str    00000c60  00000000  00000000  00011684  2**0
                  CONTENTS, READONLY, DEBUGGING
 10 .debug_loc    00004975  00000000  00000000  000122e4  2**0
                  CONTENTS, READONLY, DEBUGGING
 11 .debug_ranges 000002f8  00000000  00000000  00016c59  2**0
                  CONTENTS, READONLY, DEBUGGING

Disassembly of section .text:

00000000 <__vectors>:
       0:	da c3       	rjmp	.+1972   	; 0x7b6 <__ctors_end>
       2:	00 00       	nop
       4:	f7 c3       	rjmp	.+2030   	; 0x7f4 <__bad_interrupt>
       6:	00 00       	nop
       8:	f5 c3       	rjmp	.+2026   	; 0x7f4 <__bad_interrupt>
       a:	00 00       	nop
       c:	f3 c3       	rjmp	.+2022   	; 0x7f4 <__bad_interrupt>
       e:	00 00       	nop
      10:	f1 c3       	rjmp	.+2018   	; 0x7f4 <__bad_interrupt>
      12:	00 00       	nop
      14:	ef c3       	rjmp	.+2014   	; 0x7f4 <__bad_interrupt>
      16:	00 00       	nop
      18:	ed c3       	rjmp	.+2010   	; 0x7f4 <__bad_interrupt>
      1a:	00 00       	nop
      1c:	eb c3       	rjmp	.+2006   	; 0x7f4 <__bad_interrupt>
      1e:	00 00       	nop
      20:	e9 c3       	rjmp	.+2002   	; 0x7f4 <__bad_interrupt>
      22:	00 00       	nop
      24:	e7 c3       	rjmp	.+1998   	; 0x7f4 <__bad_interrupt>
      26:	00 00       	nop
      28:	e5 c3       	rjmp	.+1994   	; 0x7f4 <__bad_interrupt>
      2a:	00 00       	nop
      2c:	e3 c3       	rjmp	.+1990   	; 0x7f4 <__bad_interrupt>
      2e:	00 00       	nop
      30:	e1 c3       	rjmp	.+1986   	; 0x7f4 <__bad_interrupt>
      32:	00 00       	nop
      34:	df c3       	rjmp	.+1982   	; 0x7f4 <__bad_interrupt>
      36:	00 00       	nop
      38:	dd c3       	rjmp	.+1978   	; 0x7f4 <__bad_interrupt>
      3a:	00 00       	nop
      3c:	db c3       	rjmp	.+1974   	; 0x7f4 <__bad_interrupt>
      3e:	00 00       	nop
      40:	d9 c3       	rjmp	.+1970   	; 0x7f4 <__bad_interrupt>
      42:	00 00       	nop
      44:	d7 c3       	rjmp	.+1966   	; 0x7f4 <__bad_interrupt>
      46:	00 00       	nop
      48:	0c 94 67 0f 	jmp	0x1ece	; 0x1ece <__vector_18>
      4c:	d3 c3       	rjmp	.+1958   	; 0x7f4 <__bad_interrupt>
      4e:	00 00       	nop
      50:	d1 c3       	rjmp	.+1954   	; 0x7f4 <__bad_interrupt>
      52:	00 00       	nop
      54:	cf c3       	rjmp	.+1950   	; 0x7f4 <__bad_interrupt>
      56:	00 00       	nop
      58:	cd c3       	rjmp	.+1946   	; 0x7f4 <__bad_interrupt>
      5a:	00 00       	nop
      5c:	cb c3       	rjmp	.+1942   	; 0x7f4 <__bad_interrupt>
      5e:	00 00       	nop
      60:	c9 c3       	rjmp	.+1938   	; 0x7f4 <__bad_interrupt>
      62:	00 00       	nop
      64:	c7 c3       	rjmp	.+1934   	; 0x7f4 <__bad_interrupt>
      66:	00 00       	nop
      68:	c5 c3       	rjmp	.+1930   	; 0x7f4 <__bad_interrupt>
      6a:	00 00       	nop
      6c:	c3 c3       	rjmp	.+1926   	; 0x7f4 <__bad_interrupt>
      6e:	00 00       	nop
      70:	c1 c3       	rjmp	.+1922   	; 0x7f4 <__bad_interrupt>
      72:	00 00       	nop
      74:	bf c3       	rjmp	.+1918   	; 0x7f4 <__bad_interrupt>
      76:	00 00       	nop
      78:	0c 94 44 1a 	jmp	0x3488	; 0x3488 <__vector_30>
      7c:	bb c3       	rjmp	.+1910   	; 0x7f4 <__bad_interrupt>
      7e:	00 00       	nop
      80:	b9 c3       	rjmp	.+1906   	; 0x7f4 <__bad_interrupt>
      82:	00 00       	nop
      84:	b7 c3       	rjmp	.+1902   	; 0x7f4 <__bad_interrupt>
      86:	00 00       	nop
      88:	b5 c3       	rjmp	.+1898   	; 0x7f4 <__bad_interrupt>
      8a:	00 00       	nop
      8c:	03 6e       	ori	r16, 0xE3	; 227
      8e:	db 36       	cpi	r29, 0x6B	; 107
      90:	3d 9a       	sbi	0x07, 5	; 7
      92:	99 99       	sbic	0x13, 1	; 19
      94:	99 3d       	cpi	r25, 0xD9	; 217
      96:	ab aa       	std	Y+51, r10	; 0x33
      98:	aa 2a       	or	r10, r26
      9a:	3e 00       	.word	0x003e	; ????
      9c:	00 00       	nop
      9e:	80 3f       	cpi	r24, 0xF0	; 240
      a0:	08 4a       	sbci	r16, 0xA8	; 168
      a2:	d7 3b       	cpi	r29, 0xB7	; 183
      a4:	3b ce       	rjmp	.-906    	; 0xfffffd1c <__eeprom_end+0xff7efd1c>
      a6:	01 6e       	ori	r16, 0xE1	; 225
      a8:	84 bc       	out	0x24, r8	; 36
      aa:	bf fd       	.word	0xfdbf	; ????
      ac:	c1 2f       	mov	r28, r17
      ae:	3d 6c       	ori	r19, 0xCD	; 205
      b0:	74 31       	cpi	r23, 0x14	; 20
      b2:	9a bd       	out	0x2a, r25	; 42
      b4:	56 83       	std	Z+6, r21	; 0x06
      b6:	3d da       	rcall	.-2950   	; 0xfffff532 <__eeprom_end+0xff7ef532>
      b8:	3d 00       	.word	0x003d	; ????
      ba:	c7 7f       	andi	r28, 0xF7	; 247
      bc:	11 be       	out	0x31, r1	; 49
      be:	d9 e4       	ldi	r29, 0x49	; 73
      c0:	bb 4c       	sbci	r27, 0xCB	; 203
      c2:	3e 91       	ld	r19, -X
      c4:	6b aa       	std	Y+51, r6	; 0x33
      c6:	aa be       	out	0x3a, r10	; 58
      c8:	00 00       	nop
      ca:	00 80       	ld	r0, Z
      cc:	3f 07       	cpc	r19, r31
      ce:	2c 7a       	andi	r18, 0xAC	; 172
      d0:	a5 ba       	out	0x15, r10	; 21
      d2:	6c c5       	rjmp	.+2776   	; 0xbac <nominal+0x1ce>
      d4:	90 da       	rcall	.-2784   	; 0xfffff5f6 <__eeprom_end+0xff7ef5f6>
      d6:	3b 93       	.word	0x933b	; ????
      d8:	65 fc       	sbrc	r6, 5
      da:	8b bc       	out	0x2b, r8	; 43
      dc:	53 f8       	bld	r5, 3
      de:	10 fd       	sbrc	r17, 0
      e0:	3c 56       	subi	r19, 0x6C	; 108
      e2:	92 83       	std	Z+2, r25	; 0x02
      e4:	4d bd       	out	0x2d, r20	; 45
      e6:	87 9d       	mul	r24, r7
      e8:	3a b6       	in	r3, 0x3a	; 58
      ea:	3d cb       	rjmp	.-2438   	; 0xfffff766 <__eeprom_end+0xff7ef766>
      ec:	c9 bf       	out	0x39, r28	; 57
      ee:	5b be       	out	0x3b, r5	; 59
      f0:	73 da       	rcall	.-2842   	; 0xfffff5d8 <__eeprom_end+0xff7ef5d8>
      f2:	0f c9       	rjmp	.-3554   	; 0xfffff312 <__eeprom_end+0xff7ef312>
      f4:	3f 05       	cpc	r19, r15
      f6:	a8 4c       	sbci	r26, 0xC8	; 200
      f8:	cd b2       	in	r12, 0x1d	; 29
      fa:	d4 4e       	sbci	r29, 0xE4	; 228
      fc:	b9 38       	cpi	r27, 0x89	; 137
      fe:	36 a9       	ldd	r19, Z+54	; 0x36
     100:	02 0c       	add	r0, r2
     102:	50 b9       	out	0x00, r21	; 0
     104:	91 86       	std	Z+9, r9	; 0x09
     106:	88 08       	sbc	r8, r8
     108:	3c a6       	std	Y+44, r3	; 0x2c
     10a:	aa aa       	std	Y+50, r10	; 0x32
     10c:	2a be       	out	0x3a, r2	; 58
     10e:	00 00       	nop
     110:	00 80       	ld	r0, Z
     112:	3f 07       	cpc	r19, r31
     114:	63 42       	sbci	r22, 0x23	; 35
     116:	36 b7       	in	r19, 0x36	; 54
     118:	9b d8       	rcall	.-3786   	; 0xfffff250 <__eeprom_end+0xff7ef250>
     11a:	a7 1a       	sub	r10, r23
     11c:	39 68       	ori	r19, 0x89	; 137
     11e:	56 18       	sub	r5, r6
     120:	ae ba       	out	0x1e, r10	; 30
     122:	ab 55       	subi	r26, 0x5B	; 91
     124:	8c 1d       	adc	r24, r12
     126:	3c b7       	in	r19, 0x3c	; 60
     128:	cc 57       	subi	r28, 0x7C	; 124
     12a:	63 bd       	out	0x23, r22	; 35
     12c:	6d ed       	ldi	r22, 0xDD	; 221
     12e:	fd 75       	andi	r31, 0x5D	; 93
     130:	3e f6       	brtc	.-114    	; 0xc0 <__SREG__+0x81>
     132:	17 72       	andi	r17, 0x27	; 39
     134:	31 bf       	out	0x31, r19	; 49
     136:	00 00       	nop
     138:	00 80       	ld	r0, Z
     13a:	3f 08       	sbc	r3, r15
     13c:	00 00       	nop
     13e:	00 be       	out	0x30, r0	; 48
     140:	92 24       	eor	r9, r2
     142:	49 12       	cpse	r4, r25
     144:	3e ab       	std	Y+54, r19	; 0x36
     146:	aa aa       	std	Y+50, r10	; 0x32
     148:	2a be       	out	0x3a, r2	; 58
     14a:	cd cc       	rjmp	.-1638   	; 0xfffffae6 <__eeprom_end+0xff7efae6>
     14c:	cc 4c       	sbci	r28, 0xCC	; 204
     14e:	3e 00       	.word	0x003e	; ????
     150:	00 00       	nop
     152:	80 be       	out	0x30, r8	; 48
     154:	ab aa       	std	Y+51, r10	; 0x33
     156:	aa aa       	std	Y+50, r10	; 0x32
     158:	3e 00       	.word	0x003e	; ????
     15a:	00 00       	nop
     15c:	00 bf       	out	0x30, r16	; 48
     15e:	00 00       	nop
     160:	00 80       	ld	r0, Z
     162:	3f 00       	.word	0x003f	; ????
     164:	00 00       	nop
     166:	00 00       	nop
     168:	08 41       	sbci	r16, 0x18	; 24
     16a:	78 d3       	rcall	.+1776   	; 0x85c <detumbling+0x66>
     16c:	bb 43       	sbci	r27, 0x3B	; 59
     16e:	87 d1       	rcall	.+782    	; 0x47e <__trampolines_end+0x2e8>
     170:	13 3d       	cpi	r17, 0xD3	; 211
     172:	19 0e       	add	r1, r25
     174:	3c c3       	rjmp	.+1656   	; 0x7ee <.do_clear_bss_start+0x8>
     176:	bd 42       	sbci	r27, 0x2D	; 45
     178:	82 ad       	ldd	r24, Z+58	; 0x3a
     17a:	2b 3e       	cpi	r18, 0xEB	; 235
     17c:	68 ec       	ldi	r22, 0xC8	; 200
     17e:	82 76       	andi	r24, 0x62	; 98
     180:	be d9       	rcall	.-3204   	; 0xfffff4fe <__eeprom_end+0xff7ef4fe>
     182:	8f e1       	ldi	r24, 0x1F	; 31
     184:	a9 3e       	cpi	r26, 0xE9	; 233
     186:	4c 80       	ldd	r4, Y+4	; 0x04
     188:	ef ff       	.word	0xffef	; ????
     18a:	be 01       	movw	r22, r28
     18c:	c4 ff       	sbrs	r28, 4
     18e:	7f 3f       	cpi	r23, 0xFF	; 255
     190:	00 00       	nop
     192:	00 00       	nop
	...

00000196 <__trampolines_end>:
     196:	00 00       	nop
     198:	00 00       	nop
     19a:	cd cc       	rjmp	.-1638   	; 0xfffffb36 <__eeprom_end+0xff7efb36>
     19c:	24 41       	sbci	r18, 0x14	; 20
     19e:	cd cc       	rjmp	.-1638   	; 0xfffffb3a <__eeprom_end+0xff7efb3a>
     1a0:	90 41       	sbci	r25, 0x10	; 16
     1a2:	cd cc       	rjmp	.-1638   	; 0xfffffb3e <__eeprom_end+0xff7efb3e>
     1a4:	d4 c1       	rjmp	.+936    	; 0x54e <agh+0xa8>
     1a6:	33 33       	cpi	r19, 0x33	; 51
     1a8:	0b c1       	rjmp	.+534    	; 0x3c0 <__trampolines_end+0x22a>
     1aa:	33 33       	cpi	r19, 0x33	; 51
     1ac:	53 c0       	rjmp	.+166    	; 0x254 <__trampolines_end+0xbe>
     1ae:	33 33       	cpi	r19, 0x33	; 51
     1b0:	db c1       	rjmp	.+950    	; 0x568 <agh+0xc2>
     1b2:	66 66       	ori	r22, 0x66	; 102
     1b4:	06 40       	sbci	r16, 0x06	; 6
     1b6:	9a 99       	sbic	0x13, 2	; 19
     1b8:	61 c1       	rjmp	.+706    	; 0x47c <__trampolines_end+0x2e6>
     1ba:	9a 99       	sbic	0x13, 2	; 19
     1bc:	59 40       	sbci	r21, 0x09	; 9
     1be:	00 00       	nop
     1c0:	b0 c0       	rjmp	.+352    	; 0x322 <__trampolines_end+0x18c>
     1c2:	33 33       	cpi	r19, 0x33	; 51
     1c4:	03 41       	sbci	r16, 0x13	; 19
     1c6:	33 33       	cpi	r19, 0x33	; 51
     1c8:	33 bf       	out	0x33, r19	; 51
     1ca:	cd cc       	rjmp	.-1638   	; 0xfffffb66 <__eeprom_end+0xff7efb66>
     1cc:	cc be       	out	0x3c, r12	; 60
     1ce:	9a 99       	sbic	0x13, 2	; 19
     1d0:	21 c1       	rjmp	.+578    	; 0x414 <__trampolines_end+0x27e>
     1d2:	66 66       	ori	r22, 0x66	; 102
     1d4:	e6 3f       	cpi	r30, 0xF6	; 246
     1d6:	33 33       	cpi	r19, 0x33	; 51
     1d8:	33 bf       	out	0x33, r19	; 51
     1da:	cd cc       	rjmp	.-1638   	; 0xfffffb76 <__eeprom_end+0xff7efb76>
     1dc:	4c 3e       	cpi	r20, 0xEC	; 236
     1de:	66 66       	ori	r22, 0x66	; 102
     1e0:	a6 bf       	out	0x36, r26	; 54
     1e2:	9a 99       	sbic	0x13, 2	; 19
     1e4:	11 c1       	rjmp	.+546    	; 0x408 <__trampolines_end+0x272>
     1e6:	9a 99       	sbic	0x13, 2	; 19
     1e8:	a9 40       	sbci	r26, 0x09	; 9
     1ea:	33 33       	cpi	r19, 0x33	; 51
     1ec:	83 40       	sbci	r24, 0x03	; 3
     1ee:	9a 99       	sbic	0x13, 2	; 19
     1f0:	39 40       	sbci	r19, 0x09	; 9
     1f2:	9a 99       	sbic	0x13, 2	; 19
     1f4:	89 c0       	rjmp	.+274    	; 0x308 <__trampolines_end+0x172>
     1f6:	66 66       	ori	r22, 0x66	; 102
     1f8:	a6 c0       	rjmp	.+332    	; 0x346 <__trampolines_end+0x1b0>
     1fa:	cd cc       	rjmp	.-1638   	; 0xfffffb96 <__eeprom_end+0xff7efb96>
     1fc:	4c be       	out	0x3c, r4	; 60
     1fe:	00 00       	nop
     200:	00 3f       	cpi	r16, 0xF0	; 240
     202:	9a 99       	sbic	0x13, 2	; 19
     204:	19 3f       	cpi	r17, 0xF9	; 249
     206:	66 66       	ori	r22, 0x66	; 102
     208:	a6 bf       	out	0x36, r26	; 54
     20a:	9a 99       	sbic	0x13, 2	; 19
     20c:	d9 3f       	cpi	r29, 0xF9	; 249
     20e:	cd cc       	rjmp	.-1638   	; 0xfffffbaa <__eeprom_end+0xff7efbaa>
     210:	cc bd       	out	0x2c, r28	; 44
     212:	9a 99       	sbic	0x13, 2	; 19
     214:	99 bf       	out	0x39, r25	; 57
     216:	33 33       	cpi	r19, 0x33	; 51
     218:	b3 3f       	cpi	r27, 0xF3	; 243
     21a:	9a 99       	sbic	0x13, 2	; 19
     21c:	59 40       	sbci	r21, 0x09	; 9
     21e:	9a 99       	sbic	0x13, 2	; 19
     220:	79 40       	sbci	r23, 0x09	; 9
     222:	00 00       	nop
     224:	00 00       	nop
     226:	9a 99       	sbic	0x13, 2	; 19
     228:	99 be       	out	0x39, r9	; 57
     22a:	cd cc       	rjmp	.-1638   	; 0xfffffbc6 <__eeprom_end+0xff7efbc6>
     22c:	cc bd       	out	0x2c, r28	; 44
     22e:	00 00       	nop
     230:	00 00       	nop
     232:	33 33       	cpi	r19, 0x33	; 51
     234:	33 bf       	out	0x33, r19	; 51
     236:	66 66       	ori	r22, 0x66	; 102
     238:	06 c0       	rjmp	.+12     	; 0x246 <__trampolines_end+0xb0>
     23a:	66 66       	ori	r22, 0x66	; 102
     23c:	06 40       	sbci	r16, 0x06	; 6
     23e:	33 33       	cpi	r19, 0x33	; 51
     240:	33 bf       	out	0x33, r19	; 51
     242:	9a 99       	sbic	0x13, 2	; 19
     244:	99 bf       	out	0x39, r25	; 57
     246:	cd cc       	rjmp	.-1638   	; 0xfffffbe2 <__eeprom_end+0xff7efbe2>
     248:	4c 3e       	cpi	r20, 0xEC	; 236
     24a:	9a 99       	sbic	0x13, 2	; 19
     24c:	99 3e       	cpi	r25, 0xE9	; 233
     24e:	66 66       	ori	r22, 0x66	; 102
     250:	66 3f       	cpi	r22, 0xF6	; 246
     252:	cd cc       	rjmp	.-1638   	; 0xfffffbee <__eeprom_end+0xff7efbee>
     254:	cc 3f       	cpi	r28, 0xFC	; 252
     256:	00 00       	nop
     258:	80 3f       	cpi	r24, 0xF0	; 240
     25a:	9a 99       	sbic	0x13, 2	; 19
     25c:	99 3e       	cpi	r25, 0xE9	; 233
     25e:	cd cc       	rjmp	.-1638   	; 0xfffffbfa <__eeprom_end+0xff7efbfa>
     260:	4c be       	out	0x3c, r4	; 60
     262:	cd cc       	rjmp	.-1638   	; 0xfffffbfe <__eeprom_end+0xff7efbfe>
     264:	4c 3f       	cpi	r20, 0xFC	; 252
     266:	00 00       	nop
     268:	00 bf       	out	0x30, r16	; 48
     26a:	cd cc       	rjmp	.-1638   	; 0xfffffc06 <__eeprom_end+0xff7efc06>
     26c:	cc 3e       	cpi	r28, 0xEC	; 236
     26e:	66 66       	ori	r22, 0x66	; 102
     270:	a6 3f       	cpi	r26, 0xF6	; 246
     272:	cd cc       	rjmp	.-1638   	; 0xfffffc0e <__eeprom_end+0xff7efc0e>
     274:	4c be       	out	0x3c, r4	; 60
     276:	cd cc       	rjmp	.-1638   	; 0xfffffc12 <__eeprom_end+0xff7efc12>
     278:	cc 3d       	cpi	r28, 0xDC	; 220
     27a:	9a 99       	sbic	0x13, 2	; 19
     27c:	99 be       	out	0x39, r9	; 57
     27e:	9a 99       	sbic	0x13, 2	; 19
     280:	19 bf       	out	0x39, r17	; 57
     282:	9a 99       	sbic	0x13, 2	; 19
     284:	19 bf       	out	0x39, r17	; 57
     286:	cd cc       	rjmp	.-1638   	; 0xfffffc22 <__eeprom_end+0xff7efc22>
     288:	4c bf       	out	0x3c, r20	; 60
     28a:	cd cc       	rjmp	.-1638   	; 0xfffffc26 <__eeprom_end+0xff7efc26>
     28c:	cc 3d       	cpi	r28, 0xDC	; 220
     28e:	cd cc       	rjmp	.-1638   	; 0xfffffc2a <__eeprom_end+0xff7efc2a>
     290:	4c 3e       	cpi	r20, 0xEC	; 236
     292:	cd cc       	rjmp	.-1638   	; 0xfffffc2e <__eeprom_end+0xff7efc2e>
     294:	4c be       	out	0x3c, r4	; 60
     296:	cd cc       	rjmp	.-1638   	; 0xfffffc32 <__eeprom_end+0xff7efc32>
     298:	4c 3e       	cpi	r20, 0xEC	; 236
     29a:	00 00       	nop
     29c:	00 00       	nop
     29e:	9a 99       	sbic	0x13, 2	; 19
     2a0:	99 be       	out	0x39, r9	; 57
     2a2:	9a 99       	sbic	0x13, 2	; 19
     2a4:	19 bf       	out	0x39, r17	; 57
     2a6:	9a 99       	sbic	0x13, 2	; 19
     2a8:	99 3e       	cpi	r25, 0xE9	; 233
     2aa:	00 00       	nop
     2ac:	00 3f       	cpi	r16, 0xF0	; 240
     2ae:	cd cc       	rjmp	.-1638   	; 0xfffffc4a <__eeprom_end+0xff7efc4a>
     2b0:	cc 3d       	cpi	r28, 0xDC	; 220
     2b2:	cd cc       	rjmp	.-1638   	; 0xfffffc4e <__eeprom_end+0xff7efc4e>
     2b4:	4c be       	out	0x3c, r4	; 60
     2b6:	00 00       	nop
     2b8:	00 3f       	cpi	r16, 0xF0	; 240
     2ba:	cd cc       	rjmp	.-1638   	; 0xfffffc56 <__eeprom_end+0xff7efc56>
     2bc:	cc 3e       	cpi	r28, 0xEC	; 236
     2be:	cd cc       	rjmp	.-1638   	; 0xfffffc5a <__eeprom_end+0xff7efc5a>
     2c0:	4c be       	out	0x3c, r4	; 60
     2c2:	cd cc       	rjmp	.-1638   	; 0xfffffc5e <__eeprom_end+0xff7efc5e>
     2c4:	cc 3d       	cpi	r28, 0xDC	; 220
     2c6:	9a 99       	sbic	0x13, 2	; 19
     2c8:	99 be       	out	0x39, r9	; 57
     2ca:	cd cc       	rjmp	.-1638   	; 0xfffffc66 <__eeprom_end+0xff7efc66>
     2cc:	cc be       	out	0x3c, r12	; 60
     2ce:	9a 99       	sbic	0x13, 2	; 19
     2d0:	99 3e       	cpi	r25, 0xE9	; 233
     2d2:	9a 99       	sbic	0x13, 2	; 19
     2d4:	99 3e       	cpi	r25, 0xE9	; 233
	...

000004a6 <agh>:
     4a6:	00 00 00 00 00 04 e6 c6 00 a0 bb c4 cd e8 95 45     ...............E
     4b6:	9a d1 18 c5 66 4e 3c 45 9a d9 31 c5 66 96 d1 44     ....fN<E..1.f..D
     4c6:	9a 79 20 c4 66 d6 a8 44 cd 04 13 c5 9a 99 e6 c2     .y .f..D........
     4d6:	33 33 99 44 66 e6 74 43 00 80 11 44 9a 99 06 c4     33.Df.tC...D....
     4e6:	66 e6 62 44 cd 6c 4b 44 66 a6 8d 43 cd cc f0 42     f.bD.lKDf..C...B
     4f6:	33 b3 3c c3 33 73 a7 c3 66 e6 34 43 cd cc 8c 42     3.<.3s..f.4C...B
     506:	00 c0 a4 c3 9a 99 68 c3 cd 0c b4 43 33 33 3d 42     ......h....C33=B
     516:	66 66 40 43 00 00 45 43 66 e6 0c c3 9a 99 ee c2     ff@C..ECf.......
     526:	00 80 1d c3 00 00 80 41 33 33 83 40 66 66 c8 42     .......A33.@ff.B
     536:	00 00 8c 42 66 66 87 42 66 66 a6 c1 66 66 91 42     ...Bff.Bff..ff.B
     546:	cd cc 04 42 66 e6 01 c3 9a 99 6b 42 33 33 e7 c1     ...Bf.....kB33..
     556:	66 66 85 c2 33 33 53 41 9a 99 e9 40 cd cc 8d c2     ff..33SA...@....
     566:	66 66 7a 42 33 33 a3 42 33 33 98 c2 66 66 58 c2     ffzB33.B33..ffX.
     576:	9a 99 d9 c0 00 00 9c c1 33 33 4f 42 66 66 b6 40     ........33OBff.@
     586:	00 00 70 41 33 33 c3 41 66 66 16 41 9a 99 59 40     ..pA33.Aff.A..Y@
     596:	33 33 33 c0 33 33 db c1 9a 99 d9 40 cd cc 0c c0     333.33.....@....
     5a6:	9a 99 c1 41 cd cc 0c 41 9a 99 21 41 33 33 87 c1     ...A...A..!A33..
     5b6:	66 66 92 c1 cd cc 4c c0 cd cc 54 41 cd cc a4 c1     ff....L...TA....
     5c6:	9a 99 69 c1 66 66 56 41 9a 99 81 41 33 33 3b 41     ..i.ffVA...A33;A
     5d6:	66 66 b6 40 66 66 7e c1 9a 99 11 c1 00 00 00 c0     ff.@ff~.........
     5e6:	66 66 06 40 cd cc ac 40 cd cc 0c 41 cd cc ac c1     ff.@...@...A....
     5f6:	66 66 46 40 cd cc 2c 41 33 33 53 c0 cd cc 3c 41     ffF@..,A33S...<A
     606:	33 33 33 3f 9a 99 d9 c0 cd cc 54 c1 cd cc dc c0     333?......T.....
     616:	cd cc cc bd 9a 99 f9 40 33 33 0b 41 00 00 80 3f     .......@33.A...?
     626:	9a 99 11 c1 00 00 80 c0 00 00 28 c1 66 66 06 41     ..........(.ff.A
     636:	33 33 f3 bf 9a 99 c9 c0 cd cc 4c 40 cd cc cc 3d     33........L@...=
     646:	cd cc cc be 00 00 00 3f 33 33 93 40 00 00 00 bf     .......?33.@....
     656:	cd cc 8c 40 66 66 e6 3f cd cc fc c0 33 33 33 bf     ...@ff.?....333.
     666:	9a 99 19 bf 66 66 06 40 66 66 86 c0 9a 99 19 40     ....ff.@ff.....@
     676:	33 33 33 c0 66 66 e6 bf 9a 99 99 bf 66 66 66 c0     333.ff......fff.
     686:	33 33 0b c1 66 66 46 40 00 00 c0 bf cd cc cc bd     33..ffF@........
     696:	33 33 13 c0 00 00 00 40 00 00 00 40 33 33 33 bf     33.....@...@333.
     6a6:	cd cc 4c bf cd cc 8c bf 9a 99 19 3f cd cc 4c 3f     ..L........?..L?
     6b6:	33 33 33 bf cd cc 4c be cd cc 4c 3e cd cc 0c c0     333...L...L>....
     6c6:	9a 99 d9 3f 33 33 b3 bf cd cc 4c be 00 00 20 c0     ...?33....L... .
     6d6:	cd cc cc 3e 00 00 00 c0 00 00 60 40 9a 99 19 c0     ...>......`@....
     6e6:	33 33 f3 bf cd cc 4c be cd cc 8c bf cd cc cc 3e     33....L........>
     6f6:	cd cc cc 3e 9a 99 99 3f 33 33 f3 3f cd cc 4c bf     ...>...?33.?..L.
     706:	cd cc 0c c0 66 66 66 3f 9a 99 99 3e cd cc cc 3d     ....fff?...>...=
     716:	33 33 33 3f 00 00 00 3f cd cc cc bd 9a 99 99 be     333?...?........
     726:	9a 99 99 3e cd cc cc be cd cc 4c 3e cd cc 4c 3e     ...>......L>..L>
     736:	66 66 66 bf 66 66 66 bf cd cc cc bd 00 00 00 00     fff.fff.........
     746:	33 33 33 3f 00 00 00 00 66 66 66 bf 66 66 66 bf     333?....fff.fff.
     756:	cd cc cc 3e cd cc cc 3e 00 00 00 3f cd cc cc 3f     ...>...>...?...?
     766:	00 00 00 bf 00 00 00 bf 00 00 80 3f 9a 99 99 bf     ...........?....
     776:	cd cc 4c be cd cc cc bd cd cc 4c 3f cd cc cc 3e     ..L.......L?...>
     786:	cd cc cc bd cd cc cc bd 9a 99 99 3e cd cc cc 3e     ...........>...>
     796:	cd cc cc 3d 00 00 00 3f 00 00 00 3f 9a 99 99 be     ...=...?...?....
     7a6:	cd cc cc be cd cc cc be 9a 99 99 be cd cc 4c bf     ..............L.

000007b6 <__ctors_end>:
     7b6:	11 24       	eor	r1, r1
     7b8:	1f be       	out	0x3f, r1	; 63
     7ba:	cf ef       	ldi	r28, 0xFF	; 255
     7bc:	d0 e1       	ldi	r29, 0x10	; 16
     7be:	de bf       	out	0x3e, r29	; 62
     7c0:	cd bf       	out	0x3d, r28	; 61

000007c2 <__do_copy_data>:
     7c2:	11 e0       	ldi	r17, 0x01	; 1
     7c4:	a0 e0       	ldi	r26, 0x00	; 0
     7c6:	b1 e0       	ldi	r27, 0x01	; 1
     7c8:	e4 e5       	ldi	r30, 0x54	; 84
     7ca:	fe e5       	ldi	r31, 0x5E	; 94
     7cc:	00 e0       	ldi	r16, 0x00	; 0
     7ce:	0b bf       	out	0x3b, r16	; 59
     7d0:	02 c0       	rjmp	.+4      	; 0x7d6 <__do_copy_data+0x14>
     7d2:	07 90       	elpm	r0, Z+
     7d4:	0d 92       	st	X+, r0
     7d6:	a0 3e       	cpi	r26, 0xE0	; 224
     7d8:	b1 07       	cpc	r27, r17
     7da:	d9 f7       	brne	.-10     	; 0x7d2 <__do_copy_data+0x10>

000007dc <__do_clear_bss>:
     7dc:	25 e0       	ldi	r18, 0x05	; 5
     7de:	a0 ee       	ldi	r26, 0xE0	; 224
     7e0:	b1 e0       	ldi	r27, 0x01	; 1
     7e2:	01 c0       	rjmp	.+2      	; 0x7e6 <.do_clear_bss_start>

000007e4 <.do_clear_bss_loop>:
     7e4:	1d 92       	st	X+, r1

000007e6 <.do_clear_bss_start>:
     7e6:	a4 36       	cpi	r26, 0x64	; 100
     7e8:	b2 07       	cpc	r27, r18
     7ea:	e1 f7       	brne	.-8      	; 0x7e4 <.do_clear_bss_loop>
     7ec:	0e 94 e6 1a 	call	0x35cc	; 0x35cc <main>
     7f0:	0c 94 28 2f 	jmp	0x5e50	; 0x5e50 <_exit>

000007f4 <__bad_interrupt>:
     7f4:	05 cc       	rjmp	.-2038   	; 0x0 <__vectors>

000007f6 <detumbling>:
Current_state.pwm.y_dir = 1;
else
Current_state.pwm.y_dir = 0;

if(v_m[2] < 0)
Current_state.pwm.z_dir = 1;
     7f6:	3f 92       	push	r3
     7f8:	4f 92       	push	r4
     7fa:	5f 92       	push	r5
     7fc:	6f 92       	push	r6
     7fe:	7f 92       	push	r7
     800:	8f 92       	push	r8
     802:	9f 92       	push	r9
     804:	af 92       	push	r10
     806:	bf 92       	push	r11
     808:	cf 92       	push	r12
     80a:	df 92       	push	r13
     80c:	ef 92       	push	r14
     80e:	ff 92       	push	r15
     810:	0f 93       	push	r16
     812:	1f 93       	push	r17
     814:	cf 93       	push	r28
     816:	df 93       	push	r29
     818:	cd b7       	in	r28, 0x3d	; 61
     81a:	de b7       	in	r29, 0x3e	; 62
     81c:	6c 97       	sbiw	r28, 0x1c	; 28
     81e:	0f b6       	in	r0, 0x3f	; 63
     820:	f8 94       	cli
     822:	de bf       	out	0x3e, r29	; 62
     824:	0f be       	out	0x3f, r0	; 63
     826:	cd bf       	out	0x3d, r28	; 61
     828:	9c 8f       	std	Y+28, r25	; 0x1c
     82a:	8b 8f       	std	Y+27, r24	; 0x1b
     82c:	c0 90 34 05 	lds	r12, 0x0534
     830:	d0 90 35 05 	lds	r13, 0x0535
     834:	e0 90 36 05 	lds	r14, 0x0536
     838:	f0 90 37 05 	lds	r15, 0x0537
     83c:	c0 92 49 02 	sts	0x0249, r12
     840:	d0 92 4a 02 	sts	0x024A, r13
     844:	e0 92 4b 02 	sts	0x024B, r14
     848:	f0 92 4c 02 	sts	0x024C, r15
     84c:	80 91 38 05 	lds	r24, 0x0538
     850:	90 91 39 05 	lds	r25, 0x0539
     854:	a0 91 3a 05 	lds	r26, 0x053A
     858:	b0 91 3b 05 	lds	r27, 0x053B
     85c:	80 93 4d 02 	sts	0x024D, r24
     860:	90 93 4e 02 	sts	0x024E, r25
     864:	a0 93 4f 02 	sts	0x024F, r26
     868:	b0 93 50 02 	sts	0x0250, r27
     86c:	80 91 3c 05 	lds	r24, 0x053C
     870:	90 91 3d 05 	lds	r25, 0x053D
     874:	a0 91 3e 05 	lds	r26, 0x053E
     878:	b0 91 3f 05 	lds	r27, 0x053F
     87c:	80 93 51 02 	sts	0x0251, r24
     880:	90 93 52 02 	sts	0x0252, r25
     884:	a0 93 53 02 	sts	0x0253, r26
     888:	b0 93 54 02 	sts	0x0254, r27
     88c:	80 91 0c 01 	lds	r24, 0x010C
     890:	81 11       	cpse	r24, r1
     892:	9c c0       	rjmp	.+312    	; 0x9cc <detumbling+0x1d6>
     894:	80 ee       	ldi	r24, 0xE0	; 224
     896:	a8 2e       	mov	r10, r24
     898:	81 e0       	ldi	r24, 0x01	; 1
     89a:	b8 2e       	mov	r11, r24
     89c:	8e 01       	movw	r16, r28
     89e:	0f 5f       	subi	r16, 0xFF	; 255
     8a0:	1f 4f       	sbci	r17, 0xFF	; 255
     8a2:	ce 01       	movw	r24, r28
     8a4:	0d 96       	adiw	r24, 0x0d	; 13
     8a6:	4c 01       	movw	r8, r24
     8a8:	ed e4       	ldi	r30, 0x4D	; 77
     8aa:	f2 e0       	ldi	r31, 0x02	; 2
     8ac:	fa 8f       	std	Y+26, r31	; 0x1a
     8ae:	e9 8f       	std	Y+25, r30	; 0x19
     8b0:	31 2c       	mov	r3, r1
     8b2:	f5 01       	movw	r30, r10
     8b4:	41 90       	ld	r4, Z+
     8b6:	51 90       	ld	r5, Z+
     8b8:	61 90       	ld	r6, Z+
     8ba:	71 90       	ld	r7, Z+
     8bc:	5f 01       	movw	r10, r30
     8be:	a3 01       	movw	r20, r6
     8c0:	92 01       	movw	r18, r4
     8c2:	c7 01       	movw	r24, r14
     8c4:	b6 01       	movw	r22, r12
     8c6:	0e 94 97 29 	call	0x532e	; 0x532e <__subsf3>
     8ca:	20 e0       	ldi	r18, 0x00	; 0
     8cc:	30 e0       	ldi	r19, 0x00	; 0
     8ce:	40 e0       	ldi	r20, 0x00	; 0
     8d0:	5f e3       	ldi	r21, 0x3F	; 63
     8d2:	0e 94 95 2c 	call	0x592a	; 0x592a <__mulsf3>
     8d6:	f8 01       	movw	r30, r16
     8d8:	61 93       	st	Z+, r22
     8da:	71 93       	st	Z+, r23
     8dc:	81 93       	st	Z+, r24
     8de:	91 93       	st	Z+, r25
     8e0:	8f 01       	movw	r16, r30
     8e2:	a7 01       	movw	r20, r14
     8e4:	96 01       	movw	r18, r12
     8e6:	c3 01       	movw	r24, r6
     8e8:	b2 01       	movw	r22, r4
     8ea:	0e 94 98 29 	call	0x5330	; 0x5330 <__addsf3>
     8ee:	20 e0       	ldi	r18, 0x00	; 0
     8f0:	30 e0       	ldi	r19, 0x00	; 0
     8f2:	40 e0       	ldi	r20, 0x00	; 0
     8f4:	5f e3       	ldi	r21, 0x3F	; 63
     8f6:	0e 94 95 2c 	call	0x592a	; 0x592a <__mulsf3>
     8fa:	f4 01       	movw	r30, r8
     8fc:	61 93       	st	Z+, r22
     8fe:	71 93       	st	Z+, r23
     900:	81 93       	st	Z+, r24
     902:	91 93       	st	Z+, r25
     904:	4f 01       	movw	r8, r30
     906:	33 94       	inc	r3
     908:	f3 e0       	ldi	r31, 0x03	; 3
     90a:	3f 16       	cp	r3, r31
     90c:	49 f0       	breq	.+18     	; 0x920 <detumbling+0x12a>
     90e:	e9 8d       	ldd	r30, Y+25	; 0x19
     910:	fa 8d       	ldd	r31, Y+26	; 0x1a
     912:	c1 90       	ld	r12, Z+
     914:	d1 90       	ld	r13, Z+
     916:	e1 90       	ld	r14, Z+
     918:	f1 90       	ld	r15, Z+
     91a:	fa 8f       	std	Y+26, r31	; 0x1a
     91c:	e9 8f       	std	Y+25, r30	; 0x19
     91e:	c9 cf       	rjmp	.-110    	; 0x8b2 <detumbling+0xbc>
     920:	ce 01       	movw	r24, r28
     922:	0d 96       	adiw	r24, 0x0d	; 13
     924:	0e 94 5e 1b 	call	0x36bc	; 0x36bc <vector_norm>
     928:	9b 01       	movw	r18, r22
     92a:	ac 01       	movw	r20, r24
     92c:	60 e0       	ldi	r22, 0x00	; 0
     92e:	70 e0       	ldi	r23, 0x00	; 0
     930:	80 e8       	ldi	r24, 0x80	; 128
     932:	9f eb       	ldi	r25, 0xBF	; 191
     934:	0e 94 7c 2a 	call	0x54f8	; 0x54f8 <__divsf3>
     938:	6b 01       	movw	r12, r22
     93a:	7c 01       	movw	r14, r24
     93c:	9b 01       	movw	r18, r22
     93e:	ac 01       	movw	r20, r24
     940:	69 81       	ldd	r22, Y+1	; 0x01
     942:	7a 81       	ldd	r23, Y+2	; 0x02
     944:	8b 81       	ldd	r24, Y+3	; 0x03
     946:	9c 81       	ldd	r25, Y+4	; 0x04
     948:	0e 94 95 2c 	call	0x592a	; 0x592a <__mulsf3>
     94c:	eb 8d       	ldd	r30, Y+27	; 0x1b
     94e:	fc 8d       	ldd	r31, Y+28	; 0x1c
     950:	60 83       	st	Z, r22
     952:	71 83       	std	Z+1, r23	; 0x01
     954:	82 83       	std	Z+2, r24	; 0x02
     956:	93 83       	std	Z+3, r25	; 0x03
     958:	a7 01       	movw	r20, r14
     95a:	96 01       	movw	r18, r12
     95c:	6d 81       	ldd	r22, Y+5	; 0x05
     95e:	7e 81       	ldd	r23, Y+6	; 0x06
     960:	8f 81       	ldd	r24, Y+7	; 0x07
     962:	98 85       	ldd	r25, Y+8	; 0x08
     964:	0e 94 95 2c 	call	0x592a	; 0x592a <__mulsf3>
     968:	eb 8d       	ldd	r30, Y+27	; 0x1b
     96a:	fc 8d       	ldd	r31, Y+28	; 0x1c
     96c:	64 83       	std	Z+4, r22	; 0x04
     96e:	75 83       	std	Z+5, r23	; 0x05
     970:	86 83       	std	Z+6, r24	; 0x06
     972:	97 83       	std	Z+7, r25	; 0x07
     974:	a7 01       	movw	r20, r14
     976:	96 01       	movw	r18, r12
     978:	69 85       	ldd	r22, Y+9	; 0x09
     97a:	7a 85       	ldd	r23, Y+10	; 0x0a
     97c:	8b 85       	ldd	r24, Y+11	; 0x0b
     97e:	9c 85       	ldd	r25, Y+12	; 0x0c
     980:	0e 94 95 2c 	call	0x592a	; 0x592a <__mulsf3>
     984:	eb 8d       	ldd	r30, Y+27	; 0x1b
     986:	fc 8d       	ldd	r31, Y+28	; 0x1c
     988:	60 87       	std	Z+8, r22	; 0x08
     98a:	71 87       	std	Z+9, r23	; 0x09
     98c:	82 87       	std	Z+10, r24	; 0x0a
     98e:	93 87       	std	Z+11, r25	; 0x0b
     990:	60 ee       	ldi	r22, 0xE0	; 224
     992:	71 e0       	ldi	r23, 0x01	; 1
     994:	89 e4       	ldi	r24, 0x49	; 73
     996:	92 e0       	ldi	r25, 0x02	; 2
     998:	0e 94 31 1b 	call	0x3662	; 0x3662 <copy_vector>
     99c:	6c 96       	adiw	r28, 0x1c	; 28
     99e:	0f b6       	in	r0, 0x3f	; 63
     9a0:	f8 94       	cli
     9a2:	de bf       	out	0x3e, r29	; 62
     9a4:	0f be       	out	0x3f, r0	; 63
     9a6:	cd bf       	out	0x3d, r28	; 61
     9a8:	df 91       	pop	r29
     9aa:	cf 91       	pop	r28
     9ac:	1f 91       	pop	r17
     9ae:	0f 91       	pop	r16
     9b0:	ff 90       	pop	r15
     9b2:	ef 90       	pop	r14
     9b4:	df 90       	pop	r13
     9b6:	cf 90       	pop	r12
     9b8:	bf 90       	pop	r11
     9ba:	af 90       	pop	r10
     9bc:	9f 90       	pop	r9
     9be:	8f 90       	pop	r8
     9c0:	7f 90       	pop	r7
     9c2:	6f 90       	pop	r6
     9c4:	5f 90       	pop	r5
     9c6:	4f 90       	pop	r4
     9c8:	3f 90       	pop	r3
     9ca:	08 95       	ret
     9cc:	60 ee       	ldi	r22, 0xE0	; 224
     9ce:	71 e0       	ldi	r23, 0x01	; 1
     9d0:	89 e4       	ldi	r24, 0x49	; 73
     9d2:	92 e0       	ldi	r25, 0x02	; 2
     9d4:	0e 94 31 1b 	call	0x3662	; 0x3662 <copy_vector>
     9d8:	10 92 0c 01 	sts	0x010C, r1
     9dc:	df cf       	rjmp	.-66     	; 0x99c <detumbling+0x1a6>

000009de <nominal>:
     9de:	2f 92       	push	r2
     9e0:	3f 92       	push	r3
     9e2:	4f 92       	push	r4
     9e4:	5f 92       	push	r5
     9e6:	6f 92       	push	r6
     9e8:	7f 92       	push	r7
     9ea:	8f 92       	push	r8
     9ec:	9f 92       	push	r9
     9ee:	af 92       	push	r10
     9f0:	bf 92       	push	r11
     9f2:	cf 92       	push	r12
     9f4:	df 92       	push	r13
     9f6:	ef 92       	push	r14
     9f8:	ff 92       	push	r15
     9fa:	0f 93       	push	r16
     9fc:	1f 93       	push	r17
     9fe:	cf 93       	push	r28
     a00:	df 93       	push	r29
     a02:	cd b7       	in	r28, 0x3d	; 61
     a04:	de b7       	in	r29, 0x3e	; 62
     a06:	ac 97       	sbiw	r28, 0x2c	; 44
     a08:	0f b6       	in	r0, 0x3f	; 63
     a0a:	f8 94       	cli
     a0c:	de bf       	out	0x3e, r29	; 62
     a0e:	0f be       	out	0x3f, r0	; 63
     a10:	cd bf       	out	0x3d, r28	; 61
     a12:	9c a7       	std	Y+44, r25	; 0x2c
     a14:	8b a7       	std	Y+43, r24	; 0x2b
     a16:	60 91 34 05 	lds	r22, 0x0534
     a1a:	70 91 35 05 	lds	r23, 0x0535
     a1e:	80 91 36 05 	lds	r24, 0x0536
     a22:	90 91 37 05 	lds	r25, 0x0537
     a26:	20 e0       	ldi	r18, 0x00	; 0
     a28:	30 e4       	ldi	r19, 0x40	; 64
     a2a:	4c e1       	ldi	r20, 0x1C	; 28
     a2c:	56 e4       	ldi	r21, 0x46	; 70
     a2e:	0e 94 7c 2a 	call	0x54f8	; 0x54f8 <__divsf3>
     a32:	60 93 49 02 	sts	0x0249, r22
     a36:	70 93 4a 02 	sts	0x024A, r23
     a3a:	80 93 4b 02 	sts	0x024B, r24
     a3e:	90 93 4c 02 	sts	0x024C, r25
     a42:	60 91 38 05 	lds	r22, 0x0538
     a46:	70 91 39 05 	lds	r23, 0x0539
     a4a:	80 91 3a 05 	lds	r24, 0x053A
     a4e:	90 91 3b 05 	lds	r25, 0x053B
     a52:	20 e0       	ldi	r18, 0x00	; 0
     a54:	30 e4       	ldi	r19, 0x40	; 64
     a56:	4c e1       	ldi	r20, 0x1C	; 28
     a58:	56 e4       	ldi	r21, 0x46	; 70
     a5a:	0e 94 7c 2a 	call	0x54f8	; 0x54f8 <__divsf3>
     a5e:	60 93 4d 02 	sts	0x024D, r22
     a62:	70 93 4e 02 	sts	0x024E, r23
     a66:	80 93 4f 02 	sts	0x024F, r24
     a6a:	90 93 50 02 	sts	0x0250, r25
     a6e:	60 91 3c 05 	lds	r22, 0x053C
     a72:	70 91 3d 05 	lds	r23, 0x053D
     a76:	80 91 3e 05 	lds	r24, 0x053E
     a7a:	90 91 3f 05 	lds	r25, 0x053F
     a7e:	20 e0       	ldi	r18, 0x00	; 0
     a80:	30 e4       	ldi	r19, 0x40	; 64
     a82:	4c e1       	ldi	r20, 0x1C	; 28
     a84:	56 e4       	ldi	r21, 0x46	; 70
     a86:	0e 94 7c 2a 	call	0x54f8	; 0x54f8 <__divsf3>
     a8a:	60 93 51 02 	sts	0x0251, r22
     a8e:	70 93 52 02 	sts	0x0252, r23
     a92:	80 93 53 02 	sts	0x0253, r24
     a96:	90 93 54 02 	sts	0x0254, r25
     a9a:	89 e4       	ldi	r24, 0x49	; 73
     a9c:	92 e0       	ldi	r25, 0x02	; 2
     a9e:	0e 94 5e 1b 	call	0x36bc	; 0x36bc <vector_norm>
     aa2:	2b 01       	movw	r4, r22
     aa4:	3c 01       	movw	r6, r24
     aa6:	80 90 2d 02 	lds	r8, 0x022D
     aaa:	90 90 2e 02 	lds	r9, 0x022E
     aae:	a0 90 2f 02 	lds	r10, 0x022F
     ab2:	b0 90 30 02 	lds	r11, 0x0230
     ab6:	91 e2       	ldi	r25, 0x21	; 33
     ab8:	e9 2e       	mov	r14, r25
     aba:	92 e0       	ldi	r25, 0x02	; 2
     abc:	f9 2e       	mov	r15, r25
     abe:	01 e3       	ldi	r16, 0x31	; 49
     ac0:	12 e0       	ldi	r17, 0x02	; 2
     ac2:	ce 01       	movw	r24, r28
     ac4:	01 96       	adiw	r24, 0x01	; 1
     ac6:	6c 01       	movw	r12, r24
     ac8:	f7 01       	movw	r30, r14
     aca:	61 91       	ld	r22, Z+
     acc:	71 91       	ld	r23, Z+
     ace:	81 91       	ld	r24, Z+
     ad0:	91 91       	ld	r25, Z+
     ad2:	7f 01       	movw	r14, r30
     ad4:	9b 01       	movw	r18, r22
     ad6:	ac 01       	movw	r20, r24
     ad8:	0e 94 98 29 	call	0x5330	; 0x5330 <__addsf3>
     adc:	a5 01       	movw	r20, r10
     ade:	94 01       	movw	r18, r8
     ae0:	0e 94 95 2c 	call	0x592a	; 0x592a <__mulsf3>
     ae4:	f6 01       	movw	r30, r12
     ae6:	61 93       	st	Z+, r22
     ae8:	71 93       	st	Z+, r23
     aea:	81 93       	st	Z+, r24
     aec:	91 93       	st	Z+, r25
     aee:	6f 01       	movw	r12, r30
     af0:	9b 01       	movw	r18, r22
     af2:	ac 01       	movw	r20, r24
     af4:	0e 94 98 29 	call	0x5330	; 0x5330 <__addsf3>
     af8:	9b 01       	movw	r18, r22
     afa:	ac 01       	movw	r20, r24
     afc:	f8 01       	movw	r30, r16
     afe:	60 81       	ld	r22, Z
     b00:	71 81       	ldd	r23, Z+1	; 0x01
     b02:	82 81       	ldd	r24, Z+2	; 0x02
     b04:	93 81       	ldd	r25, Z+3	; 0x03
     b06:	0e 94 98 29 	call	0x5330	; 0x5330 <__addsf3>
     b0a:	f8 01       	movw	r30, r16
     b0c:	61 93       	st	Z+, r22
     b0e:	71 93       	st	Z+, r23
     b10:	81 93       	st	Z+, r24
     b12:	91 93       	st	Z+, r25
     b14:	8f 01       	movw	r16, r30
     b16:	fd e2       	ldi	r31, 0x2D	; 45
     b18:	ef 16       	cp	r14, r31
     b1a:	f2 e0       	ldi	r31, 0x02	; 2
     b1c:	ff 06       	cpc	r15, r31
     b1e:	a1 f6       	brne	.-88     	; 0xac8 <nominal+0xea>
     b20:	a3 01       	movw	r20, r6
     b22:	92 01       	movw	r18, r4
     b24:	c3 01       	movw	r24, r6
     b26:	b2 01       	movw	r22, r4
     b28:	0e 94 95 2c 	call	0x592a	; 0x592a <__mulsf3>
     b2c:	6f a3       	std	Y+39, r22	; 0x27
     b2e:	78 a7       	std	Y+40, r23	; 0x28
     b30:	89 a7       	std	Y+41, r24	; 0x29
     b32:	9a a7       	std	Y+42, r25	; 0x2a
     b34:	8c ee       	ldi	r24, 0xEC	; 236
     b36:	91 e0       	ldi	r25, 0x01	; 1
     b38:	9e a3       	std	Y+38, r25	; 0x26
     b3a:	8d a3       	std	Y+37, r24	; 0x25
     b3c:	00 e0       	ldi	r16, 0x00	; 0
     b3e:	10 e0       	ldi	r17, 0x00	; 0
     b40:	18 01       	movw	r2, r16
     b42:	ed e3       	ldi	r30, 0x3D	; 61
     b44:	f2 e0       	ldi	r31, 0x02	; 2
     b46:	f8 8b       	std	Y+16, r31	; 0x10
     b48:	ef 87       	std	Y+15, r30	; 0x0f
     b4a:	c1 01       	movw	r24, r2
     b4c:	8b 5e       	subi	r24, 0xEB	; 235
     b4e:	9e 4f       	sbci	r25, 0xFE	; 254
     b50:	9e 87       	std	Y+14, r25	; 0x0e
     b52:	8d 87       	std	Y+13, r24	; 0x0d
     b54:	f1 01       	movw	r30, r2
     b56:	e7 5c       	subi	r30, 0xC7	; 199
     b58:	fe 4f       	sbci	r31, 0xFE	; 254
     b5a:	fa 8b       	std	Y+18, r31	; 0x12
     b5c:	e9 8b       	std	Y+17, r30	; 0x11
     b5e:	81 e3       	ldi	r24, 0x31	; 49
     b60:	92 e0       	ldi	r25, 0x02	; 2
     b62:	9c 8b       	std	Y+20, r25	; 0x14
     b64:	8b 8b       	std	Y+19, r24	; 0x13
     b66:	f1 01       	movw	r30, r2
     b68:	e3 5a       	subi	r30, 0xA3	; 163
     b6a:	fe 4f       	sbci	r31, 0xFE	; 254
     b6c:	fe 8b       	std	Y+22, r31	; 0x16
     b6e:	ed 8b       	std	Y+21, r30	; 0x15
     b70:	ce 01       	movw	r24, r28
     b72:	01 96       	adiw	r24, 0x01	; 1
     b74:	98 8f       	std	Y+24, r25	; 0x18
     b76:	8f 8b       	std	Y+23, r24	; 0x17
     b78:	13 e0       	ldi	r17, 0x03	; 3
     b7a:	81 2c       	mov	r8, r1
     b7c:	91 2c       	mov	r9, r1
     b7e:	54 01       	movw	r10, r8
     b80:	ef 89       	ldd	r30, Y+23	; 0x17
     b82:	f8 8d       	ldd	r31, Y+24	; 0x18
     b84:	61 91       	ld	r22, Z+
     b86:	71 91       	ld	r23, Z+
     b88:	81 91       	ld	r24, Z+
     b8a:	91 91       	ld	r25, Z+
     b8c:	f8 8f       	std	Y+24, r31	; 0x18
     b8e:	ef 8b       	std	Y+23, r30	; 0x17
     b90:	ed 89       	ldd	r30, Y+21	; 0x15
     b92:	fe 89       	ldd	r31, Y+22	; 0x16
     b94:	21 91       	ld	r18, Z+
     b96:	31 91       	ld	r19, Z+
     b98:	41 91       	ld	r20, Z+
     b9a:	51 91       	ld	r21, Z+
     b9c:	fe 8b       	std	Y+22, r31	; 0x16
     b9e:	ed 8b       	std	Y+21, r30	; 0x15
     ba0:	eb 89       	ldd	r30, Y+19	; 0x13
     ba2:	fc 89       	ldd	r31, Y+20	; 0x14
     ba4:	c1 90       	ld	r12, Z+
     ba6:	d1 90       	ld	r13, Z+
     ba8:	e1 90       	ld	r14, Z+
     baa:	f1 90       	ld	r15, Z+
     bac:	fc 8b       	std	Y+20, r31	; 0x14
     bae:	eb 8b       	std	Y+19, r30	; 0x13
     bb0:	c9 8e       	std	Y+25, r12	; 0x19
     bb2:	da 8e       	std	Y+26, r13	; 0x1a
     bb4:	eb 8e       	std	Y+27, r14	; 0x1b
     bb6:	fc 8e       	std	Y+28, r15	; 0x1c
     bb8:	e9 89       	ldd	r30, Y+17	; 0x11
     bba:	fa 89       	ldd	r31, Y+18	; 0x12
     bbc:	41 90       	ld	r4, Z+
     bbe:	51 90       	ld	r5, Z+
     bc0:	61 90       	ld	r6, Z+
     bc2:	71 90       	ld	r7, Z+
     bc4:	fa 8b       	std	Y+18, r31	; 0x12
     bc6:	e9 8b       	std	Y+17, r30	; 0x11
     bc8:	ef 85       	ldd	r30, Y+15	; 0x0f
     bca:	f8 89       	ldd	r31, Y+16	; 0x10
     bcc:	c1 90       	ld	r12, Z+
     bce:	d1 90       	ld	r13, Z+
     bd0:	e1 90       	ld	r14, Z+
     bd2:	f1 90       	ld	r15, Z+
     bd4:	f8 8b       	std	Y+16, r31	; 0x10
     bd6:	ef 87       	std	Y+15, r30	; 0x0f
     bd8:	cd 8e       	std	Y+29, r12	; 0x1d
     bda:	de 8e       	std	Y+30, r13	; 0x1e
     bdc:	ef 8e       	std	Y+31, r14	; 0x1f
     bde:	f8 a2       	std	Y+32, r15	; 0x20
     be0:	ed 85       	ldd	r30, Y+13	; 0x0d
     be2:	fe 85       	ldd	r31, Y+14	; 0x0e
     be4:	c1 90       	ld	r12, Z+
     be6:	d1 90       	ld	r13, Z+
     be8:	e1 90       	ld	r14, Z+
     bea:	f1 90       	ld	r15, Z+
     bec:	fe 87       	std	Y+14, r31	; 0x0e
     bee:	ed 87       	std	Y+13, r30	; 0x0d
     bf0:	c9 a2       	std	Y+33, r12	; 0x21
     bf2:	da a2       	std	Y+34, r13	; 0x22
     bf4:	eb a2       	std	Y+35, r14	; 0x23
     bf6:	fc a2       	std	Y+36, r15	; 0x24
     bf8:	0e 94 95 2c 	call	0x592a	; 0x592a <__mulsf3>
     bfc:	6b 01       	movw	r12, r22
     bfe:	7c 01       	movw	r14, r24
     c00:	a3 01       	movw	r20, r6
     c02:	92 01       	movw	r18, r4
     c04:	69 8d       	ldd	r22, Y+25	; 0x19
     c06:	7a 8d       	ldd	r23, Y+26	; 0x1a
     c08:	8b 8d       	ldd	r24, Y+27	; 0x1b
     c0a:	9c 8d       	ldd	r25, Y+28	; 0x1c
     c0c:	0e 94 95 2c 	call	0x592a	; 0x592a <__mulsf3>
     c10:	9b 01       	movw	r18, r22
     c12:	ac 01       	movw	r20, r24
     c14:	c7 01       	movw	r24, r14
     c16:	b6 01       	movw	r22, r12
     c18:	0e 94 98 29 	call	0x5330	; 0x5330 <__addsf3>
     c1c:	6b 01       	movw	r12, r22
     c1e:	7c 01       	movw	r14, r24
     c20:	29 a1       	ldd	r18, Y+33	; 0x21
     c22:	3a a1       	ldd	r19, Y+34	; 0x22
     c24:	4b a1       	ldd	r20, Y+35	; 0x23
     c26:	5c a1       	ldd	r21, Y+36	; 0x24
     c28:	6d 8d       	ldd	r22, Y+29	; 0x1d
     c2a:	7e 8d       	ldd	r23, Y+30	; 0x1e
     c2c:	8f 8d       	ldd	r24, Y+31	; 0x1f
     c2e:	98 a1       	ldd	r25, Y+32	; 0x20
     c30:	0e 94 95 2c 	call	0x592a	; 0x592a <__mulsf3>
     c34:	9b 01       	movw	r18, r22
     c36:	ac 01       	movw	r20, r24
     c38:	c7 01       	movw	r24, r14
     c3a:	b6 01       	movw	r22, r12
     c3c:	0e 94 98 29 	call	0x5330	; 0x5330 <__addsf3>
     c40:	9b 01       	movw	r18, r22
     c42:	ac 01       	movw	r20, r24
     c44:	c5 01       	movw	r24, r10
     c46:	b4 01       	movw	r22, r8
     c48:	0e 94 98 29 	call	0x5330	; 0x5330 <__addsf3>
     c4c:	4b 01       	movw	r8, r22
     c4e:	5c 01       	movw	r10, r24
     c50:	11 50       	subi	r17, 0x01	; 1
     c52:	09 f0       	breq	.+2      	; 0xc56 <nominal+0x278>
     c54:	95 cf       	rjmp	.-214    	; 0xb80 <nominal+0x1a2>
     c56:	2f a1       	ldd	r18, Y+39	; 0x27
     c58:	38 a5       	ldd	r19, Y+40	; 0x28
     c5a:	49 a5       	ldd	r20, Y+41	; 0x29
     c5c:	5a a5       	ldd	r21, Y+42	; 0x2a
     c5e:	0e 94 7c 2a 	call	0x54f8	; 0x54f8 <__divsf3>
     c62:	ed a1       	ldd	r30, Y+37	; 0x25
     c64:	fe a1       	ldd	r31, Y+38	; 0x26
     c66:	61 93       	st	Z+, r22
     c68:	71 93       	st	Z+, r23
     c6a:	81 93       	st	Z+, r24
     c6c:	91 93       	st	Z+, r25
     c6e:	fe a3       	std	Y+38, r31	; 0x26
     c70:	ed a3       	std	Y+37, r30	; 0x25
     c72:	fc e0       	ldi	r31, 0x0C	; 12
     c74:	2f 0e       	add	r2, r31
     c76:	31 1c       	adc	r3, r1
     c78:	84 e2       	ldi	r24, 0x24	; 36
     c7a:	28 16       	cp	r2, r24
     c7c:	31 04       	cpc	r3, r1
     c7e:	09 f0       	breq	.+2      	; 0xc82 <nominal+0x2a4>
     c80:	60 cf       	rjmp	.-320    	; 0xb42 <nominal+0x164>
     c82:	4b a5       	ldd	r20, Y+43	; 0x2b
     c84:	5c a5       	ldd	r21, Y+44	; 0x2c
     c86:	69 e4       	ldi	r22, 0x49	; 73
     c88:	72 e0       	ldi	r23, 0x02	; 2
     c8a:	8c ee       	ldi	r24, 0xEC	; 236
     c8c:	91 e0       	ldi	r25, 0x01	; 1
     c8e:	0e 94 da 1c 	call	0x39b4	; 0x39b4 <vector_cross_product>
     c92:	60 91 20 02 	lds	r22, 0x0220
     c96:	70 e0       	ldi	r23, 0x00	; 0
     c98:	80 e0       	ldi	r24, 0x00	; 0
     c9a:	90 e0       	ldi	r25, 0x00	; 0
     c9c:	0e 94 10 2b 	call	0x5620	; 0x5620 <__floatunsisf>
     ca0:	ab 01       	movw	r20, r22
     ca2:	bc 01       	movw	r22, r24
     ca4:	8b a5       	ldd	r24, Y+43	; 0x2b
     ca6:	9c a5       	ldd	r25, Y+44	; 0x2c
     ca8:	ac 96       	adiw	r28, 0x2c	; 44
     caa:	0f b6       	in	r0, 0x3f	; 63
     cac:	f8 94       	cli
     cae:	de bf       	out	0x3e, r29	; 62
     cb0:	0f be       	out	0x3f, r0	; 63
     cb2:	cd bf       	out	0x3d, r28	; 61
     cb4:	df 91       	pop	r29
     cb6:	cf 91       	pop	r28
     cb8:	1f 91       	pop	r17
     cba:	0f 91       	pop	r16
     cbc:	ff 90       	pop	r15
     cbe:	ef 90       	pop	r14
     cc0:	df 90       	pop	r13
     cc2:	cf 90       	pop	r12
     cc4:	bf 90       	pop	r11
     cc6:	af 90       	pop	r10
     cc8:	9f 90       	pop	r9
     cca:	8f 90       	pop	r8
     ccc:	7f 90       	pop	r7
     cce:	6f 90       	pop	r6
     cd0:	5f 90       	pop	r5
     cd2:	4f 90       	pop	r4
     cd4:	3f 90       	pop	r3
     cd6:	2f 90       	pop	r2
     cd8:	0c 94 5b 1d 	jmp	0x3ab6	; 0x3ab6 <scalar_into_vector>

00000cdc <control>:
    Current_state.pwm.y_dir = 1;
  if(v_m[2] < 0)
    Current_state.pwm.z_dir = 1;
}
*/
void control(void){
     cdc:	2f 92       	push	r2
     cde:	3f 92       	push	r3
     ce0:	4f 92       	push	r4
     ce2:	5f 92       	push	r5
     ce4:	6f 92       	push	r6
     ce6:	7f 92       	push	r7
     ce8:	8f 92       	push	r8
     cea:	9f 92       	push	r9
     cec:	af 92       	push	r10
     cee:	bf 92       	push	r11
     cf0:	cf 92       	push	r12
     cf2:	df 92       	push	r13
     cf4:	ef 92       	push	r14
     cf6:	ff 92       	push	r15
     cf8:	0f 93       	push	r16
     cfa:	1f 93       	push	r17
     cfc:	cf 93       	push	r28
     cfe:	df 93       	push	r29
     d00:	cd b7       	in	r28, 0x3d	; 61
     d02:	de b7       	in	r29, 0x3e	; 62
     d04:	e0 97       	sbiw	r28, 0x30	; 48
     d06:	0f b6       	in	r0, 0x3f	; 63
     d08:	f8 94       	cli
     d0a:	de bf       	out	0x3e, r29	; 62
     d0c:	0f be       	out	0x3f, r0	; 63
     d0e:	cd bf       	out	0x3d, r28	; 61
  /// Take B readings from Magnetometer, clear torquer first
  //reset_PWM();
  
  //_delay_us(100);
  
  read_MM();
     d10:	0e 94 10 1e 	call	0x3c20	; 0x3c20 <read_MM>
  detumbling(v_m_D);
     d14:	ce 01       	movw	r24, r28
     d16:	85 96       	adiw	r24, 0x25	; 37
     d18:	6e dd       	rcall	.-1316   	; 0x7f6 <detumbling>
  d= Current_state.pwm.z_dir;
  transmit_UART0(c1);
  transmit_UART0(c2);
  transmit_UART0(d);
  */
  v_B[0] = Current_state.mm.B_x;
     d1a:	80 91 34 05 	lds	r24, 0x0534
     d1e:	90 91 35 05 	lds	r25, 0x0535
     d22:	a0 91 36 05 	lds	r26, 0x0536
     d26:	b0 91 37 05 	lds	r27, 0x0537
     d2a:	80 93 49 02 	sts	0x0249, r24
     d2e:	90 93 4a 02 	sts	0x024A, r25
     d32:	a0 93 4b 02 	sts	0x024B, r26
     d36:	b0 93 4c 02 	sts	0x024C, r27
  v_B[1] = Current_state.mm.B_y;
     d3a:	80 91 38 05 	lds	r24, 0x0538
     d3e:	90 91 39 05 	lds	r25, 0x0539
     d42:	a0 91 3a 05 	lds	r26, 0x053A
     d46:	b0 91 3b 05 	lds	r27, 0x053B
     d4a:	80 93 4d 02 	sts	0x024D, r24
     d4e:	90 93 4e 02 	sts	0x024E, r25
     d52:	a0 93 4f 02 	sts	0x024F, r26
     d56:	b0 93 50 02 	sts	0x0250, r27
  v_B[2] = Current_state.mm.B_z;
     d5a:	80 91 3c 05 	lds	r24, 0x053C
     d5e:	90 91 3d 05 	lds	r25, 0x053D
     d62:	a0 91 3e 05 	lds	r26, 0x053E
     d66:	b0 91 3f 05 	lds	r27, 0x053F
     d6a:	80 93 51 02 	sts	0x0251, r24
     d6e:	90 93 52 02 	sts	0x0252, r25
     d72:	a0 93 53 02 	sts	0x0253, r26
     d76:	b0 93 54 02 	sts	0x0254, r27
  
  //if(((GPS_done == 0) && (Time % 600 == 0)) || ((GPS_done < 0) && (!first_B) && (vector_norm(v_m_D) < 2 )))
    ///* Switch on the GPS First
	//if((gps_power) == 2)
	//{
		if (gps_power==2)
     d7a:	80 91 fc 01 	lds	r24, 0x01FC
     d7e:	90 91 fd 01 	lds	r25, 0x01FD
     d82:	02 97       	sbiw	r24, 0x02	; 2
     d84:	09 f4       	brne	.+2      	; 0xd88 <control+0xac>
     d86:	9a c2       	rjmp	.+1332   	; 0x12bc <__stack+0x1bd>
  
  /// Check if in Nominal or Detumbling Mode
  //if(GPS_done >= 0)
  //{
	   
    if(GPS_done == 1)
     d88:	80 91 13 01 	lds	r24, 0x0113
     d8c:	81 30       	cpi	r24, 0x01	; 1
     d8e:	09 f4       	brne	.+2      	; 0xd92 <control+0xb6>
     d90:	9c c2       	rjmp	.+1336   	; 0x12ca <__stack+0x1cb>
      copy_gps_reading();  //check if gps is on but pdop data
	  else
	  {
	  seconds_since_equinox += FRAME_TIME; //  ??jaroori hai ye plz dont delete??
     d92:	20 91 d2 04 	lds	r18, 0x04D2
     d96:	30 91 d3 04 	lds	r19, 0x04D3
     d9a:	40 91 d4 04 	lds	r20, 0x04D4
     d9e:	50 91 d5 04 	lds	r21, 0x04D5
     da2:	60 91 d6 04 	lds	r22, 0x04D6
     da6:	70 91 d7 04 	lds	r23, 0x04D7
     daa:	80 91 d8 04 	lds	r24, 0x04D8
     dae:	90 91 d9 04 	lds	r25, 0x04D9
     db2:	a2 e0       	ldi	r26, 0x02	; 2
     db4:	0e 94 df 2e 	call	0x5dbe	; 0x5dbe <__adddi3_s8>
     db8:	20 93 d2 04 	sts	0x04D2, r18
     dbc:	30 93 d3 04 	sts	0x04D3, r19
     dc0:	40 93 d4 04 	sts	0x04D4, r20
     dc4:	50 93 d5 04 	sts	0x04D5, r21
     dc8:	60 93 d6 04 	sts	0x04D6, r22
     dcc:	70 93 d7 04 	sts	0x04D7, r23
     dd0:	80 93 d8 04 	sts	0x04D8, r24
     dd4:	90 93 d9 04 	sts	0x04D9, r25
	  seconds_since_pivot += FRAME_TIME;
     dd8:	20 91 ca 04 	lds	r18, 0x04CA
     ddc:	30 91 cb 04 	lds	r19, 0x04CB
     de0:	40 91 cc 04 	lds	r20, 0x04CC
     de4:	50 91 cd 04 	lds	r21, 0x04CD
     de8:	60 91 ce 04 	lds	r22, 0x04CE
     dec:	70 91 cf 04 	lds	r23, 0x04CF
     df0:	80 91 d0 04 	lds	r24, 0x04D0
     df4:	90 91 d1 04 	lds	r25, 0x04D1
     df8:	0e 94 df 2e 	call	0x5dbe	; 0x5dbe <__adddi3_s8>
     dfc:	20 93 ca 04 	sts	0x04CA, r18
     e00:	30 93 cb 04 	sts	0x04CB, r19
     e04:	40 93 cc 04 	sts	0x04CC, r20
     e08:	50 93 cd 04 	sts	0x04CD, r21
     e0c:	60 93 ce 04 	sts	0x04CE, r22
     e10:	70 93 cf 04 	sts	0x04CF, r23
     e14:	80 93 d0 04 	sts	0x04D0, r24
     e18:	90 93 d1 04 	sts	0x04D1, r25
	 // Current_state.gps.time_since_reading += FRAME_TIME;
	  }
    
    read_SS();
     e1c:	0e 94 0e 1e 	call	0x3c1c	; 0x3c1c <read_SS>
		sen = (int8_t)st;
		sen1 = (int8_t)(st>>8);
		transmit_UART0(sen);
		transmit_UART0(sen1);
	}*/
	light = light_cal();
     e20:	0e 94 de 21 	call	0x43bc	; 0x43bc <light_cal>
     e24:	80 93 20 02 	sts	0x0220, r24
	if(GPS_done != 255)
     e28:	80 91 13 01 	lds	r24, 0x0113
     e2c:	8f 3f       	cpi	r24, 0xFF	; 255
     e2e:	09 f4       	brne	.+2      	; 0xe32 <control+0x156>
     e30:	43 c0       	rjmp	.+134    	; 0xeb8 <control+0x1dc>
	{
		
    sgp_orbit_propagator();
     e32:	0e 94 05 20 	call	0x400a	; 0x400a <sgp_orbit_propagator>
	
    sun_vector_estimator(v_sun_o);
     e36:	ce 01       	movw	r24, r28
     e38:	0d 96       	adiw	r24, 0x0d	; 13
     e3a:	0e 94 94 20 	call	0x4128	; 0x4128 <sun_vector_estimator>
	
    magnetic_field_estimator(v_B_o);
     e3e:	ce 01       	movw	r24, r28
     e40:	01 96       	adiw	r24, 0x01	; 1
     e42:	0e 94 63 21 	call	0x42c6	; 0x42c6 <magnetic_field_estimator>

	
	
    light = quest(v_B_o, v_sun_o, q_o, &w_ctrl); // to be checked
     e46:	2f e1       	ldi	r18, 0x1F	; 31
     e48:	32 e0       	ldi	r19, 0x02	; 2
     e4a:	41 e2       	ldi	r20, 0x21	; 33
     e4c:	52 e0       	ldi	r21, 0x02	; 2
     e4e:	be 01       	movw	r22, r28
     e50:	63 5f       	subi	r22, 0xF3	; 243
     e52:	7f 4f       	sbci	r23, 0xFF	; 255
     e54:	ce 01       	movw	r24, r28
     e56:	01 96       	adiw	r24, 0x01	; 1
     e58:	0e 94 00 22 	call	0x4400	; 0x4400 <quest>
     e5c:	80 93 20 02 	sts	0x0220, r24
    
    omega_estimation(q_o, v_w);
     e60:	6d e3       	ldi	r22, 0x3D	; 61
     e62:	72 e0       	ldi	r23, 0x02	; 2
     e64:	81 e2       	ldi	r24, 0x21	; 33
     e66:	92 e0       	ldi	r25, 0x02	; 2
     e68:	0e 94 47 25 	call	0x4a8e	; 0x4a8e <omega_estimation>
	
    scalar_into_vector(v_w, light*w_ctrl); //light * w_ctrl
     e6c:	60 91 20 02 	lds	r22, 0x0220
     e70:	80 91 1f 02 	lds	r24, 0x021F
     e74:	68 9f       	mul	r22, r24
     e76:	b0 01       	movw	r22, r0
     e78:	11 24       	eor	r1, r1
     e7a:	88 27       	eor	r24, r24
     e7c:	77 fd       	sbrc	r23, 7
     e7e:	80 95       	com	r24
     e80:	98 2f       	mov	r25, r24
     e82:	0e 94 12 2b 	call	0x5624	; 0x5624 <__floatsisf>
     e86:	ab 01       	movw	r20, r22
     e88:	bc 01       	movw	r22, r24
     e8a:	8d e3       	ldi	r24, 0x3D	; 61
     e8c:	92 e0       	ldi	r25, 0x02	; 2
     e8e:	0e 94 5b 1d 	call	0x3ab6	; 0x3ab6 <scalar_into_vector>
	/*if(v_m[i]<0)
	transmit_UART0(0x01);
	else
	transmit_UART0(0x00);*/
//}  
    mod_w = vector_norm(v_w); 
     e92:	8d e3       	ldi	r24, 0x3D	; 61
     e94:	92 e0       	ldi	r25, 0x02	; 2
     e96:	0e 94 5e 1b 	call	0x36bc	; 0x36bc <vector_norm>
     e9a:	60 93 c6 04 	sts	0x04C6, r22
     e9e:	70 93 c7 04 	sts	0x04C7, r23
     ea2:	80 93 c8 04 	sts	0x04C8, r24
     ea6:	90 93 c9 04 	sts	0x04C9, r25
    convert_unit_quaternion(q_o);
     eaa:	81 e2       	ldi	r24, 0x21	; 33
     eac:	92 e0       	ldi	r25, 0x02	; 2
     eae:	0e 94 e6 1d 	call	0x3bcc	; 0x3bcc <convert_unit_quaternion>
		transmit_UART0(sen);
		transmit_UART0(sen1);
	}*/
	
	
    nominal(v_m_N);
     eb2:	ce 01       	movw	r24, r28
     eb4:	49 96       	adiw	r24, 0x19	; 25
     eb6:	93 dd       	rcall	.-1242   	; 0x9de <nominal>
	//uint8_t sen =Mode;
	//transmit_UART0(sen);
	//PORTA^=0x00;
	}//if((star_flag >= 10)||(Time > gps_max))   // 90
	if(star_flag >= 90)   // 90
     eb8:	80 91 12 02 	lds	r24, 0x0212
     ebc:	8a 35       	cpi	r24, 0x5A	; 90
     ebe:	0c f4       	brge	.+2      	; 0xec2 <control+0x1e6>
     ec0:	e3 c0       	rjmp	.+454    	; 0x1088 <control+0x3ac>
		{
			star_flag = 91;                 // 91
     ec2:	8b e5       	ldi	r24, 0x5B	; 91
     ec4:	80 93 12 02 	sts	0x0212, r24
			if (light ==1)
     ec8:	10 91 20 02 	lds	r17, 0x0220
     ecc:	11 30       	cpi	r17, 0x01	; 1
     ece:	09 f4       	brne	.+2      	; 0xed2 <control+0x1f6>
     ed0:	a7 c0       	rjmp	.+334    	; 0x1020 <control+0x344>
					gps_power =2;
				}
			}
			else
			{
				start_time =0;
     ed2:	10 92 11 02 	sts	0x0211, r1
     ed6:	10 92 10 02 	sts	0x0210, r1
				time_e = time_e +2;
     eda:	60 91 fa 01 	lds	r22, 0x01FA
     ede:	70 91 fb 01 	lds	r23, 0x01FB
     ee2:	6e 5f       	subi	r22, 0xFE	; 254
     ee4:	7f 4f       	sbci	r23, 0xFF	; 255
     ee6:	70 93 fb 01 	sts	0x01FB, r23
     eea:	60 93 fa 01 	sts	0x01FA, r22
				if (time_e > (eclipse_time-150))
     eee:	88 27       	eor	r24, r24
     ef0:	77 fd       	sbrc	r23, 7
     ef2:	80 95       	com	r24
     ef4:	98 2f       	mov	r25, r24
     ef6:	0e 94 12 2b 	call	0x5624	; 0x5624 <__floatsisf>
     efa:	6b 01       	movw	r12, r22
     efc:	7c 01       	movw	r14, r24
     efe:	20 e0       	ldi	r18, 0x00	; 0
     f00:	30 e0       	ldi	r19, 0x00	; 0
     f02:	46 e1       	ldi	r20, 0x16	; 22
     f04:	53 e4       	ldi	r21, 0x43	; 67
     f06:	60 91 04 01 	lds	r22, 0x0104
     f0a:	70 91 05 01 	lds	r23, 0x0105
     f0e:	80 91 06 01 	lds	r24, 0x0106
     f12:	90 91 07 01 	lds	r25, 0x0107
     f16:	0e 94 97 29 	call	0x532e	; 0x532e <__subsf3>
     f1a:	9b 01       	movw	r18, r22
     f1c:	ac 01       	movw	r20, r24
     f1e:	c7 01       	movw	r24, r14
     f20:	b6 01       	movw	r22, r12
     f22:	0e 94 8a 2c 	call	0x5914	; 0x5914 <__gesf2>
     f26:	18 16       	cp	r1, r24
     f28:	0c f4       	brge	.+2      	; 0xf2c <control+0x250>
     f2a:	93 c0       	rjmp	.+294    	; 0x1052 <control+0x376>
				{
					gps_power =2;
				}
				else
				{
					gps_power =0;
     f2c:	10 92 fd 01 	sts	0x01FD, r1
     f30:	10 92 fc 01 	sts	0x01FC, r1
			}
			
		}

	
   if((mod_w < TOLW_D2N)&&(light*w_ctrl==1))
     f34:	c0 90 c6 04 	lds	r12, 0x04C6
     f38:	d0 90 c7 04 	lds	r13, 0x04C7
     f3c:	e0 90 c8 04 	lds	r14, 0x04C8
     f40:	f0 90 c9 04 	lds	r15, 0x04C9
     f44:	2f e6       	ldi	r18, 0x6F	; 111
     f46:	32 e1       	ldi	r19, 0x12	; 18
     f48:	43 e8       	ldi	r20, 0x83	; 131
     f4a:	5b e3       	ldi	r21, 0x3B	; 59
     f4c:	c7 01       	movw	r24, r14
     f4e:	b6 01       	movw	r22, r12
     f50:	0e 94 75 2a 	call	0x54ea	; 0x54ea <__cmpsf2>
     f54:	87 ff       	sbrs	r24, 7
     f56:	08 c0       	rjmp	.+16     	; 0xf68 <control+0x28c>
     f58:	80 91 1f 02 	lds	r24, 0x021F
     f5c:	18 9f       	mul	r17, r24
     f5e:	c0 01       	movw	r24, r0
     f60:	11 24       	eor	r1, r1
     f62:	01 97       	sbiw	r24, 0x01	; 1
     f64:	09 f4       	brne	.+2      	; 0xf68 <control+0x28c>
     f66:	9c c1       	rjmp	.+824    	; 0x12a0 <__stack+0x1a1>
   {
	   flag_N = flag_N+1;
	   flag_D = 0;
   }
   else if (mod_w > TOLW_N2D)
     f68:	2f e6       	ldi	r18, 0x6F	; 111
     f6a:	32 e1       	ldi	r19, 0x12	; 18
     f6c:	43 e0       	ldi	r20, 0x03	; 3
     f6e:	5c e3       	ldi	r21, 0x3C	; 60
     f70:	c7 01       	movw	r24, r14
     f72:	b6 01       	movw	r22, r12
     f74:	0e 94 8a 2c 	call	0x5914	; 0x5914 <__gesf2>
     f78:	18 16       	cp	r1, r24
     f7a:	6c f4       	brge	.+26     	; 0xf96 <control+0x2ba>
   {
	   flag_D = flag_D +1;
     f7c:	80 91 1b 02 	lds	r24, 0x021B
     f80:	90 91 1c 02 	lds	r25, 0x021C
     f84:	01 96       	adiw	r24, 0x01	; 1
     f86:	90 93 1c 02 	sts	0x021C, r25
     f8a:	80 93 1b 02 	sts	0x021B, r24
	   flag_N = 0;
     f8e:	10 92 1e 02 	sts	0x021E, r1
     f92:	10 92 1d 02 	sts	0x021D, r1
   }
   //sen = flag_N;
    //transmit_UART0(sen);  
	if (Time<2000)
     f96:	20 90 50 05 	lds	r2, 0x0550
     f9a:	30 90 51 05 	lds	r3, 0x0551
     f9e:	40 90 52 05 	lds	r4, 0x0552
     fa2:	50 90 53 05 	lds	r5, 0x0553
     fa6:	60 90 54 05 	lds	r6, 0x0554
     faa:	70 90 55 05 	lds	r7, 0x0555
     fae:	80 90 56 05 	lds	r8, 0x0556
     fb2:	90 90 57 05 	lds	r9, 0x0557
     fb6:	91 01       	movw	r18, r2
     fb8:	a2 01       	movw	r20, r4
     fba:	b3 01       	movw	r22, r6
     fbc:	c4 01       	movw	r24, r8
     fbe:	2f 3c       	cpi	r18, 0xCF	; 207
     fc0:	37 40       	sbci	r19, 0x07	; 7
     fc2:	41 05       	cpc	r20, r1
     fc4:	51 05       	cpc	r21, r1
     fc6:	61 05       	cpc	r22, r1
     fc8:	71 05       	cpc	r23, r1
     fca:	81 05       	cpc	r24, r1
     fcc:	91 05       	cpc	r25, r1
     fce:	09 f0       	breq	.+2      	; 0xfd2 <control+0x2f6>
     fd0:	08 f4       	brcc	.+2      	; 0xfd4 <control+0x2f8>
     fd2:	46 c0       	rjmp	.+140    	; 0x1060 <control+0x384>
		Mode = DETUMBLING;
		t_now = 0;
	}
	else
	{
		if (star_flag >0)
     fd4:	80 91 12 02 	lds	r24, 0x0212
     fd8:	18 16       	cp	r1, r24
     fda:	0c f0       	brlt	.+2      	; 0xfde <control+0x302>
     fdc:	57 c1       	rjmp	.+686    	; 0x128c <__stack+0x18d>
		{
			if (Mode == DETUMBLING)
     fde:	80 91 12 01 	lds	r24, 0x0112
     fe2:	84 30       	cpi	r24, 0x04	; 4
     fe4:	09 f4       	brne	.+2      	; 0xfe8 <control+0x30c>
     fe6:	74 c1       	rjmp	.+744    	; 0x12d0 <__stack+0x1d1>
				{flag_D = 0;}	
			}	
		}
	
	 
	 if (Mode == NOMINAL)
     fe8:	81 30       	cpi	r24, 0x01	; 1
     fea:	09 f4       	brne	.+2      	; 0xfee <control+0x312>
     fec:	1a c1       	rjmp	.+564    	; 0x1222 <__stack+0x123>
    else if(Mode == NOMINAL);
    //apply_torque(v_m_N);
	
	//Mode_prev = Mode;
    
}
     fee:	e0 96       	adiw	r28, 0x30	; 48
     ff0:	0f b6       	in	r0, 0x3f	; 63
     ff2:	f8 94       	cli
     ff4:	de bf       	out	0x3e, r29	; 62
     ff6:	0f be       	out	0x3f, r0	; 63
     ff8:	cd bf       	out	0x3d, r28	; 61
     ffa:	df 91       	pop	r29
     ffc:	cf 91       	pop	r28
     ffe:	1f 91       	pop	r17
    1000:	0f 91       	pop	r16
    1002:	ff 90       	pop	r15
    1004:	ef 90       	pop	r14
    1006:	df 90       	pop	r13
    1008:	cf 90       	pop	r12
    100a:	bf 90       	pop	r11
    100c:	af 90       	pop	r10
    100e:	9f 90       	pop	r9
    1010:	8f 90       	pop	r8
    1012:	7f 90       	pop	r7
    1014:	6f 90       	pop	r6
    1016:	5f 90       	pop	r5
    1018:	4f 90       	pop	r4
    101a:	3f 90       	pop	r3
    101c:	2f 90       	pop	r2
    101e:	08 95       	ret
	if(star_flag >= 90)   // 90
		{
			star_flag = 91;                 // 91
			if (light ==1)
			{
				time_l = time_l +2;
    1020:	80 91 f8 01 	lds	r24, 0x01F8
    1024:	90 91 f9 01 	lds	r25, 0x01F9
    1028:	02 96       	adiw	r24, 0x02	; 2
    102a:	90 93 f9 01 	sts	0x01F9, r25
    102e:	80 93 f8 01 	sts	0x01F8, r24
				time_e =0;
    1032:	10 92 fb 01 	sts	0x01FB, r1
    1036:	10 92 fa 01 	sts	0x01FA, r1
				start_time = time_l % 690;   //690
    103a:	62 eb       	ldi	r22, 0xB2	; 178
    103c:	72 e0       	ldi	r23, 0x02	; 2
    103e:	0e 94 83 2e 	call	0x5d06	; 0x5d06 <__divmodhi4>
    1042:	90 93 11 02 	sts	0x0211, r25
    1046:	80 93 10 02 	sts	0x0210, r24
				if (start_time <600)       //600
    104a:	88 35       	cpi	r24, 0x58	; 88
    104c:	92 40       	sbci	r25, 0x02	; 2
    104e:	0c f4       	brge	.+2      	; 0x1052 <control+0x376>
    1050:	6d cf       	rjmp	.-294    	; 0xf2c <control+0x250>
			{
				start_time =0;
				time_e = time_e +2;
				if (time_e > (eclipse_time-150))
				{
					gps_power =2;
    1052:	82 e0       	ldi	r24, 0x02	; 2
    1054:	90 e0       	ldi	r25, 0x00	; 0
    1056:	90 93 fd 01 	sts	0x01FD, r25
    105a:	80 93 fc 01 	sts	0x01FC, r24
    105e:	6a cf       	rjmp	.-300    	; 0xf34 <control+0x258>
   }
   //sen = flag_N;
    //transmit_UART0(sen);  
	if (Time<2000)
	{
		Mode = DETUMBLING;
    1060:	84 e0       	ldi	r24, 0x04	; 4
    1062:	80 93 12 01 	sts	0x0112, r24
		t_now = 0;
    1066:	10 92 13 02 	sts	0x0213, r1
    106a:	10 92 14 02 	sts	0x0214, r1
    106e:	10 92 15 02 	sts	0x0215, r1
    1072:	10 92 16 02 	sts	0x0216, r1
    1076:	10 92 17 02 	sts	0x0217, r1
    107a:	10 92 18 02 	sts	0x0218, r1
    107e:	10 92 19 02 	sts	0x0219, r1
    1082:	10 92 1a 02 	sts	0x021A, r1
    1086:	b3 cf       	rjmp	.-154    	; 0xfee <control+0x312>
			}
		}

	else
		{
			norm_m_d = vector_norm(v_m_D);
    1088:	ce 01       	movw	r24, r28
    108a:	85 96       	adiw	r24, 0x25	; 37
    108c:	0e 94 5e 1b 	call	0x36bc	; 0x36bc <vector_norm>
    1090:	6b 01       	movw	r12, r22
    1092:	7c 01       	movw	r14, r24
    1094:	60 93 0c 02 	sts	0x020C, r22
    1098:	70 93 0d 02 	sts	0x020D, r23
    109c:	80 93 0e 02 	sts	0x020E, r24
    10a0:	90 93 0f 02 	sts	0x020F, r25
			md_start = norm_m_d * light;
    10a4:	10 91 20 02 	lds	r17, 0x0220
    10a8:	61 2f       	mov	r22, r17
    10aa:	70 e0       	ldi	r23, 0x00	; 0
    10ac:	80 e0       	ldi	r24, 0x00	; 0
    10ae:	90 e0       	ldi	r25, 0x00	; 0
    10b0:	0e 94 12 2b 	call	0x5624	; 0x5624 <__floatsisf>
    10b4:	9b 01       	movw	r18, r22
    10b6:	ac 01       	movw	r20, r24
    10b8:	c7 01       	movw	r24, r14
    10ba:	b6 01       	movw	r22, r12
    10bc:	0e 94 95 2c 	call	0x592a	; 0x592a <__mulsf3>
    10c0:	6b 01       	movw	r12, r22
    10c2:	7c 01       	movw	r14, r24
    10c4:	60 93 08 02 	sts	0x0208, r22
    10c8:	70 93 09 02 	sts	0x0209, r23
    10cc:	80 93 0a 02 	sts	0x020A, r24
    10d0:	90 93 0b 02 	sts	0x020B, r25
			if (md_start != 0)
    10d4:	20 e0       	ldi	r18, 0x00	; 0
    10d6:	30 e0       	ldi	r19, 0x00	; 0
    10d8:	a9 01       	movw	r20, r18
    10da:	0e 94 75 2a 	call	0x54ea	; 0x54ea <__cmpsf2>
    10de:	88 23       	and	r24, r24
    10e0:	09 f4       	brne	.+2      	; 0x10e4 <control+0x408>
    10e2:	63 c0       	rjmp	.+198    	; 0x11aa <__stack+0xab>
			{
				if (num==2)
    10e4:	a0 90 08 01 	lds	r10, 0x0108
    10e8:	b0 90 09 01 	lds	r11, 0x0109
    10ec:	82 e0       	ldi	r24, 0x02	; 2
    10ee:	a8 16       	cp	r10, r24
    10f0:	b1 04       	cpc	r11, r1
    10f2:	09 f4       	brne	.+2      	; 0x10f6 <control+0x41a>
    10f4:	18 c1       	rjmp	.+560    	; 0x1326 <__stack+0x227>
				{
					avg_md_new = (md_start + (num - 1)*md_start)/num;
				}
				else
				{
					avg_md_new = (md_start + (num-1)*avg_md)/num;
    10f6:	b5 01       	movw	r22, r10
    10f8:	61 50       	subi	r22, 0x01	; 1
    10fa:	71 09       	sbc	r23, r1
    10fc:	80 e0       	ldi	r24, 0x00	; 0
    10fe:	90 e0       	ldi	r25, 0x00	; 0
    1100:	0e 94 10 2b 	call	0x5620	; 0x5620 <__floatunsisf>
    1104:	20 91 04 02 	lds	r18, 0x0204
    1108:	30 91 05 02 	lds	r19, 0x0205
    110c:	40 91 06 02 	lds	r20, 0x0206
    1110:	50 91 07 02 	lds	r21, 0x0207
    1114:	0e 94 95 2c 	call	0x592a	; 0x592a <__mulsf3>
    1118:	9b 01       	movw	r18, r22
    111a:	ac 01       	movw	r20, r24
    111c:	c7 01       	movw	r24, r14
    111e:	b6 01       	movw	r22, r12
    1120:	0e 94 98 29 	call	0x5330	; 0x5330 <__addsf3>
    1124:	6b 01       	movw	r12, r22
    1126:	7c 01       	movw	r14, r24
    1128:	b5 01       	movw	r22, r10
    112a:	80 e0       	ldi	r24, 0x00	; 0
    112c:	90 e0       	ldi	r25, 0x00	; 0
    112e:	0e 94 10 2b 	call	0x5620	; 0x5620 <__floatunsisf>
    1132:	9b 01       	movw	r18, r22
    1134:	ac 01       	movw	r20, r24
    1136:	c7 01       	movw	r24, r14
    1138:	b6 01       	movw	r22, r12
    113a:	0e 94 7c 2a 	call	0x54f8	; 0x54f8 <__divsf3>
    113e:	6b 01       	movw	r12, r22
    1140:	ab 01       	movw	r20, r22
    1142:	bc 01       	movw	r22, r24
    1144:	40 93 00 02 	sts	0x0200, r20
    1148:	50 93 01 02 	sts	0x0201, r21
    114c:	60 93 02 02 	sts	0x0202, r22
    1150:	70 93 03 02 	sts	0x0203, r23
    1154:	7c 01       	movw	r14, r24
				}
				num = num +1;
    1156:	ef ef       	ldi	r30, 0xFF	; 255
    1158:	ae 1a       	sub	r10, r30
    115a:	be 0a       	sbc	r11, r30
    115c:	b0 92 09 01 	sts	0x0109, r11
    1160:	a0 92 08 01 	sts	0x0108, r10
			else
			{
				num = 2;
				avg_md_new = 0;
			}
			if ((avg_md_new !=0) && (avg_md_new <0.04) || (avg_md_new ==0) && (avg_md !=0))
    1164:	20 e0       	ldi	r18, 0x00	; 0
    1166:	30 e0       	ldi	r19, 0x00	; 0
    1168:	a9 01       	movw	r20, r18
    116a:	b6 01       	movw	r22, r12
    116c:	0e 94 75 2a 	call	0x54ea	; 0x54ea <__cmpsf2>
    1170:	88 23       	and	r24, r24
    1172:	49 f1       	breq	.+82     	; 0x11c6 <__stack+0xc7>
    1174:	2a e0       	ldi	r18, 0x0A	; 10
    1176:	37 ed       	ldi	r19, 0xD7	; 215
    1178:	43 e2       	ldi	r20, 0x23	; 35
    117a:	5d e3       	ldi	r21, 0x3D	; 61
    117c:	b6 01       	movw	r22, r12
    117e:	c7 01       	movw	r24, r14
    1180:	0e 94 75 2a 	call	0x54ea	; 0x54ea <__cmpsf2>
    1184:	87 ff       	sbrs	r24, 7
    1186:	2e c0       	rjmp	.+92     	; 0x11e4 <__stack+0xe5>
			{
				flag_on = flag_on +2;
    1188:	60 91 fe 01 	lds	r22, 0x01FE
    118c:	70 91 ff 01 	lds	r23, 0x01FF
    1190:	6e 5f       	subi	r22, 0xFE	; 254
    1192:	7f 4f       	sbci	r23, 0xFF	; 255
    1194:	70 93 ff 01 	sts	0x01FF, r23
    1198:	60 93 fe 01 	sts	0x01FE, r22
    119c:	80 e0       	ldi	r24, 0x00	; 0
    119e:	90 e0       	ldi	r25, 0x00	; 0
    11a0:	0e 94 10 2b 	call	0x5620	; 0x5620 <__floatunsisf>
    11a4:	9b 01       	movw	r18, r22
    11a6:	ac 01       	movw	r20, r24
    11a8:	24 c0       	rjmp	.+72     	; 0x11f2 <__stack+0xf3>
				}
				num = num +1;
			}
			else
			{
				num = 2;
    11aa:	82 e0       	ldi	r24, 0x02	; 2
    11ac:	90 e0       	ldi	r25, 0x00	; 0
    11ae:	90 93 09 01 	sts	0x0109, r25
    11b2:	80 93 08 01 	sts	0x0108, r24
				avg_md_new = 0;
    11b6:	10 92 00 02 	sts	0x0200, r1
    11ba:	10 92 01 02 	sts	0x0201, r1
    11be:	10 92 02 02 	sts	0x0202, r1
    11c2:	10 92 03 02 	sts	0x0203, r1
			}
			if ((avg_md_new !=0) && (avg_md_new <0.04) || (avg_md_new ==0) && (avg_md !=0))
    11c6:	20 e0       	ldi	r18, 0x00	; 0
    11c8:	30 e0       	ldi	r19, 0x00	; 0
    11ca:	a9 01       	movw	r20, r18
    11cc:	60 91 04 02 	lds	r22, 0x0204
    11d0:	70 91 05 02 	lds	r23, 0x0205
    11d4:	80 91 06 02 	lds	r24, 0x0206
    11d8:	90 91 07 02 	lds	r25, 0x0207
    11dc:	0e 94 75 2a 	call	0x54ea	; 0x54ea <__cmpsf2>
    11e0:	81 11       	cpse	r24, r1
    11e2:	d2 cf       	rjmp	.-92     	; 0x1188 <__stack+0x89>
			{
				flag_on = flag_on +2;
			}
			else
			{
				flag_on = 0;
    11e4:	10 92 ff 01 	sts	0x01FF, r1
    11e8:	10 92 fe 01 	sts	0x01FE, r1
    11ec:	20 e0       	ldi	r18, 0x00	; 0
    11ee:	30 e0       	ldi	r19, 0x00	; 0
    11f0:	a9 01       	movw	r20, r18
			}
			if (flag_on > gps_start)
    11f2:	60 91 00 01 	lds	r22, 0x0100
    11f6:	70 91 01 01 	lds	r23, 0x0101
    11fa:	80 91 02 01 	lds	r24, 0x0102
    11fe:	90 91 03 01 	lds	r25, 0x0103
    1202:	0e 94 75 2a 	call	0x54ea	; 0x54ea <__cmpsf2>
    1206:	87 ff       	sbrs	r24, 7
    1208:	44 c0       	rjmp	.+136    	; 0x1292 <__stack+0x193>
			{
				gps_power = 2;
    120a:	82 e0       	ldi	r24, 0x02	; 2
    120c:	90 e0       	ldi	r25, 0x00	; 0
    120e:	90 93 fd 01 	sts	0x01FD, r25
    1212:	80 93 fc 01 	sts	0x01FC, r24
				star_flag = star_flag +2;
    1216:	80 91 12 02 	lds	r24, 0x0212
    121a:	8e 5f       	subi	r24, 0xFE	; 254
    121c:	80 93 12 02 	sts	0x0212, r24
    1220:	89 ce       	rjmp	.-750    	; 0xf34 <control+0x258>
    1222:	e0 91 0a 01 	lds	r30, 0x010A
    1226:	f0 91 0b 01 	lds	r31, 0x010B
		}
	
	 
	 if (Mode == NOMINAL)
	 {
		 if ((flag_D > tol_time) && (Time > (t_now+N2D_TIME)))
    122a:	a0 91 1b 02 	lds	r26, 0x021B
    122e:	b0 91 1c 02 	lds	r27, 0x021C
    1232:	ea 17       	cp	r30, r26
    1234:	fb 07       	cpc	r31, r27
    1236:	2c f5       	brge	.+74     	; 0x1282 <__stack+0x183>
    1238:	20 91 13 02 	lds	r18, 0x0213
    123c:	30 91 14 02 	lds	r19, 0x0214
    1240:	40 91 15 02 	lds	r20, 0x0215
    1244:	50 91 16 02 	lds	r21, 0x0216
    1248:	60 91 17 02 	lds	r22, 0x0217
    124c:	70 91 18 02 	lds	r23, 0x0218
    1250:	80 91 19 02 	lds	r24, 0x0219
    1254:	90 91 1a 02 	lds	r25, 0x021A
    1258:	20 5f       	subi	r18, 0xF0	; 240
    125a:	38 4d       	sbci	r19, 0xD8	; 216
    125c:	4f 4f       	sbci	r20, 0xFF	; 255
    125e:	5f 4f       	sbci	r21, 0xFF	; 255
    1260:	6f 4f       	sbci	r22, 0xFF	; 255
    1262:	7f 4f       	sbci	r23, 0xFF	; 255
    1264:	8f 4f       	sbci	r24, 0xFF	; 255
    1266:	9f 4f       	sbci	r25, 0xFF	; 255
    1268:	59 01       	movw	r10, r18
    126a:	6a 01       	movw	r12, r20
    126c:	7b 01       	movw	r14, r22
    126e:	8c 01       	movw	r16, r24
    1270:	91 01       	movw	r18, r2
    1272:	a2 01       	movw	r20, r4
    1274:	b3 01       	movw	r22, r6
    1276:	c4 01       	movw	r24, r8
    1278:	0e 94 f4 2e 	call	0x5de8	; 0x5de8 <__cmpdi2>
    127c:	11 f0       	breq	.+4      	; 0x1282 <__stack+0x183>
    127e:	08 f0       	brcs	.+2      	; 0x1282 <__stack+0x183>
    1280:	4a c0       	rjmp	.+148    	; 0x1316 <__stack+0x217>
			 Mode = DETUMBLING;
			 flag_D = 0;
		 }
		 else
		 {
			 flag_N = 0;
    1282:	10 92 1e 02 	sts	0x021E, r1
    1286:	10 92 1d 02 	sts	0x021D, r1
    128a:	b1 ce       	rjmp	.-670    	; 0xfee <control+0x312>
    128c:	80 91 12 01 	lds	r24, 0x0112
    1290:	ab ce       	rjmp	.-682    	; 0xfe8 <control+0x30c>
				gps_power = 2;
				star_flag = star_flag +2;
			}
			else
			{
				gps_power=0;
    1292:	10 92 fd 01 	sts	0x01FD, r1
    1296:	10 92 fc 01 	sts	0x01FC, r1
				star_flag = 0;                        
    129a:	10 92 12 02 	sts	0x0212, r1
    129e:	4a ce       	rjmp	.-876    	; 0xf34 <control+0x258>
		}

	
   if((mod_w < TOLW_D2N)&&(light*w_ctrl==1))
   {
	   flag_N = flag_N+1;
    12a0:	80 91 1d 02 	lds	r24, 0x021D
    12a4:	90 91 1e 02 	lds	r25, 0x021E
    12a8:	01 96       	adiw	r24, 0x01	; 1
    12aa:	90 93 1e 02 	sts	0x021E, r25
    12ae:	80 93 1d 02 	sts	0x021D, r24
	   flag_D = 0;
    12b2:	10 92 1c 02 	sts	0x021C, r1
    12b6:	10 92 1b 02 	sts	0x021B, r1
    12ba:	6d ce       	rjmp	.-806    	; 0xf96 <control+0x2ba>
	//if((gps_power) == 2)
	//{
		if (gps_power==2)
		{
   
    read_GPS();
    12bc:	0e 94 0c 1e 	call	0x3c18	; 0x3c18 <read_GPS>
  
  /// Check if in Nominal or Detumbling Mode
  //if(GPS_done >= 0)
  //{
	   
    if(GPS_done == 1)
    12c0:	80 91 13 01 	lds	r24, 0x0113
    12c4:	81 30       	cpi	r24, 0x01	; 1
    12c6:	09 f0       	breq	.+2      	; 0x12ca <__stack+0x1cb>
    12c8:	64 cd       	rjmp	.-1336   	; 0xd92 <control+0xb6>
      copy_gps_reading();  //check if gps is on but pdop data
    12ca:	0e 94 11 1e 	call	0x3c22	; 0x3c22 <copy_gps_reading>
    12ce:	a6 cd       	rjmp	.-1204   	; 0xe1c <control+0x140>
	{
		if (star_flag >0)
		{
			if (Mode == DETUMBLING)
			{
				if (flag_N > tol_time)
    12d0:	a0 91 1d 02 	lds	r26, 0x021D
    12d4:	b0 91 1e 02 	lds	r27, 0x021E
    12d8:	e0 91 0a 01 	lds	r30, 0x010A
    12dc:	f0 91 0b 01 	lds	r31, 0x010B
    12e0:	ea 17       	cp	r30, r26
    12e2:	fb 07       	cpc	r31, r27
    12e4:	dc f4       	brge	.+54     	; 0x131c <__stack+0x21d>
				{
					Mode = NOMINAL;
    12e6:	81 e0       	ldi	r24, 0x01	; 1
    12e8:	80 93 12 01 	sts	0x0112, r24
					t_now = Time;
    12ec:	20 92 13 02 	sts	0x0213, r2
    12f0:	30 92 14 02 	sts	0x0214, r3
    12f4:	40 92 15 02 	sts	0x0215, r4
    12f8:	50 92 16 02 	sts	0x0216, r5
    12fc:	60 92 17 02 	sts	0x0217, r6
    1300:	70 92 18 02 	sts	0x0218, r7
    1304:	80 92 19 02 	sts	0x0219, r8
    1308:	90 92 1a 02 	sts	0x021A, r9
					flag_N = 0;
    130c:	10 92 1e 02 	sts	0x021E, r1
    1310:	10 92 1d 02 	sts	0x021D, r1
    1314:	8a cf       	rjmp	.-236    	; 0x122a <__stack+0x12b>
	 
	 if (Mode == NOMINAL)
	 {
		 if ((flag_D > tol_time) && (Time > (t_now+N2D_TIME)))
		 {
			 Mode = DETUMBLING;
    1316:	84 e0       	ldi	r24, 0x04	; 4
    1318:	80 93 12 01 	sts	0x0112, r24
			 flag_D = 0;
    131c:	10 92 1c 02 	sts	0x021C, r1
    1320:	10 92 1b 02 	sts	0x021B, r1
    1324:	64 ce       	rjmp	.-824    	; 0xfee <control+0x312>
			md_start = norm_m_d * light;
			if (md_start != 0)
			{
				if (num==2)
				{
					avg_md_new = (md_start + (num - 1)*md_start)/num;
    1326:	a7 01       	movw	r20, r14
    1328:	96 01       	movw	r18, r12
    132a:	c7 01       	movw	r24, r14
    132c:	b6 01       	movw	r22, r12
    132e:	0e 94 98 29 	call	0x5330	; 0x5330 <__addsf3>
    1332:	20 e0       	ldi	r18, 0x00	; 0
    1334:	30 e0       	ldi	r19, 0x00	; 0
    1336:	40 e0       	ldi	r20, 0x00	; 0
    1338:	5f e3       	ldi	r21, 0x3F	; 63
    133a:	0e 94 95 2c 	call	0x592a	; 0x592a <__mulsf3>
    133e:	ff ce       	rjmp	.-514    	; 0x113e <__stack+0x3f>

00001340 <get_seconds_since_equinox>:
    1340:	2f 92       	push	r2
    1342:	3f 92       	push	r3
    1344:	4f 92       	push	r4
    1346:	5f 92       	push	r5
    1348:	6f 92       	push	r6
    134a:	7f 92       	push	r7
    134c:	8f 92       	push	r8
    134e:	9f 92       	push	r9
    1350:	af 92       	push	r10
    1352:	bf 92       	push	r11
    1354:	cf 92       	push	r12
    1356:	df 92       	push	r13
    1358:	ef 92       	push	r14
    135a:	ff 92       	push	r15
    135c:	0f 93       	push	r16
    135e:	1f 93       	push	r17
    1360:	cf 93       	push	r28
    1362:	df 93       	push	r29
    1364:	cd b7       	in	r28, 0x3d	; 61
    1366:	de b7       	in	r29, 0x3e	; 62
    1368:	29 97       	sbiw	r28, 0x09	; 9
    136a:	0f b6       	in	r0, 0x3f	; 63
    136c:	f8 94       	cli
    136e:	de bf       	out	0x3e, r29	; 62
    1370:	0f be       	out	0x3f, r0	; 63
    1372:	cd bf       	out	0x3d, r28	; 61
    1374:	e0 91 07 05 	lds	r30, 0x0507
    1378:	a0 91 06 05 	lds	r26, 0x0506
    137c:	ad 83       	std	Y+5, r26	; 0x05
    137e:	b0 91 05 05 	lds	r27, 0x0505
    1382:	bf 83       	std	Y+7, r27	; 0x07
    1384:	20 90 0a 05 	lds	r2, 0x050A
    1388:	30 90 0b 05 	lds	r3, 0x050B
    138c:	91 01       	movw	r18, r2
    138e:	40 e0       	ldi	r20, 0x00	; 0
    1390:	50 e0       	ldi	r21, 0x00	; 0
    1392:	60 e0       	ldi	r22, 0x00	; 0
    1394:	70 e0       	ldi	r23, 0x00	; 0
    1396:	80 e0       	ldi	r24, 0x00	; 0
    1398:	90 e0       	ldi	r25, 0x00	; 0
    139a:	03 e0       	ldi	r16, 0x03	; 3
    139c:	0e 94 bd 2e 	call	0x5d7a	; 0x5d7a <__ashldi3>
    13a0:	f2 2f       	mov	r31, r18
    13a2:	3a 83       	std	Y+2, r19	; 0x02
    13a4:	4b 83       	std	Y+3, r20	; 0x03
    13a6:	59 87       	std	Y+9, r21	; 0x09
    13a8:	6e 83       	std	Y+6, r22	; 0x06
    13aa:	b7 2f       	mov	r27, r23
    13ac:	a8 2f       	mov	r26, r24
    13ae:	98 87       	std	Y+8, r25	; 0x08
    13b0:	0e 94 bd 2e 	call	0x5d7a	; 0x5d7a <__ashldi3>
    13b4:	59 01       	movw	r10, r18
    13b6:	6a 01       	movw	r12, r20
    13b8:	7b 01       	movw	r14, r22
    13ba:	8c 01       	movw	r16, r24
    13bc:	2f 2f       	mov	r18, r31
    13be:	3a 81       	ldd	r19, Y+2	; 0x02
    13c0:	4b 81       	ldd	r20, Y+3	; 0x03
    13c2:	59 85       	ldd	r21, Y+9	; 0x09
    13c4:	6e 81       	ldd	r22, Y+6	; 0x06
    13c6:	7b 2f       	mov	r23, r27
    13c8:	8a 2f       	mov	r24, r26
    13ca:	98 85       	ldd	r25, Y+8	; 0x08
    13cc:	0e 94 d6 2e 	call	0x5dac	; 0x5dac <__adddi3>
    13d0:	51 01       	movw	r10, r2
    13d2:	c1 2c       	mov	r12, r1
    13d4:	d1 2c       	mov	r13, r1
    13d6:	e1 2c       	mov	r14, r1
    13d8:	f1 2c       	mov	r15, r1
    13da:	00 e0       	ldi	r16, 0x00	; 0
    13dc:	10 e0       	ldi	r17, 0x00	; 0
    13de:	0e 94 d6 2e 	call	0x5dac	; 0x5dac <__adddi3>
    13e2:	59 01       	movw	r10, r18
    13e4:	6a 01       	movw	r12, r20
    13e6:	7b 01       	movw	r14, r22
    13e8:	f8 2f       	mov	r31, r24
    13ea:	19 2f       	mov	r17, r25
    13ec:	04 e0       	ldi	r16, 0x04	; 4
    13ee:	0e 94 bd 2e 	call	0x5d7a	; 0x5d7a <__ashldi3>
    13f2:	0f 2f       	mov	r16, r31
    13f4:	0e 94 eb 2e 	call	0x5dd6	; 0x5dd6 <__subdi3>
    13f8:	59 01       	movw	r10, r18
    13fa:	6a 01       	movw	r12, r20
    13fc:	7b 01       	movw	r14, r22
    13fe:	f8 2f       	mov	r31, r24
    1400:	19 2f       	mov	r17, r25
    1402:	04 e0       	ldi	r16, 0x04	; 4
    1404:	0e 94 bd 2e 	call	0x5d7a	; 0x5d7a <__ashldi3>
    1408:	0f 2f       	mov	r16, r31
    140a:	0e 94 eb 2e 	call	0x5dd6	; 0x5dd6 <__subdi3>
    140e:	59 01       	movw	r10, r18
    1410:	6a 01       	movw	r12, r20
    1412:	7b 01       	movw	r14, r22
    1414:	f8 2f       	mov	r31, r24
    1416:	19 2f       	mov	r17, r25
    1418:	04 e0       	ldi	r16, 0x04	; 4
    141a:	0e 94 bd 2e 	call	0x5d7a	; 0x5d7a <__ashldi3>
    141e:	0f 2f       	mov	r16, r31
    1420:	0e 94 eb 2e 	call	0x5dd6	; 0x5dd6 <__subdi3>
    1424:	07 e0       	ldi	r16, 0x07	; 7
    1426:	0e 94 bd 2e 	call	0x5d7a	; 0x5d7a <__ashldi3>
    142a:	59 01       	movw	r10, r18
    142c:	6a 01       	movw	r12, r20
    142e:	7b 01       	movw	r14, r22
    1430:	8c 01       	movw	r16, r24
    1432:	f0 91 08 05 	lds	r31, 0x0508
    1436:	f8 87       	std	Y+8, r31	; 0x08
    1438:	a0 91 09 05 	lds	r26, 0x0509
    143c:	a2 50       	subi	r26, 0x02	; 2
    143e:	ab 30       	cpi	r26, 0x0B	; 11
    1440:	08 f0       	brcs	.+2      	; 0x1444 <get_seconds_since_equinox+0x104>
    1442:	1b c1       	rjmp	.+566    	; 0x167a <get_seconds_since_equinox+0x33a>
    1444:	b0 e0       	ldi	r27, 0x00	; 0
    1446:	aa 0f       	add	r26, r26
    1448:	bb 1f       	adc	r27, r27
    144a:	aa 0f       	add	r26, r26
    144c:	bb 1f       	adc	r27, r27
    144e:	aa 0f       	add	r26, r26
    1450:	bb 1f       	adc	r27, r27
    1452:	af 57       	subi	r26, 0x7F	; 127
    1454:	be 4f       	sbci	r27, 0xFE	; 254
    1456:	5c 90       	ld	r5, X
    1458:	11 96       	adiw	r26, 0x01	; 1
    145a:	4c 90       	ld	r4, X
    145c:	11 97       	sbiw	r26, 0x01	; 1
    145e:	12 96       	adiw	r26, 0x02	; 2
    1460:	3c 90       	ld	r3, X
    1462:	12 97       	sbiw	r26, 0x02	; 2
    1464:	13 96       	adiw	r26, 0x03	; 3
    1466:	2c 90       	ld	r2, X
    1468:	13 97       	sbiw	r26, 0x03	; 3
    146a:	14 96       	adiw	r26, 0x04	; 4
    146c:	2c 91       	ld	r18, X
    146e:	14 97       	sbiw	r26, 0x04	; 4
    1470:	29 83       	std	Y+1, r18	; 0x01
    1472:	15 96       	adiw	r26, 0x05	; 5
    1474:	8c 91       	ld	r24, X
    1476:	15 97       	sbiw	r26, 0x05	; 5
    1478:	8a 83       	std	Y+2, r24	; 0x02
    147a:	16 96       	adiw	r26, 0x06	; 6
    147c:	fc 91       	ld	r31, X
    147e:	16 97       	sbiw	r26, 0x06	; 6
    1480:	fb 83       	std	Y+3, r31	; 0x03
    1482:	17 96       	adiw	r26, 0x07	; 7
    1484:	2c 91       	ld	r18, X
    1486:	2e 83       	std	Y+6, r18	; 0x06
    1488:	2e 2f       	mov	r18, r30
    148a:	30 e0       	ldi	r19, 0x00	; 0
    148c:	40 e0       	ldi	r20, 0x00	; 0
    148e:	50 e0       	ldi	r21, 0x00	; 0
    1490:	60 e0       	ldi	r22, 0x00	; 0
    1492:	70 e0       	ldi	r23, 0x00	; 0
    1494:	80 e0       	ldi	r24, 0x00	; 0
    1496:	90 e0       	ldi	r25, 0x00	; 0
    1498:	20 58       	subi	r18, 0x80	; 128
    149a:	3c 45       	sbci	r19, 0x5C	; 92
    149c:	44 49       	sbci	r20, 0x94	; 148
    149e:	5b 4c       	sbci	r21, 0xCB	; 203
    14a0:	6e 40       	sbci	r22, 0x0E	; 14
    14a2:	71 09       	sbc	r23, r1
    14a4:	81 09       	sbc	r24, r1
    14a6:	91 09       	sbc	r25, r1
    14a8:	0e 94 d6 2e 	call	0x5dac	; 0x5dac <__adddi3>
    14ac:	39 01       	movw	r6, r18
    14ae:	4a 01       	movw	r8, r20
    14b0:	6c 83       	std	Y+4, r22	; 0x04
    14b2:	b7 2f       	mov	r27, r23
    14b4:	a8 2f       	mov	r26, r24
    14b6:	f9 2f       	mov	r31, r25
    14b8:	2f 81       	ldd	r18, Y+7	; 0x07
    14ba:	30 e0       	ldi	r19, 0x00	; 0
    14bc:	40 e0       	ldi	r20, 0x00	; 0
    14be:	50 e0       	ldi	r21, 0x00	; 0
    14c0:	60 e0       	ldi	r22, 0x00	; 0
    14c2:	70 e0       	ldi	r23, 0x00	; 0
    14c4:	80 e0       	ldi	r24, 0x00	; 0
    14c6:	90 e0       	ldi	r25, 0x00	; 0
    14c8:	04 e0       	ldi	r16, 0x04	; 4
    14ca:	0e 94 bd 2e 	call	0x5d7a	; 0x5d7a <__ashldi3>
    14ce:	af 80       	ldd	r10, Y+7	; 0x07
    14d0:	b1 2c       	mov	r11, r1
    14d2:	c1 2c       	mov	r12, r1
    14d4:	d1 2c       	mov	r13, r1
    14d6:	e1 2c       	mov	r14, r1
    14d8:	f1 2c       	mov	r15, r1
    14da:	00 e0       	ldi	r16, 0x00	; 0
    14dc:	10 e0       	ldi	r17, 0x00	; 0
    14de:	0e 94 eb 2e 	call	0x5dd6	; 0x5dd6 <__subdi3>
    14e2:	59 01       	movw	r10, r18
    14e4:	6a 01       	movw	r12, r20
    14e6:	7b 01       	movw	r14, r22
    14e8:	e8 2f       	mov	r30, r24
    14ea:	19 2f       	mov	r17, r25
    14ec:	04 e0       	ldi	r16, 0x04	; 4
    14ee:	0e 94 bd 2e 	call	0x5d7a	; 0x5d7a <__ashldi3>
    14f2:	0e 2f       	mov	r16, r30
    14f4:	0e 94 eb 2e 	call	0x5dd6	; 0x5dd6 <__subdi3>
    14f8:	04 e0       	ldi	r16, 0x04	; 4
    14fa:	0e 94 bd 2e 	call	0x5d7a	; 0x5d7a <__ashldi3>
    14fe:	59 01       	movw	r10, r18
    1500:	6a 01       	movw	r12, r20
    1502:	7b 01       	movw	r14, r22
    1504:	8c 01       	movw	r16, r24
    1506:	93 01       	movw	r18, r6
    1508:	a4 01       	movw	r20, r8
    150a:	6c 81       	ldd	r22, Y+4	; 0x04
    150c:	7b 2f       	mov	r23, r27
    150e:	8a 2f       	mov	r24, r26
    1510:	9f 2f       	mov	r25, r31
    1512:	0e 94 d6 2e 	call	0x5dac	; 0x5dac <__adddi3>
    1516:	b2 2e       	mov	r11, r18
    1518:	c3 2e       	mov	r12, r19
    151a:	d4 2e       	mov	r13, r20
    151c:	65 2e       	mov	r6, r21
    151e:	76 2e       	mov	r7, r22
    1520:	87 2e       	mov	r8, r23
    1522:	98 2e       	mov	r9, r24
    1524:	9c 83       	std	Y+4, r25	; 0x04
    1526:	ad 81       	ldd	r26, Y+5	; 0x05
    1528:	6a 2f       	mov	r22, r26
    152a:	70 e0       	ldi	r23, 0x00	; 0
    152c:	80 e0       	ldi	r24, 0x00	; 0
    152e:	90 e0       	ldi	r25, 0x00	; 0
    1530:	2c e3       	ldi	r18, 0x3C	; 60
    1532:	30 e0       	ldi	r19, 0x00	; 0
    1534:	40 e0       	ldi	r20, 0x00	; 0
    1536:	50 e0       	ldi	r21, 0x00	; 0
    1538:	0e 94 96 2e 	call	0x5d2c	; 0x5d2c <__umulsidi3>
    153c:	a2 2e       	mov	r10, r18
    153e:	a3 2f       	mov	r26, r19
    1540:	f4 2f       	mov	r31, r20
    1542:	e5 2f       	mov	r30, r21
    1544:	7b 01       	movw	r14, r22
    1546:	8c 01       	movw	r16, r24
    1548:	2b 2d       	mov	r18, r11
    154a:	3c 2d       	mov	r19, r12
    154c:	4d 2d       	mov	r20, r13
    154e:	56 2d       	mov	r21, r6
    1550:	67 2d       	mov	r22, r7
    1552:	78 2d       	mov	r23, r8
    1554:	89 2d       	mov	r24, r9
    1556:	9c 81       	ldd	r25, Y+4	; 0x04
    1558:	ba 2e       	mov	r11, r26
    155a:	cf 2e       	mov	r12, r31
    155c:	de 2e       	mov	r13, r30
    155e:	0e 94 d6 2e 	call	0x5dac	; 0x5dac <__adddi3>
    1562:	39 01       	movw	r6, r18
    1564:	4a 01       	movw	r8, r20
    1566:	b6 2f       	mov	r27, r22
    1568:	7c 83       	std	Y+4, r23	; 0x04
    156a:	f8 2f       	mov	r31, r24
    156c:	e9 2f       	mov	r30, r25
    156e:	28 85       	ldd	r18, Y+8	; 0x08
    1570:	30 e0       	ldi	r19, 0x00	; 0
    1572:	40 e0       	ldi	r20, 0x00	; 0
    1574:	50 e0       	ldi	r21, 0x00	; 0
    1576:	60 e0       	ldi	r22, 0x00	; 0
    1578:	70 e0       	ldi	r23, 0x00	; 0
    157a:	80 e0       	ldi	r24, 0x00	; 0
    157c:	90 e0       	ldi	r25, 0x00	; 0
    157e:	af ef       	ldi	r26, 0xFF	; 255
    1580:	0e 94 df 2e 	call	0x5dbe	; 0x5dbe <__adddi3_s8>
    1584:	a5 2c       	mov	r10, r5
    1586:	b4 2c       	mov	r11, r4
    1588:	c3 2c       	mov	r12, r3
    158a:	d2 2c       	mov	r13, r2
    158c:	e9 80       	ldd	r14, Y+1	; 0x01
    158e:	fa 80       	ldd	r15, Y+2	; 0x02
    1590:	0b 81       	ldd	r16, Y+3	; 0x03
    1592:	1e 81       	ldd	r17, Y+6	; 0x06
    1594:	0e 94 d6 2e 	call	0x5dac	; 0x5dac <__adddi3>
    1598:	59 01       	movw	r10, r18
    159a:	6a 01       	movw	r12, r20
    159c:	7b 01       	movw	r14, r22
    159e:	a8 2f       	mov	r26, r24
    15a0:	19 2f       	mov	r17, r25
    15a2:	02 e0       	ldi	r16, 0x02	; 2
    15a4:	0e 94 bd 2e 	call	0x5d7a	; 0x5d7a <__ashldi3>
    15a8:	0a 2f       	mov	r16, r26
    15aa:	0e 94 eb 2e 	call	0x5dd6	; 0x5dd6 <__subdi3>
    15ae:	59 01       	movw	r10, r18
    15b0:	6a 01       	movw	r12, r20
    15b2:	7b 01       	movw	r14, r22
    15b4:	a8 2f       	mov	r26, r24
    15b6:	19 2f       	mov	r17, r25
    15b8:	04 e0       	ldi	r16, 0x04	; 4
    15ba:	0e 94 bd 2e 	call	0x5d7a	; 0x5d7a <__ashldi3>
    15be:	0a 2f       	mov	r16, r26
    15c0:	0e 94 eb 2e 	call	0x5dd6	; 0x5dd6 <__subdi3>
    15c4:	59 01       	movw	r10, r18
    15c6:	6a 01       	movw	r12, r20
    15c8:	7b 01       	movw	r14, r22
    15ca:	a8 2f       	mov	r26, r24
    15cc:	19 2f       	mov	r17, r25
    15ce:	04 e0       	ldi	r16, 0x04	; 4
    15d0:	0e 94 bd 2e 	call	0x5d7a	; 0x5d7a <__ashldi3>
    15d4:	0a 2f       	mov	r16, r26
    15d6:	0e 94 eb 2e 	call	0x5dd6	; 0x5dd6 <__subdi3>
    15da:	07 e0       	ldi	r16, 0x07	; 7
    15dc:	0e 94 bd 2e 	call	0x5d7a	; 0x5d7a <__ashldi3>
    15e0:	59 01       	movw	r10, r18
    15e2:	6a 01       	movw	r12, r20
    15e4:	7b 01       	movw	r14, r22
    15e6:	8c 01       	movw	r16, r24
    15e8:	93 01       	movw	r18, r6
    15ea:	a4 01       	movw	r20, r8
    15ec:	6b 2f       	mov	r22, r27
    15ee:	7c 81       	ldd	r23, Y+4	; 0x04
    15f0:	8f 2f       	mov	r24, r31
    15f2:	9e 2f       	mov	r25, r30
    15f4:	0e 94 d6 2e 	call	0x5dac	; 0x5dac <__adddi3>
    15f8:	20 93 ca 04 	sts	0x04CA, r18
    15fc:	30 93 cb 04 	sts	0x04CB, r19
    1600:	40 93 cc 04 	sts	0x04CC, r20
    1604:	50 93 cd 04 	sts	0x04CD, r21
    1608:	60 93 ce 04 	sts	0x04CE, r22
    160c:	70 93 cf 04 	sts	0x04CF, r23
    1610:	80 93 d0 04 	sts	0x04D0, r24
    1614:	90 93 d1 04 	sts	0x04D1, r25
    1618:	2c 5e       	subi	r18, 0xEC	; 236
    161a:	34 41       	sbci	r19, 0x14	; 20
    161c:	48 46       	sbci	r20, 0x68	; 104
    161e:	51 09       	sbc	r21, r1
    1620:	61 09       	sbc	r22, r1
    1622:	71 09       	sbc	r23, r1
    1624:	81 09       	sbc	r24, r1
    1626:	91 09       	sbc	r25, r1
    1628:	20 93 d2 04 	sts	0x04D2, r18
    162c:	30 93 d3 04 	sts	0x04D3, r19
    1630:	40 93 d4 04 	sts	0x04D4, r20
    1634:	50 93 d5 04 	sts	0x04D5, r21
    1638:	60 93 d6 04 	sts	0x04D6, r22
    163c:	70 93 d7 04 	sts	0x04D7, r23
    1640:	80 93 d8 04 	sts	0x04D8, r24
    1644:	90 93 d9 04 	sts	0x04D9, r25
    1648:	29 96       	adiw	r28, 0x09	; 9
    164a:	0f b6       	in	r0, 0x3f	; 63
    164c:	f8 94       	cli
    164e:	de bf       	out	0x3e, r29	; 62
    1650:	0f be       	out	0x3f, r0	; 63
    1652:	cd bf       	out	0x3d, r28	; 61
    1654:	df 91       	pop	r29
    1656:	cf 91       	pop	r28
    1658:	1f 91       	pop	r17
    165a:	0f 91       	pop	r16
    165c:	ff 90       	pop	r15
    165e:	ef 90       	pop	r14
    1660:	df 90       	pop	r13
    1662:	cf 90       	pop	r12
    1664:	bf 90       	pop	r11
    1666:	af 90       	pop	r10
    1668:	9f 90       	pop	r9
    166a:	8f 90       	pop	r8
    166c:	7f 90       	pop	r7
    166e:	6f 90       	pop	r6
    1670:	5f 90       	pop	r5
    1672:	4f 90       	pop	r4
    1674:	3f 90       	pop	r3
    1676:	2f 90       	pop	r2
    1678:	08 95       	ret
    167a:	51 2c       	mov	r5, r1
    167c:	41 2c       	mov	r4, r1
    167e:	31 2c       	mov	r3, r1
    1680:	21 2c       	mov	r2, r1
    1682:	19 82       	std	Y+1, r1	; 0x01
    1684:	1a 82       	std	Y+2, r1	; 0x02
    1686:	1b 82       	std	Y+3, r1	; 0x03
    1688:	1e 82       	std	Y+6, r1	; 0x06
    168a:	fe ce       	rjmp	.-516    	; 0x1488 <get_seconds_since_equinox+0x148>

0000168c <ecef2eci>:
    168c:	4f 92       	push	r4
    168e:	5f 92       	push	r5
    1690:	6f 92       	push	r6
    1692:	7f 92       	push	r7
    1694:	af 92       	push	r10
    1696:	bf 92       	push	r11
    1698:	cf 92       	push	r12
    169a:	df 92       	push	r13
    169c:	ef 92       	push	r14
    169e:	ff 92       	push	r15
    16a0:	0f 93       	push	r16
    16a2:	1f 93       	push	r17
    16a4:	cf 93       	push	r28
    16a6:	df 93       	push	r29
    16a8:	cd b7       	in	r28, 0x3d	; 61
    16aa:	de b7       	in	r29, 0x3e	; 62
    16ac:	a4 97       	sbiw	r28, 0x24	; 36
    16ae:	0f b6       	in	r0, 0x3f	; 63
    16b0:	f8 94       	cli
    16b2:	de bf       	out	0x3e, r29	; 62
    16b4:	0f be       	out	0x3f, r0	; 63
    16b6:	cd bf       	out	0x3d, r28	; 61
    16b8:	8c 01       	movw	r16, r24
    16ba:	5b 01       	movw	r10, r22
    16bc:	20 91 d2 04 	lds	r18, 0x04D2
    16c0:	30 91 d3 04 	lds	r19, 0x04D3
    16c4:	40 91 d4 04 	lds	r20, 0x04D4
    16c8:	50 91 d5 04 	lds	r21, 0x04D5
    16cc:	60 91 d6 04 	lds	r22, 0x04D6
    16d0:	70 91 d7 04 	lds	r23, 0x04D7
    16d4:	80 91 d8 04 	lds	r24, 0x04D8
    16d8:	90 91 d9 04 	lds	r25, 0x04D9
    16dc:	0e 94 4d 2b 	call	0x569a	; 0x569a <__floatundisf>
    16e0:	27 eb       	ldi	r18, 0xB7	; 183
    16e2:	39 e5       	ldi	r19, 0x59	; 89
    16e4:	40 e8       	ldi	r20, 0x80	; 128
    16e6:	5f e3       	ldi	r21, 0x3F	; 63
    16e8:	0e 94 95 2c 	call	0x592a	; 0x592a <__mulsf3>
    16ec:	2e eb       	ldi	r18, 0xBE	; 190
    16ee:	37 ef       	ldi	r19, 0xF7	; 247
    16f0:	48 e9       	ldi	r20, 0x98	; 152
    16f2:	58 e3       	ldi	r21, 0x38	; 56
    16f4:	0e 94 95 2c 	call	0x592a	; 0x592a <__mulsf3>
    16f8:	2b 01       	movw	r4, r22
    16fa:	3c 01       	movw	r6, r24
    16fc:	0e 94 79 2a 	call	0x54f2	; 0x54f2 <cos>
    1700:	6b 01       	movw	r12, r22
    1702:	7c 01       	movw	r14, r24
    1704:	69 83       	std	Y+1, r22	; 0x01
    1706:	7a 83       	std	Y+2, r23	; 0x02
    1708:	8b 83       	std	Y+3, r24	; 0x03
    170a:	9c 83       	std	Y+4, r25	; 0x04
    170c:	c3 01       	movw	r24, r6
    170e:	b2 01       	movw	r22, r4
    1710:	0e 94 44 2d 	call	0x5a88	; 0x5a88 <sin>
    1714:	6d 83       	std	Y+5, r22	; 0x05
    1716:	7e 83       	std	Y+6, r23	; 0x06
    1718:	8f 83       	std	Y+7, r24	; 0x07
    171a:	98 87       	std	Y+8, r25	; 0x08
    171c:	19 86       	std	Y+9, r1	; 0x09
    171e:	1a 86       	std	Y+10, r1	; 0x0a
    1720:	1b 86       	std	Y+11, r1	; 0x0b
    1722:	1c 86       	std	Y+12, r1	; 0x0c
    1724:	dc 01       	movw	r26, r24
    1726:	cb 01       	movw	r24, r22
    1728:	b0 58       	subi	r27, 0x80	; 128
    172a:	8d 87       	std	Y+13, r24	; 0x0d
    172c:	9e 87       	std	Y+14, r25	; 0x0e
    172e:	af 87       	std	Y+15, r26	; 0x0f
    1730:	b8 8b       	std	Y+16, r27	; 0x10
    1732:	c9 8a       	std	Y+17, r12	; 0x11
    1734:	da 8a       	std	Y+18, r13	; 0x12
    1736:	eb 8a       	std	Y+19, r14	; 0x13
    1738:	fc 8a       	std	Y+20, r15	; 0x14
    173a:	1d 8a       	std	Y+21, r1	; 0x15
    173c:	1e 8a       	std	Y+22, r1	; 0x16
    173e:	1f 8a       	std	Y+23, r1	; 0x17
    1740:	18 8e       	std	Y+24, r1	; 0x18
    1742:	19 8e       	std	Y+25, r1	; 0x19
    1744:	1a 8e       	std	Y+26, r1	; 0x1a
    1746:	1b 8e       	std	Y+27, r1	; 0x1b
    1748:	1c 8e       	std	Y+28, r1	; 0x1c
    174a:	1d 8e       	std	Y+29, r1	; 0x1d
    174c:	1e 8e       	std	Y+30, r1	; 0x1e
    174e:	1f 8e       	std	Y+31, r1	; 0x1f
    1750:	18 a2       	std	Y+32, r1	; 0x20
    1752:	80 e0       	ldi	r24, 0x00	; 0
    1754:	90 e0       	ldi	r25, 0x00	; 0
    1756:	a0 e8       	ldi	r26, 0x80	; 128
    1758:	bf e3       	ldi	r27, 0x3F	; 63
    175a:	89 a3       	std	Y+33, r24	; 0x21
    175c:	9a a3       	std	Y+34, r25	; 0x22
    175e:	ab a3       	std	Y+35, r26	; 0x23
    1760:	bc a3       	std	Y+36, r27	; 0x24
    1762:	a5 01       	movw	r20, r10
    1764:	be 01       	movw	r22, r28
    1766:	6f 5f       	subi	r22, 0xFF	; 255
    1768:	7f 4f       	sbci	r23, 0xFF	; 255
    176a:	c8 01       	movw	r24, r16
    176c:	0e 94 7b 1c 	call	0x38f6	; 0x38f6 <vector_into_matrix>
    1770:	a4 96       	adiw	r28, 0x24	; 36
    1772:	0f b6       	in	r0, 0x3f	; 63
    1774:	f8 94       	cli
    1776:	de bf       	out	0x3e, r29	; 62
    1778:	0f be       	out	0x3f, r0	; 63
    177a:	cd bf       	out	0x3d, r28	; 61
    177c:	df 91       	pop	r29
    177e:	cf 91       	pop	r28
    1780:	1f 91       	pop	r17
    1782:	0f 91       	pop	r16
    1784:	ff 90       	pop	r15
    1786:	ef 90       	pop	r14
    1788:	df 90       	pop	r13
    178a:	cf 90       	pop	r12
    178c:	bf 90       	pop	r11
    178e:	af 90       	pop	r10
    1790:	7f 90       	pop	r7
    1792:	6f 90       	pop	r6
    1794:	5f 90       	pop	r5
    1796:	4f 90       	pop	r4
    1798:	08 95       	ret

0000179a <eci2ecef>:
    179a:	4f 92       	push	r4
    179c:	5f 92       	push	r5
    179e:	6f 92       	push	r6
    17a0:	7f 92       	push	r7
    17a2:	af 92       	push	r10
    17a4:	bf 92       	push	r11
    17a6:	cf 92       	push	r12
    17a8:	df 92       	push	r13
    17aa:	ef 92       	push	r14
    17ac:	ff 92       	push	r15
    17ae:	0f 93       	push	r16
    17b0:	1f 93       	push	r17
    17b2:	cf 93       	push	r28
    17b4:	df 93       	push	r29
    17b6:	cd b7       	in	r28, 0x3d	; 61
    17b8:	de b7       	in	r29, 0x3e	; 62
    17ba:	a4 97       	sbiw	r28, 0x24	; 36
    17bc:	0f b6       	in	r0, 0x3f	; 63
    17be:	f8 94       	cli
    17c0:	de bf       	out	0x3e, r29	; 62
    17c2:	0f be       	out	0x3f, r0	; 63
    17c4:	cd bf       	out	0x3d, r28	; 61
    17c6:	8c 01       	movw	r16, r24
    17c8:	5b 01       	movw	r10, r22
    17ca:	20 91 d2 04 	lds	r18, 0x04D2
    17ce:	30 91 d3 04 	lds	r19, 0x04D3
    17d2:	40 91 d4 04 	lds	r20, 0x04D4
    17d6:	50 91 d5 04 	lds	r21, 0x04D5
    17da:	60 91 d6 04 	lds	r22, 0x04D6
    17de:	70 91 d7 04 	lds	r23, 0x04D7
    17e2:	80 91 d8 04 	lds	r24, 0x04D8
    17e6:	90 91 d9 04 	lds	r25, 0x04D9
    17ea:	0e 94 4d 2b 	call	0x569a	; 0x569a <__floatundisf>
    17ee:	27 eb       	ldi	r18, 0xB7	; 183
    17f0:	39 e5       	ldi	r19, 0x59	; 89
    17f2:	40 e8       	ldi	r20, 0x80	; 128
    17f4:	5f e3       	ldi	r21, 0x3F	; 63
    17f6:	0e 94 95 2c 	call	0x592a	; 0x592a <__mulsf3>
    17fa:	2e eb       	ldi	r18, 0xBE	; 190
    17fc:	37 ef       	ldi	r19, 0xF7	; 247
    17fe:	48 e9       	ldi	r20, 0x98	; 152
    1800:	58 e3       	ldi	r21, 0x38	; 56
    1802:	0e 94 95 2c 	call	0x592a	; 0x592a <__mulsf3>
    1806:	2b 01       	movw	r4, r22
    1808:	3c 01       	movw	r6, r24
    180a:	0e 94 79 2a 	call	0x54f2	; 0x54f2 <cos>
    180e:	6b 01       	movw	r12, r22
    1810:	7c 01       	movw	r14, r24
    1812:	69 83       	std	Y+1, r22	; 0x01
    1814:	7a 83       	std	Y+2, r23	; 0x02
    1816:	8b 83       	std	Y+3, r24	; 0x03
    1818:	9c 83       	std	Y+4, r25	; 0x04
    181a:	c3 01       	movw	r24, r6
    181c:	b2 01       	movw	r22, r4
    181e:	0e 94 44 2d 	call	0x5a88	; 0x5a88 <sin>
    1822:	2b 01       	movw	r4, r22
    1824:	3c 01       	movw	r6, r24
    1826:	77 fa       	bst	r7, 7
    1828:	70 94       	com	r7
    182a:	77 f8       	bld	r7, 7
    182c:	70 94       	com	r7
    182e:	4d 82       	std	Y+5, r4	; 0x05
    1830:	5e 82       	std	Y+6, r5	; 0x06
    1832:	6f 82       	std	Y+7, r6	; 0x07
    1834:	78 86       	std	Y+8, r7	; 0x08
    1836:	19 86       	std	Y+9, r1	; 0x09
    1838:	1a 86       	std	Y+10, r1	; 0x0a
    183a:	1b 86       	std	Y+11, r1	; 0x0b
    183c:	1c 86       	std	Y+12, r1	; 0x0c
    183e:	6d 87       	std	Y+13, r22	; 0x0d
    1840:	7e 87       	std	Y+14, r23	; 0x0e
    1842:	8f 87       	std	Y+15, r24	; 0x0f
    1844:	98 8b       	std	Y+16, r25	; 0x10
    1846:	c9 8a       	std	Y+17, r12	; 0x11
    1848:	da 8a       	std	Y+18, r13	; 0x12
    184a:	eb 8a       	std	Y+19, r14	; 0x13
    184c:	fc 8a       	std	Y+20, r15	; 0x14
    184e:	1d 8a       	std	Y+21, r1	; 0x15
    1850:	1e 8a       	std	Y+22, r1	; 0x16
    1852:	1f 8a       	std	Y+23, r1	; 0x17
    1854:	18 8e       	std	Y+24, r1	; 0x18
    1856:	19 8e       	std	Y+25, r1	; 0x19
    1858:	1a 8e       	std	Y+26, r1	; 0x1a
    185a:	1b 8e       	std	Y+27, r1	; 0x1b
    185c:	1c 8e       	std	Y+28, r1	; 0x1c
    185e:	1d 8e       	std	Y+29, r1	; 0x1d
    1860:	1e 8e       	std	Y+30, r1	; 0x1e
    1862:	1f 8e       	std	Y+31, r1	; 0x1f
    1864:	18 a2       	std	Y+32, r1	; 0x20
    1866:	80 e0       	ldi	r24, 0x00	; 0
    1868:	90 e0       	ldi	r25, 0x00	; 0
    186a:	a0 e8       	ldi	r26, 0x80	; 128
    186c:	bf e3       	ldi	r27, 0x3F	; 63
    186e:	89 a3       	std	Y+33, r24	; 0x21
    1870:	9a a3       	std	Y+34, r25	; 0x22
    1872:	ab a3       	std	Y+35, r26	; 0x23
    1874:	bc a3       	std	Y+36, r27	; 0x24
    1876:	a5 01       	movw	r20, r10
    1878:	be 01       	movw	r22, r28
    187a:	6f 5f       	subi	r22, 0xFF	; 255
    187c:	7f 4f       	sbci	r23, 0xFF	; 255
    187e:	c8 01       	movw	r24, r16
    1880:	0e 94 7b 1c 	call	0x38f6	; 0x38f6 <vector_into_matrix>
    1884:	a4 96       	adiw	r28, 0x24	; 36
    1886:	0f b6       	in	r0, 0x3f	; 63
    1888:	f8 94       	cli
    188a:	de bf       	out	0x3e, r29	; 62
    188c:	0f be       	out	0x3f, r0	; 63
    188e:	cd bf       	out	0x3d, r28	; 61
    1890:	df 91       	pop	r29
    1892:	cf 91       	pop	r28
    1894:	1f 91       	pop	r17
    1896:	0f 91       	pop	r16
    1898:	ff 90       	pop	r15
    189a:	ef 90       	pop	r14
    189c:	df 90       	pop	r13
    189e:	cf 90       	pop	r12
    18a0:	bf 90       	pop	r11
    18a2:	af 90       	pop	r10
    18a4:	7f 90       	pop	r7
    18a6:	6f 90       	pop	r6
    18a8:	5f 90       	pop	r5
    18aa:	4f 90       	pop	r4
    18ac:	08 95       	ret

000018ae <eci2orbit>:
    18ae:	cf 92       	push	r12
    18b0:	df 92       	push	r13
    18b2:	ef 92       	push	r14
    18b4:	ff 92       	push	r15
    18b6:	0f 93       	push	r16
    18b8:	1f 93       	push	r17
    18ba:	cf 93       	push	r28
    18bc:	df 93       	push	r29
    18be:	cd b7       	in	r28, 0x3d	; 61
    18c0:	de b7       	in	r29, 0x3e	; 62
    18c2:	c8 54       	subi	r28, 0x48	; 72
    18c4:	d1 09       	sbc	r29, r1
    18c6:	0f b6       	in	r0, 0x3f	; 63
    18c8:	f8 94       	cli
    18ca:	de bf       	out	0x3e, r29	; 62
    18cc:	0f be       	out	0x3f, r0	; 63
    18ce:	cd bf       	out	0x3d, r28	; 61
    18d0:	8c 01       	movw	r16, r24
    18d2:	cb 01       	movw	r24, r22
    18d4:	7a 01       	movw	r14, r20
    18d6:	69 01       	movw	r12, r18
    18d8:	ae 01       	movw	r20, r28
    18da:	4f 5c       	subi	r20, 0xCF	; 207
    18dc:	5f 4f       	sbci	r21, 0xFF	; 255
    18de:	b8 01       	movw	r22, r16
    18e0:	0e 94 da 1c 	call	0x39b4	; 0x39b4 <vector_cross_product>
    18e4:	ce 01       	movw	r24, r28
    18e6:	c1 96       	adiw	r24, 0x31	; 49
    18e8:	0e 94 b1 1d 	call	0x3b62	; 0x3b62 <convert_unit_vector>
    18ec:	f8 01       	movw	r30, r16
    18ee:	80 81       	ld	r24, Z
    18f0:	91 81       	ldd	r25, Z+1	; 0x01
    18f2:	a2 81       	ldd	r26, Z+2	; 0x02
    18f4:	b3 81       	ldd	r27, Z+3	; 0x03
    18f6:	b0 58       	subi	r27, 0x80	; 128
    18f8:	8d a3       	std	Y+37, r24	; 0x25
    18fa:	9e a3       	std	Y+38, r25	; 0x26
    18fc:	af a3       	std	Y+39, r26	; 0x27
    18fe:	b8 a7       	std	Y+40, r27	; 0x28
    1900:	44 81       	ldd	r20, Z+4	; 0x04
    1902:	55 81       	ldd	r21, Z+5	; 0x05
    1904:	66 81       	ldd	r22, Z+6	; 0x06
    1906:	77 81       	ldd	r23, Z+7	; 0x07
    1908:	70 58       	subi	r23, 0x80	; 128
    190a:	49 a7       	std	Y+41, r20	; 0x29
    190c:	5a a7       	std	Y+42, r21	; 0x2a
    190e:	6b a7       	std	Y+43, r22	; 0x2b
    1910:	7c a7       	std	Y+44, r23	; 0x2c
    1912:	80 85       	ldd	r24, Z+8	; 0x08
    1914:	91 85       	ldd	r25, Z+9	; 0x09
    1916:	a2 85       	ldd	r26, Z+10	; 0x0a
    1918:	b3 85       	ldd	r27, Z+11	; 0x0b
    191a:	b0 58       	subi	r27, 0x80	; 128
    191c:	8d a7       	std	Y+45, r24	; 0x2d
    191e:	9e a7       	std	Y+46, r25	; 0x2e
    1920:	af a7       	std	Y+47, r26	; 0x2f
    1922:	b8 ab       	std	Y+48, r27	; 0x30
    1924:	ce 01       	movw	r24, r28
    1926:	85 96       	adiw	r24, 0x25	; 37
    1928:	0e 94 b1 1d 	call	0x3b62	; 0x3b62 <convert_unit_vector>
    192c:	ae 01       	movw	r20, r28
    192e:	43 5c       	subi	r20, 0xC3	; 195
    1930:	5f 4f       	sbci	r21, 0xFF	; 255
    1932:	be 01       	movw	r22, r28
    1934:	6b 5d       	subi	r22, 0xDB	; 219
    1936:	7f 4f       	sbci	r23, 0xFF	; 255
    1938:	ce 01       	movw	r24, r28
    193a:	c1 96       	adiw	r24, 0x31	; 49
    193c:	0e 94 da 1c 	call	0x39b4	; 0x39b4 <vector_cross_product>
    1940:	ce 01       	movw	r24, r28
    1942:	cd 96       	adiw	r24, 0x3d	; 61
    1944:	0e 94 b1 1d 	call	0x3b62	; 0x3b62 <convert_unit_vector>
    1948:	21 96       	adiw	r28, 0x01	; 1
    194a:	8c ad       	ldd	r24, Y+60	; 0x3c
    194c:	9d ad       	ldd	r25, Y+61	; 0x3d
    194e:	ae ad       	ldd	r26, Y+62	; 0x3e
    1950:	bf ad       	ldd	r27, Y+63	; 0x3f
    1952:	21 97       	sbiw	r28, 0x01	; 1
    1954:	89 83       	std	Y+1, r24	; 0x01
    1956:	9a 83       	std	Y+2, r25	; 0x02
    1958:	ab 83       	std	Y+3, r26	; 0x03
    195a:	bc 83       	std	Y+4, r27	; 0x04
    195c:	89 a9       	ldd	r24, Y+49	; 0x31
    195e:	9a a9       	ldd	r25, Y+50	; 0x32
    1960:	ab a9       	ldd	r26, Y+51	; 0x33
    1962:	bc a9       	ldd	r27, Y+52	; 0x34
    1964:	8d 83       	std	Y+5, r24	; 0x05
    1966:	9e 83       	std	Y+6, r25	; 0x06
    1968:	af 83       	std	Y+7, r26	; 0x07
    196a:	b8 87       	std	Y+8, r27	; 0x08
    196c:	8d a1       	ldd	r24, Y+37	; 0x25
    196e:	9e a1       	ldd	r25, Y+38	; 0x26
    1970:	af a1       	ldd	r26, Y+39	; 0x27
    1972:	b8 a5       	ldd	r27, Y+40	; 0x28
    1974:	89 87       	std	Y+9, r24	; 0x09
    1976:	9a 87       	std	Y+10, r25	; 0x0a
    1978:	ab 87       	std	Y+11, r26	; 0x0b
    197a:	bc 87       	std	Y+12, r27	; 0x0c
    197c:	25 96       	adiw	r28, 0x05	; 5
    197e:	8c ad       	ldd	r24, Y+60	; 0x3c
    1980:	9d ad       	ldd	r25, Y+61	; 0x3d
    1982:	ae ad       	ldd	r26, Y+62	; 0x3e
    1984:	bf ad       	ldd	r27, Y+63	; 0x3f
    1986:	25 97       	sbiw	r28, 0x05	; 5
    1988:	8d 87       	std	Y+13, r24	; 0x0d
    198a:	9e 87       	std	Y+14, r25	; 0x0e
    198c:	af 87       	std	Y+15, r26	; 0x0f
    198e:	b8 8b       	std	Y+16, r27	; 0x10
    1990:	8d a9       	ldd	r24, Y+53	; 0x35
    1992:	9e a9       	ldd	r25, Y+54	; 0x36
    1994:	af a9       	ldd	r26, Y+55	; 0x37
    1996:	b8 ad       	ldd	r27, Y+56	; 0x38
    1998:	89 8b       	std	Y+17, r24	; 0x11
    199a:	9a 8b       	std	Y+18, r25	; 0x12
    199c:	ab 8b       	std	Y+19, r26	; 0x13
    199e:	bc 8b       	std	Y+20, r27	; 0x14
    19a0:	89 a5       	ldd	r24, Y+41	; 0x29
    19a2:	9a a5       	ldd	r25, Y+42	; 0x2a
    19a4:	ab a5       	ldd	r26, Y+43	; 0x2b
    19a6:	bc a5       	ldd	r27, Y+44	; 0x2c
    19a8:	8d 8b       	std	Y+21, r24	; 0x15
    19aa:	9e 8b       	std	Y+22, r25	; 0x16
    19ac:	af 8b       	std	Y+23, r26	; 0x17
    19ae:	b8 8f       	std	Y+24, r27	; 0x18
    19b0:	29 96       	adiw	r28, 0x09	; 9
    19b2:	8c ad       	ldd	r24, Y+60	; 0x3c
    19b4:	9d ad       	ldd	r25, Y+61	; 0x3d
    19b6:	ae ad       	ldd	r26, Y+62	; 0x3e
    19b8:	bf ad       	ldd	r27, Y+63	; 0x3f
    19ba:	29 97       	sbiw	r28, 0x09	; 9
    19bc:	89 8f       	std	Y+25, r24	; 0x19
    19be:	9a 8f       	std	Y+26, r25	; 0x1a
    19c0:	ab 8f       	std	Y+27, r26	; 0x1b
    19c2:	bc 8f       	std	Y+28, r27	; 0x1c
    19c4:	89 ad       	ldd	r24, Y+57	; 0x39
    19c6:	9a ad       	ldd	r25, Y+58	; 0x3a
    19c8:	ab ad       	ldd	r26, Y+59	; 0x3b
    19ca:	bc ad       	ldd	r27, Y+60	; 0x3c
    19cc:	8d 8f       	std	Y+29, r24	; 0x1d
    19ce:	9e 8f       	std	Y+30, r25	; 0x1e
    19d0:	af 8f       	std	Y+31, r26	; 0x1f
    19d2:	b8 a3       	std	Y+32, r27	; 0x20
    19d4:	0d a5       	ldd	r16, Y+45	; 0x2d
    19d6:	1e a5       	ldd	r17, Y+46	; 0x2e
    19d8:	2f a5       	ldd	r18, Y+47	; 0x2f
    19da:	38 a9       	ldd	r19, Y+48	; 0x30
    19dc:	09 a3       	std	Y+33, r16	; 0x21
    19de:	1a a3       	std	Y+34, r17	; 0x22
    19e0:	2b a3       	std	Y+35, r18	; 0x23
    19e2:	3c a3       	std	Y+36, r19	; 0x24
    19e4:	a6 01       	movw	r20, r12
    19e6:	be 01       	movw	r22, r28
    19e8:	6f 5f       	subi	r22, 0xFF	; 255
    19ea:	7f 4f       	sbci	r23, 0xFF	; 255
    19ec:	c7 01       	movw	r24, r14
    19ee:	0e 94 7b 1c 	call	0x38f6	; 0x38f6 <vector_into_matrix>
    19f2:	c8 5b       	subi	r28, 0xB8	; 184
    19f4:	df 4f       	sbci	r29, 0xFF	; 255
    19f6:	0f b6       	in	r0, 0x3f	; 63
    19f8:	f8 94       	cli
    19fa:	de bf       	out	0x3e, r29	; 62
    19fc:	0f be       	out	0x3f, r0	; 63
    19fe:	cd bf       	out	0x3d, r28	; 61
    1a00:	df 91       	pop	r29
    1a02:	cf 91       	pop	r28
    1a04:	1f 91       	pop	r17
    1a06:	0f 91       	pop	r16
    1a08:	ff 90       	pop	r15
    1a0a:	ef 90       	pop	r14
    1a0c:	df 90       	pop	r13
    1a0e:	cf 90       	pop	r12
    1a10:	08 95       	ret

00001a12 <ecef2lla>:
    1a12:	2f 92       	push	r2
    1a14:	3f 92       	push	r3
    1a16:	4f 92       	push	r4
    1a18:	5f 92       	push	r5
    1a1a:	6f 92       	push	r6
    1a1c:	7f 92       	push	r7
    1a1e:	8f 92       	push	r8
    1a20:	9f 92       	push	r9
    1a22:	af 92       	push	r10
    1a24:	bf 92       	push	r11
    1a26:	cf 92       	push	r12
    1a28:	df 92       	push	r13
    1a2a:	ef 92       	push	r14
    1a2c:	ff 92       	push	r15
    1a2e:	1f 93       	push	r17
    1a30:	cf 93       	push	r28
    1a32:	df 93       	push	r29
    1a34:	cd b7       	in	r28, 0x3d	; 61
    1a36:	de b7       	in	r29, 0x3e	; 62
    1a38:	60 97       	sbiw	r28, 0x10	; 16
    1a3a:	0f b6       	in	r0, 0x3f	; 63
    1a3c:	f8 94       	cli
    1a3e:	de bf       	out	0x3e, r29	; 62
    1a40:	0f be       	out	0x3f, r0	; 63
    1a42:	cd bf       	out	0x3d, r28	; 61
    1a44:	1b 01       	movw	r2, r22
    1a46:	dc 01       	movw	r26, r24
    1a48:	8d 90       	ld	r8, X+
    1a4a:	9d 90       	ld	r9, X+
    1a4c:	ad 90       	ld	r10, X+
    1a4e:	bc 90       	ld	r11, X
    1a50:	13 97       	sbiw	r26, 0x03	; 3
    1a52:	14 96       	adiw	r26, 0x04	; 4
    1a54:	cd 90       	ld	r12, X+
    1a56:	dd 90       	ld	r13, X+
    1a58:	ed 90       	ld	r14, X+
    1a5a:	fc 90       	ld	r15, X
    1a5c:	17 97       	sbiw	r26, 0x07	; 7
    1a5e:	18 96       	adiw	r26, 0x08	; 8
    1a60:	8d 91       	ld	r24, X+
    1a62:	9d 91       	ld	r25, X+
    1a64:	0d 90       	ld	r0, X+
    1a66:	bc 91       	ld	r27, X
    1a68:	a0 2d       	mov	r26, r0
    1a6a:	8d 83       	std	Y+5, r24	; 0x05
    1a6c:	9e 83       	std	Y+6, r25	; 0x06
    1a6e:	af 83       	std	Y+7, r26	; 0x07
    1a70:	b8 87       	std	Y+8, r27	; 0x08
    1a72:	a5 01       	movw	r20, r10
    1a74:	94 01       	movw	r18, r8
    1a76:	c7 01       	movw	r24, r14
    1a78:	b6 01       	movw	r22, r12
    1a7a:	0e 94 22 2a 	call	0x5444	; 0x5444 <atan2>
    1a7e:	6d 87       	std	Y+13, r22	; 0x0d
    1a80:	7e 87       	std	Y+14, r23	; 0x0e
    1a82:	8f 87       	std	Y+15, r24	; 0x0f
    1a84:	98 8b       	std	Y+16, r25	; 0x10
    1a86:	a5 01       	movw	r20, r10
    1a88:	94 01       	movw	r18, r8
    1a8a:	c5 01       	movw	r24, r10
    1a8c:	b4 01       	movw	r22, r8
    1a8e:	0e 94 95 2c 	call	0x592a	; 0x592a <__mulsf3>
    1a92:	4b 01       	movw	r8, r22
    1a94:	5c 01       	movw	r10, r24
    1a96:	a7 01       	movw	r20, r14
    1a98:	96 01       	movw	r18, r12
    1a9a:	c7 01       	movw	r24, r14
    1a9c:	b6 01       	movw	r22, r12
    1a9e:	0e 94 95 2c 	call	0x592a	; 0x592a <__mulsf3>
    1aa2:	9b 01       	movw	r18, r22
    1aa4:	ac 01       	movw	r20, r24
    1aa6:	c5 01       	movw	r24, r10
    1aa8:	b4 01       	movw	r22, r8
    1aaa:	0e 94 98 29 	call	0x5330	; 0x5330 <__addsf3>
    1aae:	0e 94 4e 2d 	call	0x5a9c	; 0x5a9c <sqrt>
    1ab2:	69 87       	std	Y+9, r22	; 0x09
    1ab4:	7a 87       	std	Y+10, r23	; 0x0a
    1ab6:	8b 87       	std	Y+11, r24	; 0x0b
    1ab8:	9c 87       	std	Y+12, r25	; 0x0c
    1aba:	25 e4       	ldi	r18, 0x45	; 69
    1abc:	34 e2       	ldi	r19, 0x24	; 36
    1abe:	4f e7       	ldi	r20, 0x7F	; 127
    1ac0:	5f e3       	ldi	r21, 0x3F	; 63
    1ac2:	0e 94 95 2c 	call	0x592a	; 0x592a <__mulsf3>
    1ac6:	9b 01       	movw	r18, r22
    1ac8:	ac 01       	movw	r20, r24
    1aca:	6d 81       	ldd	r22, Y+5	; 0x05
    1acc:	7e 81       	ldd	r23, Y+6	; 0x06
    1ace:	8f 81       	ldd	r24, Y+7	; 0x07
    1ad0:	98 85       	ldd	r25, Y+8	; 0x08
    1ad2:	0e 94 22 2a 	call	0x5444	; 0x5444 <atan2>
    1ad6:	4b 01       	movw	r8, r22
    1ad8:	5c 01       	movw	r10, r24
    1ada:	15 e0       	ldi	r17, 0x05	; 5
    1adc:	c5 01       	movw	r24, r10
    1ade:	b4 01       	movw	r22, r8
    1ae0:	0e 94 79 2a 	call	0x54f2	; 0x54f2 <cos>
    1ae4:	20 e0       	ldi	r18, 0x00	; 0
    1ae6:	30 e0       	ldi	r19, 0x00	; 0
    1ae8:	40 e4       	ldi	r20, 0x40	; 64
    1aea:	50 e4       	ldi	r21, 0x40	; 64
    1aec:	0e 94 f8 2c 	call	0x59f0	; 0x59f0 <pow>
    1af0:	6b 01       	movw	r12, r22
    1af2:	7c 01       	movw	r14, r24
    1af4:	c5 01       	movw	r24, r10
    1af6:	b4 01       	movw	r22, r8
    1af8:	0e 94 44 2d 	call	0x5a88	; 0x5a88 <sin>
    1afc:	20 e0       	ldi	r18, 0x00	; 0
    1afe:	30 e0       	ldi	r19, 0x00	; 0
    1b00:	40 e4       	ldi	r20, 0x40	; 64
    1b02:	50 e4       	ldi	r21, 0x40	; 64
    1b04:	0e 94 f8 2c 	call	0x59f0	; 0x59f0 <pow>
    1b08:	4b 01       	movw	r8, r22
    1b0a:	5c 01       	movw	r10, r24
    1b0c:	2e ea       	ldi	r18, 0xAE	; 174
    1b0e:	39 ec       	ldi	r19, 0xC9	; 201
    1b10:	46 e2       	ldi	r20, 0x26	; 38
    1b12:	57 e4       	ldi	r21, 0x47	; 71
    1b14:	c7 01       	movw	r24, r14
    1b16:	b6 01       	movw	r22, r12
    1b18:	0e 94 95 2c 	call	0x592a	; 0x592a <__mulsf3>
    1b1c:	9b 01       	movw	r18, r22
    1b1e:	ac 01       	movw	r20, r24
    1b20:	69 85       	ldd	r22, Y+9	; 0x09
    1b22:	7a 85       	ldd	r23, Y+10	; 0x0a
    1b24:	8b 85       	ldd	r24, Y+11	; 0x0b
    1b26:	9c 85       	ldd	r25, Y+12	; 0x0c
    1b28:	0e 94 97 29 	call	0x532e	; 0x532e <__subsf3>
    1b2c:	6b 01       	movw	r12, r22
    1b2e:	7c 01       	movw	r14, r24
    1b30:	22 e5       	ldi	r18, 0x52	; 82
    1b32:	39 e5       	ldi	r19, 0x59	; 89
    1b34:	47 e2       	ldi	r20, 0x27	; 39
    1b36:	57 e4       	ldi	r21, 0x47	; 71
    1b38:	c5 01       	movw	r24, r10
    1b3a:	b4 01       	movw	r22, r8
    1b3c:	0e 94 95 2c 	call	0x592a	; 0x592a <__mulsf3>
    1b40:	2d 81       	ldd	r18, Y+5	; 0x05
    1b42:	3e 81       	ldd	r19, Y+6	; 0x06
    1b44:	4f 81       	ldd	r20, Y+7	; 0x07
    1b46:	58 85       	ldd	r21, Y+8	; 0x08
    1b48:	0e 94 98 29 	call	0x5330	; 0x5330 <__addsf3>
    1b4c:	a7 01       	movw	r20, r14
    1b4e:	96 01       	movw	r18, r12
    1b50:	0e 94 22 2a 	call	0x5444	; 0x5444 <atan2>
    1b54:	6b 01       	movw	r12, r22
    1b56:	7c 01       	movw	r14, r24
    1b58:	0e 94 79 2a 	call	0x54f2	; 0x54f2 <cos>
    1b5c:	69 83       	std	Y+1, r22	; 0x01
    1b5e:	7a 83       	std	Y+2, r23	; 0x02
    1b60:	8b 83       	std	Y+3, r24	; 0x03
    1b62:	9c 83       	std	Y+4, r25	; 0x04
    1b64:	c7 01       	movw	r24, r14
    1b66:	b6 01       	movw	r22, r12
    1b68:	0e 94 44 2d 	call	0x5a88	; 0x5a88 <sin>
    1b6c:	2b 01       	movw	r4, r22
    1b6e:	3c 01       	movw	r6, r24
    1b70:	25 e4       	ldi	r18, 0x45	; 69
    1b72:	34 e2       	ldi	r19, 0x24	; 36
    1b74:	4f e7       	ldi	r20, 0x7F	; 127
    1b76:	5f e3       	ldi	r21, 0x3F	; 63
    1b78:	0e 94 95 2c 	call	0x592a	; 0x592a <__mulsf3>
    1b7c:	29 81       	ldd	r18, Y+1	; 0x01
    1b7e:	3a 81       	ldd	r19, Y+2	; 0x02
    1b80:	4b 81       	ldd	r20, Y+3	; 0x03
    1b82:	5c 81       	ldd	r21, Y+4	; 0x04
    1b84:	0e 94 22 2a 	call	0x5444	; 0x5444 <atan2>
    1b88:	4b 01       	movw	r8, r22
    1b8a:	5c 01       	movw	r10, r24
    1b8c:	11 50       	subi	r17, 0x01	; 1
    1b8e:	09 f0       	breq	.+2      	; 0x1b92 <ecef2lla+0x180>
    1b90:	a5 cf       	rjmp	.-182    	; 0x1adc <ecef2lla+0xca>
    1b92:	2a e8       	ldi	r18, 0x8A	; 138
    1b94:	3c e5       	ldi	r19, 0x5C	; 92
    1b96:	4b ed       	ldi	r20, 0xDB	; 219
    1b98:	5b e3       	ldi	r21, 0x3B	; 59
    1b9a:	c3 01       	movw	r24, r6
    1b9c:	b2 01       	movw	r22, r4
    1b9e:	0e 94 95 2c 	call	0x592a	; 0x592a <__mulsf3>
    1ba2:	a3 01       	movw	r20, r6
    1ba4:	92 01       	movw	r18, r4
    1ba6:	0e 94 95 2c 	call	0x592a	; 0x592a <__mulsf3>
    1baa:	9b 01       	movw	r18, r22
    1bac:	ac 01       	movw	r20, r24
    1bae:	60 e0       	ldi	r22, 0x00	; 0
    1bb0:	70 e0       	ldi	r23, 0x00	; 0
    1bb2:	80 e8       	ldi	r24, 0x80	; 128
    1bb4:	9f e3       	ldi	r25, 0x3F	; 63
    1bb6:	0e 94 97 29 	call	0x532e	; 0x532e <__subsf3>
    1bba:	0e 94 4e 2d 	call	0x5a9c	; 0x5a9c <sqrt>
    1bbe:	9b 01       	movw	r18, r22
    1bc0:	ac 01       	movw	r20, r24
    1bc2:	62 e3       	ldi	r22, 0x32	; 50
    1bc4:	75 ea       	ldi	r23, 0xA5	; 165
    1bc6:	82 ec       	ldi	r24, 0xC2	; 194
    1bc8:	9a e4       	ldi	r25, 0x4A	; 74
    1bca:	0e 94 7c 2a 	call	0x54f8	; 0x54f8 <__divsf3>
    1bce:	4b 01       	movw	r8, r22
    1bd0:	5c 01       	movw	r10, r24
    1bd2:	f1 01       	movw	r30, r2
    1bd4:	c0 82       	st	Z, r12
    1bd6:	d1 82       	std	Z+1, r13	; 0x01
    1bd8:	e2 82       	std	Z+2, r14	; 0x02
    1bda:	f3 82       	std	Z+3, r15	; 0x03
    1bdc:	8d 85       	ldd	r24, Y+13	; 0x0d
    1bde:	9e 85       	ldd	r25, Y+14	; 0x0e
    1be0:	af 85       	ldd	r26, Y+15	; 0x0f
    1be2:	b8 89       	ldd	r27, Y+16	; 0x10
    1be4:	84 83       	std	Z+4, r24	; 0x04
    1be6:	95 83       	std	Z+5, r25	; 0x05
    1be8:	a6 83       	std	Z+6, r26	; 0x06
    1bea:	b7 83       	std	Z+7, r27	; 0x07
    1bec:	29 81       	ldd	r18, Y+1	; 0x01
    1bee:	3a 81       	ldd	r19, Y+2	; 0x02
    1bf0:	4b 81       	ldd	r20, Y+3	; 0x03
    1bf2:	5c 81       	ldd	r21, Y+4	; 0x04
    1bf4:	69 85       	ldd	r22, Y+9	; 0x09
    1bf6:	7a 85       	ldd	r23, Y+10	; 0x0a
    1bf8:	8b 85       	ldd	r24, Y+11	; 0x0b
    1bfa:	9c 85       	ldd	r25, Y+12	; 0x0c
    1bfc:	0e 94 95 2c 	call	0x592a	; 0x592a <__mulsf3>
    1c00:	6b 01       	movw	r12, r22
    1c02:	7c 01       	movw	r14, r24
    1c04:	2a e8       	ldi	r18, 0x8A	; 138
    1c06:	3c e5       	ldi	r19, 0x5C	; 92
    1c08:	4b ed       	ldi	r20, 0xDB	; 219
    1c0a:	5b e3       	ldi	r21, 0x3B	; 59
    1c0c:	c5 01       	movw	r24, r10
    1c0e:	b4 01       	movw	r22, r8
    1c10:	0e 94 95 2c 	call	0x592a	; 0x592a <__mulsf3>
    1c14:	a3 01       	movw	r20, r6
    1c16:	92 01       	movw	r18, r4
    1c18:	0e 94 95 2c 	call	0x592a	; 0x592a <__mulsf3>
    1c1c:	2d 81       	ldd	r18, Y+5	; 0x05
    1c1e:	3e 81       	ldd	r19, Y+6	; 0x06
    1c20:	4f 81       	ldd	r20, Y+7	; 0x07
    1c22:	58 85       	ldd	r21, Y+8	; 0x08
    1c24:	0e 94 98 29 	call	0x5330	; 0x5330 <__addsf3>
    1c28:	a3 01       	movw	r20, r6
    1c2a:	92 01       	movw	r18, r4
    1c2c:	0e 94 95 2c 	call	0x592a	; 0x592a <__mulsf3>
    1c30:	9b 01       	movw	r18, r22
    1c32:	ac 01       	movw	r20, r24
    1c34:	c7 01       	movw	r24, r14
    1c36:	b6 01       	movw	r22, r12
    1c38:	0e 94 98 29 	call	0x5330	; 0x5330 <__addsf3>
    1c3c:	a5 01       	movw	r20, r10
    1c3e:	94 01       	movw	r18, r8
    1c40:	0e 94 97 29 	call	0x532e	; 0x532e <__subsf3>
    1c44:	d1 01       	movw	r26, r2
    1c46:	18 96       	adiw	r26, 0x08	; 8
    1c48:	6d 93       	st	X+, r22
    1c4a:	7d 93       	st	X+, r23
    1c4c:	8d 93       	st	X+, r24
    1c4e:	9c 93       	st	X, r25
    1c50:	1b 97       	sbiw	r26, 0x0b	; 11
    1c52:	60 96       	adiw	r28, 0x10	; 16
    1c54:	0f b6       	in	r0, 0x3f	; 63
    1c56:	f8 94       	cli
    1c58:	de bf       	out	0x3e, r29	; 62
    1c5a:	0f be       	out	0x3f, r0	; 63
    1c5c:	cd bf       	out	0x3d, r28	; 61
    1c5e:	df 91       	pop	r29
    1c60:	cf 91       	pop	r28
    1c62:	1f 91       	pop	r17
    1c64:	ff 90       	pop	r15
    1c66:	ef 90       	pop	r14
    1c68:	df 90       	pop	r13
    1c6a:	cf 90       	pop	r12
    1c6c:	bf 90       	pop	r11
    1c6e:	af 90       	pop	r10
    1c70:	9f 90       	pop	r9
    1c72:	8f 90       	pop	r8
    1c74:	7f 90       	pop	r7
    1c76:	6f 90       	pop	r6
    1c78:	5f 90       	pop	r5
    1c7a:	4f 90       	pop	r4
    1c7c:	3f 90       	pop	r3
    1c7e:	2f 90       	pop	r2
    1c80:	08 95       	ret

00001c82 <ned2ecef>:
    1c82:	2f 92       	push	r2
    1c84:	3f 92       	push	r3
    1c86:	4f 92       	push	r4
    1c88:	5f 92       	push	r5
    1c8a:	6f 92       	push	r6
    1c8c:	7f 92       	push	r7
    1c8e:	8f 92       	push	r8
    1c90:	9f 92       	push	r9
    1c92:	af 92       	push	r10
    1c94:	bf 92       	push	r11
    1c96:	cf 92       	push	r12
    1c98:	df 92       	push	r13
    1c9a:	ef 92       	push	r14
    1c9c:	ff 92       	push	r15
    1c9e:	0f 93       	push	r16
    1ca0:	1f 93       	push	r17
    1ca2:	cf 93       	push	r28
    1ca4:	df 93       	push	r29
    1ca6:	cd b7       	in	r28, 0x3d	; 61
    1ca8:	de b7       	in	r29, 0x3e	; 62
    1caa:	ac 97       	sbiw	r28, 0x2c	; 44
    1cac:	0f b6       	in	r0, 0x3f	; 63
    1cae:	f8 94       	cli
    1cb0:	de bf       	out	0x3e, r29	; 62
    1cb2:	0f be       	out	0x3f, r0	; 63
    1cb4:	cd bf       	out	0x3d, r28	; 61
    1cb6:	1c 01       	movw	r2, r24
    1cb8:	7b 01       	movw	r14, r22
    1cba:	8a 01       	movw	r16, r20
    1cbc:	db 01       	movw	r26, r22
    1cbe:	4d 90       	ld	r4, X+
    1cc0:	5d 90       	ld	r5, X+
    1cc2:	6d 90       	ld	r6, X+
    1cc4:	7c 90       	ld	r7, X
    1cc6:	c3 01       	movw	r24, r6
    1cc8:	b2 01       	movw	r22, r4
    1cca:	0e 94 79 2a 	call	0x54f2	; 0x54f2 <cos>
    1cce:	6d a3       	std	Y+37, r22	; 0x25
    1cd0:	7e a3       	std	Y+38, r23	; 0x26
    1cd2:	8f a3       	std	Y+39, r24	; 0x27
    1cd4:	98 a7       	std	Y+40, r25	; 0x28
    1cd6:	f7 01       	movw	r30, r14
    1cd8:	c4 80       	ldd	r12, Z+4	; 0x04
    1cda:	d5 80       	ldd	r13, Z+5	; 0x05
    1cdc:	e6 80       	ldd	r14, Z+6	; 0x06
    1cde:	f7 80       	ldd	r15, Z+7	; 0x07
    1ce0:	c7 01       	movw	r24, r14
    1ce2:	b6 01       	movw	r22, r12
    1ce4:	0e 94 79 2a 	call	0x54f2	; 0x54f2 <cos>
    1ce8:	4b 01       	movw	r8, r22
    1cea:	5c 01       	movw	r10, r24
    1cec:	c3 01       	movw	r24, r6
    1cee:	b2 01       	movw	r22, r4
    1cf0:	0e 94 44 2d 	call	0x5a88	; 0x5a88 <sin>
    1cf4:	2b 01       	movw	r4, r22
    1cf6:	3c 01       	movw	r6, r24
    1cf8:	c7 01       	movw	r24, r14
    1cfa:	b6 01       	movw	r22, r12
    1cfc:	0e 94 44 2d 	call	0x5a88	; 0x5a88 <sin>
    1d00:	6b 01       	movw	r12, r22
    1d02:	7c 01       	movw	r14, r24
    1d04:	77 fa       	bst	r7, 7
    1d06:	70 94       	com	r7
    1d08:	77 f8       	bld	r7, 7
    1d0a:	70 94       	com	r7
    1d0c:	8d a1       	ldd	r24, Y+37	; 0x25
    1d0e:	9e a1       	ldd	r25, Y+38	; 0x26
    1d10:	af a1       	ldd	r26, Y+39	; 0x27
    1d12:	b8 a5       	ldd	r27, Y+40	; 0x28
    1d14:	b0 58       	subi	r27, 0x80	; 128
    1d16:	89 a7       	std	Y+41, r24	; 0x29
    1d18:	9a a7       	std	Y+42, r25	; 0x2a
    1d1a:	ab a7       	std	Y+43, r26	; 0x2b
    1d1c:	bc a7       	std	Y+44, r27	; 0x2c
    1d1e:	a5 01       	movw	r20, r10
    1d20:	94 01       	movw	r18, r8
    1d22:	c3 01       	movw	r24, r6
    1d24:	b2 01       	movw	r22, r4
    1d26:	0e 94 95 2c 	call	0x592a	; 0x592a <__mulsf3>
    1d2a:	69 83       	std	Y+1, r22	; 0x01
    1d2c:	7a 83       	std	Y+2, r23	; 0x02
    1d2e:	8b 83       	std	Y+3, r24	; 0x03
    1d30:	9c 83       	std	Y+4, r25	; 0x04
    1d32:	a3 01       	movw	r20, r6
    1d34:	92 01       	movw	r18, r4
    1d36:	c7 01       	movw	r24, r14
    1d38:	b6 01       	movw	r22, r12
    1d3a:	0e 94 95 2c 	call	0x592a	; 0x592a <__mulsf3>
    1d3e:	6d 83       	std	Y+5, r22	; 0x05
    1d40:	7e 83       	std	Y+6, r23	; 0x06
    1d42:	8f 83       	std	Y+7, r24	; 0x07
    1d44:	98 87       	std	Y+8, r25	; 0x08
    1d46:	8d a1       	ldd	r24, Y+37	; 0x25
    1d48:	9e a1       	ldd	r25, Y+38	; 0x26
    1d4a:	af a1       	ldd	r26, Y+39	; 0x27
    1d4c:	b8 a5       	ldd	r27, Y+40	; 0x28
    1d4e:	89 87       	std	Y+9, r24	; 0x09
    1d50:	9a 87       	std	Y+10, r25	; 0x0a
    1d52:	ab 87       	std	Y+11, r26	; 0x0b
    1d54:	bc 87       	std	Y+12, r27	; 0x0c
    1d56:	d7 01       	movw	r26, r14
    1d58:	c6 01       	movw	r24, r12
    1d5a:	b0 58       	subi	r27, 0x80	; 128
    1d5c:	8d 87       	std	Y+13, r24	; 0x0d
    1d5e:	9e 87       	std	Y+14, r25	; 0x0e
    1d60:	af 87       	std	Y+15, r26	; 0x0f
    1d62:	b8 8b       	std	Y+16, r27	; 0x10
    1d64:	89 8a       	std	Y+17, r8	; 0x11
    1d66:	9a 8a       	std	Y+18, r9	; 0x12
    1d68:	ab 8a       	std	Y+19, r10	; 0x13
    1d6a:	bc 8a       	std	Y+20, r11	; 0x14
    1d6c:	1d 8a       	std	Y+21, r1	; 0x15
    1d6e:	1e 8a       	std	Y+22, r1	; 0x16
    1d70:	1f 8a       	std	Y+23, r1	; 0x17
    1d72:	18 8e       	std	Y+24, r1	; 0x18
    1d74:	a5 01       	movw	r20, r10
    1d76:	94 01       	movw	r18, r8
    1d78:	69 a5       	ldd	r22, Y+41	; 0x29
    1d7a:	7a a5       	ldd	r23, Y+42	; 0x2a
    1d7c:	8b a5       	ldd	r24, Y+43	; 0x2b
    1d7e:	9c a5       	ldd	r25, Y+44	; 0x2c
    1d80:	0e 94 95 2c 	call	0x592a	; 0x592a <__mulsf3>
    1d84:	69 8f       	std	Y+25, r22	; 0x19
    1d86:	7a 8f       	std	Y+26, r23	; 0x1a
    1d88:	8b 8f       	std	Y+27, r24	; 0x1b
    1d8a:	9c 8f       	std	Y+28, r25	; 0x1c
    1d8c:	29 a5       	ldd	r18, Y+41	; 0x29
    1d8e:	3a a5       	ldd	r19, Y+42	; 0x2a
    1d90:	4b a5       	ldd	r20, Y+43	; 0x2b
    1d92:	5c a5       	ldd	r21, Y+44	; 0x2c
    1d94:	c7 01       	movw	r24, r14
    1d96:	b6 01       	movw	r22, r12
    1d98:	0e 94 95 2c 	call	0x592a	; 0x592a <__mulsf3>
    1d9c:	6d 8f       	std	Y+29, r22	; 0x1d
    1d9e:	7e 8f       	std	Y+30, r23	; 0x1e
    1da0:	8f 8f       	std	Y+31, r24	; 0x1f
    1da2:	98 a3       	std	Y+32, r25	; 0x20
    1da4:	49 a2       	std	Y+33, r4	; 0x21
    1da6:	5a a2       	std	Y+34, r5	; 0x22
    1da8:	6b a2       	std	Y+35, r6	; 0x23
    1daa:	7c a2       	std	Y+36, r7	; 0x24
    1dac:	a8 01       	movw	r20, r16
    1dae:	be 01       	movw	r22, r28
    1db0:	6f 5f       	subi	r22, 0xFF	; 255
    1db2:	7f 4f       	sbci	r23, 0xFF	; 255
    1db4:	c1 01       	movw	r24, r2
    1db6:	0e 94 7b 1c 	call	0x38f6	; 0x38f6 <vector_into_matrix>
    1dba:	ac 96       	adiw	r28, 0x2c	; 44
    1dbc:	0f b6       	in	r0, 0x3f	; 63
    1dbe:	f8 94       	cli
    1dc0:	de bf       	out	0x3e, r29	; 62
    1dc2:	0f be       	out	0x3f, r0	; 63
    1dc4:	cd bf       	out	0x3d, r28	; 61
    1dc6:	df 91       	pop	r29
    1dc8:	cf 91       	pop	r28
    1dca:	1f 91       	pop	r17
    1dcc:	0f 91       	pop	r16
    1dce:	ff 90       	pop	r15
    1dd0:	ef 90       	pop	r14
    1dd2:	df 90       	pop	r13
    1dd4:	cf 90       	pop	r12
    1dd6:	bf 90       	pop	r11
    1dd8:	af 90       	pop	r10
    1dda:	9f 90       	pop	r9
    1ddc:	8f 90       	pop	r8
    1dde:	7f 90       	pop	r7
    1de0:	6f 90       	pop	r6
    1de2:	5f 90       	pop	r5
    1de4:	4f 90       	pop	r4
    1de6:	3f 90       	pop	r3
    1de8:	2f 90       	pop	r2
    1dea:	08 95       	ret

00001dec <init_UART_GPS>:
    1dec:	1b b8       	out	0x0b, r1	; 11
    1dee:	1a b8       	out	0x0a, r1	; 10
    1df0:	e5 e9       	ldi	r30, 0x95	; 149
    1df2:	f0 e0       	ldi	r31, 0x00	; 0
    1df4:	10 82       	st	Z, r1
    1df6:	59 9a       	sbi	0x0b, 1	; 11
    1df8:	8a b1       	in	r24, 0x0a	; 10
    1dfa:	88 69       	ori	r24, 0x98	; 152
    1dfc:	8a b9       	out	0x0a, r24	; 10
    1dfe:	80 81       	ld	r24, Z
    1e00:	8e 60       	ori	r24, 0x0E	; 14
    1e02:	80 83       	st	Z, r24
    1e04:	87 e6       	ldi	r24, 0x67	; 103
    1e06:	89 b9       	out	0x09, r24	; 9
    1e08:	10 92 90 00 	sts	0x0090, r1
    1e0c:	81 e0       	ldi	r24, 0x01	; 1
    1e0e:	90 e0       	ldi	r25, 0x00	; 0
    1e10:	a0 e0       	ldi	r26, 0x00	; 0
    1e12:	b0 e0       	ldi	r27, 0x00	; 0
    1e14:	80 93 e1 04 	sts	0x04E1, r24
    1e18:	90 93 e2 04 	sts	0x04E2, r25
    1e1c:	a0 93 e3 04 	sts	0x04E3, r26
    1e20:	b0 93 e4 04 	sts	0x04E4, r27
    1e24:	80 93 e5 04 	sts	0x04E5, r24
    1e28:	90 93 e6 04 	sts	0x04E6, r25
    1e2c:	a0 93 e7 04 	sts	0x04E7, r26
    1e30:	b0 93 e8 04 	sts	0x04E8, r27
    1e34:	80 93 e9 04 	sts	0x04E9, r24
    1e38:	90 93 ea 04 	sts	0x04EA, r25
    1e3c:	a0 93 eb 04 	sts	0x04EB, r26
    1e40:	b0 93 ec 04 	sts	0x04EC, r27
    1e44:	80 93 ed 04 	sts	0x04ED, r24
    1e48:	90 93 ee 04 	sts	0x04EE, r25
    1e4c:	a0 93 ef 04 	sts	0x04EF, r26
    1e50:	b0 93 f0 04 	sts	0x04F0, r27
    1e54:	80 93 f1 04 	sts	0x04F1, r24
    1e58:	90 93 f2 04 	sts	0x04F2, r25
    1e5c:	a0 93 f3 04 	sts	0x04F3, r26
    1e60:	b0 93 f4 04 	sts	0x04F4, r27
    1e64:	80 93 f5 04 	sts	0x04F5, r24
    1e68:	90 93 f6 04 	sts	0x04F6, r25
    1e6c:	a0 93 f7 04 	sts	0x04F7, r26
    1e70:	b0 93 f8 04 	sts	0x04F8, r27
    1e74:	80 93 f9 04 	sts	0x04F9, r24
    1e78:	90 93 fa 04 	sts	0x04FA, r25
    1e7c:	a0 93 fb 04 	sts	0x04FB, r26
    1e80:	b0 93 fc 04 	sts	0x04FC, r27
    1e84:	80 93 fd 04 	sts	0x04FD, r24
    1e88:	90 93 fe 04 	sts	0x04FE, r25
    1e8c:	a0 93 ff 04 	sts	0x04FF, r26
    1e90:	b0 93 00 05 	sts	0x0500, r27
    1e94:	80 93 01 05 	sts	0x0501, r24
    1e98:	90 93 02 05 	sts	0x0502, r25
    1e9c:	a0 93 03 05 	sts	0x0503, r26
    1ea0:	b0 93 04 05 	sts	0x0504, r27
    1ea4:	80 93 05 05 	sts	0x0505, r24
    1ea8:	80 93 06 05 	sts	0x0506, r24
    1eac:	80 93 07 05 	sts	0x0507, r24
    1eb0:	80 93 08 05 	sts	0x0508, r24
    1eb4:	80 93 09 05 	sts	0x0509, r24
    1eb8:	81 e0       	ldi	r24, 0x01	; 1
    1eba:	90 e0       	ldi	r25, 0x00	; 0
    1ebc:	90 93 0b 05 	sts	0x050B, r25
    1ec0:	80 93 0a 05 	sts	0x050A, r24
    1ec4:	90 93 0d 05 	sts	0x050D, r25
    1ec8:	80 93 0c 05 	sts	0x050C, r24
    1ecc:	08 95       	ret

00001ece <__vector_18>:
    1ece:	1f 92       	push	r1
    1ed0:	0f 92       	push	r0
    1ed2:	0f b6       	in	r0, 0x3f	; 63
    1ed4:	0f 92       	push	r0
    1ed6:	11 24       	eor	r1, r1
    1ed8:	2f 93       	push	r18
    1eda:	8f 93       	push	r24
    1edc:	9f 93       	push	r25
    1ede:	af 93       	push	r26
    1ee0:	bf 93       	push	r27
    1ee2:	8b b3       	in	r24, 0x1b	; 27
    1ee4:	90 ef       	ldi	r25, 0xF0	; 240
    1ee6:	89 27       	eor	r24, r25
    1ee8:	8b bb       	out	0x1b, r24	; 27
    1eea:	8c b1       	in	r24, 0x0c	; 12
    1eec:	80 93 56 02 	sts	0x0256, r24
    1ef0:	80 91 57 02 	lds	r24, 0x0257
    1ef4:	90 91 58 02 	lds	r25, 0x0258
    1ef8:	a0 91 59 02 	lds	r26, 0x0259
    1efc:	b0 91 5a 02 	lds	r27, 0x025A
    1f00:	ba 2f       	mov	r27, r26
    1f02:	a9 2f       	mov	r26, r25
    1f04:	98 2f       	mov	r25, r24
    1f06:	88 27       	eor	r24, r24
    1f08:	80 93 57 02 	sts	0x0257, r24
    1f0c:	90 93 58 02 	sts	0x0258, r25
    1f10:	a0 93 59 02 	sts	0x0259, r26
    1f14:	b0 93 5a 02 	sts	0x025A, r27
    1f18:	80 91 57 02 	lds	r24, 0x0257
    1f1c:	90 91 58 02 	lds	r25, 0x0258
    1f20:	a0 91 59 02 	lds	r26, 0x0259
    1f24:	b0 91 5a 02 	lds	r27, 0x025A
    1f28:	88 27       	eor	r24, r24
    1f2a:	80 93 57 02 	sts	0x0257, r24
    1f2e:	90 93 58 02 	sts	0x0258, r25
    1f32:	a0 93 59 02 	sts	0x0259, r26
    1f36:	b0 93 5a 02 	sts	0x025A, r27
    1f3a:	20 91 56 02 	lds	r18, 0x0256
    1f3e:	80 91 57 02 	lds	r24, 0x0257
    1f42:	90 91 58 02 	lds	r25, 0x0258
    1f46:	a0 91 59 02 	lds	r26, 0x0259
    1f4a:	b0 91 5a 02 	lds	r27, 0x025A
    1f4e:	82 2b       	or	r24, r18
    1f50:	80 93 57 02 	sts	0x0257, r24
    1f54:	90 93 58 02 	sts	0x0258, r25
    1f58:	a0 93 59 02 	sts	0x0259, r26
    1f5c:	b0 93 5a 02 	sts	0x025A, r27
    1f60:	80 91 11 01 	lds	r24, 0x0111
    1f64:	8c 30       	cpi	r24, 0x0C	; 12
    1f66:	08 f0       	brcs	.+2      	; 0x1f6a <__vector_18+0x9c>
    1f68:	49 c0       	rjmp	.+146    	; 0x1ffc <__vector_18+0x12e>
    1f6a:	80 91 11 01 	lds	r24, 0x0111
    1f6e:	84 30       	cpi	r24, 0x04	; 4
    1f70:	08 f0       	brcs	.+2      	; 0x1f74 <__vector_18+0xa6>
    1f72:	d4 c1       	rjmp	.+936    	; 0x231c <__vector_18+0x44e>
    1f74:	80 91 e1 04 	lds	r24, 0x04E1
    1f78:	90 91 e2 04 	lds	r25, 0x04E2
    1f7c:	a0 91 e3 04 	lds	r26, 0x04E3
    1f80:	b0 91 e4 04 	lds	r27, 0x04E4
    1f84:	89 2f       	mov	r24, r25
    1f86:	9a 2f       	mov	r25, r26
    1f88:	ab 2f       	mov	r26, r27
    1f8a:	bb 27       	eor	r27, r27
    1f8c:	a7 fd       	sbrc	r26, 7
    1f8e:	ba 95       	dec	r27
    1f90:	80 93 e1 04 	sts	0x04E1, r24
    1f94:	90 93 e2 04 	sts	0x04E2, r25
    1f98:	a0 93 e3 04 	sts	0x04E3, r26
    1f9c:	b0 93 e4 04 	sts	0x04E4, r27
    1fa0:	80 91 e1 04 	lds	r24, 0x04E1
    1fa4:	90 91 e2 04 	lds	r25, 0x04E2
    1fa8:	a0 91 e3 04 	lds	r26, 0x04E3
    1fac:	b0 91 e4 04 	lds	r27, 0x04E4
    1fb0:	bb 27       	eor	r27, r27
    1fb2:	80 93 e1 04 	sts	0x04E1, r24
    1fb6:	90 93 e2 04 	sts	0x04E2, r25
    1fba:	a0 93 e3 04 	sts	0x04E3, r26
    1fbe:	b0 93 e4 04 	sts	0x04E4, r27
    1fc2:	80 91 e1 04 	lds	r24, 0x04E1
    1fc6:	90 91 e2 04 	lds	r25, 0x04E2
    1fca:	a0 91 e3 04 	lds	r26, 0x04E3
    1fce:	b0 91 e4 04 	lds	r27, 0x04E4
    1fd2:	20 91 56 02 	lds	r18, 0x0256
    1fd6:	b2 2b       	or	r27, r18
    1fd8:	80 93 e1 04 	sts	0x04E1, r24
    1fdc:	90 93 e2 04 	sts	0x04E2, r25
    1fe0:	a0 93 e3 04 	sts	0x04E3, r26
    1fe4:	b0 93 e4 04 	sts	0x04E4, r27
    1fe8:	80 91 11 01 	lds	r24, 0x0111
    1fec:	8f 5f       	subi	r24, 0xFF	; 255
    1fee:	80 93 11 01 	sts	0x0111, r24
    1ff2:	80 91 11 01 	lds	r24, 0x0111
    1ff6:	8c 30       	cpi	r24, 0x0C	; 12
    1ff8:	09 f4       	brne	.+2      	; 0x1ffc <__vector_18+0x12e>
    1ffa:	2d c2       	rjmp	.+1114   	; 0x2456 <__vector_18+0x588>
    1ffc:	80 91 10 01 	lds	r24, 0x0110
    2000:	8c 30       	cpi	r24, 0x0C	; 12
    2002:	08 f0       	brcs	.+2      	; 0x2006 <__vector_18+0x138>
    2004:	49 c0       	rjmp	.+146    	; 0x2098 <__vector_18+0x1ca>
    2006:	80 91 10 01 	lds	r24, 0x0110
    200a:	84 30       	cpi	r24, 0x04	; 4
    200c:	08 f0       	brcs	.+2      	; 0x2010 <__vector_18+0x142>
    200e:	41 c1       	rjmp	.+642    	; 0x2292 <__vector_18+0x3c4>
    2010:	80 91 ed 04 	lds	r24, 0x04ED
    2014:	90 91 ee 04 	lds	r25, 0x04EE
    2018:	a0 91 ef 04 	lds	r26, 0x04EF
    201c:	b0 91 f0 04 	lds	r27, 0x04F0
    2020:	89 2f       	mov	r24, r25
    2022:	9a 2f       	mov	r25, r26
    2024:	ab 2f       	mov	r26, r27
    2026:	bb 27       	eor	r27, r27
    2028:	a7 fd       	sbrc	r26, 7
    202a:	ba 95       	dec	r27
    202c:	80 93 ed 04 	sts	0x04ED, r24
    2030:	90 93 ee 04 	sts	0x04EE, r25
    2034:	a0 93 ef 04 	sts	0x04EF, r26
    2038:	b0 93 f0 04 	sts	0x04F0, r27
    203c:	80 91 ed 04 	lds	r24, 0x04ED
    2040:	90 91 ee 04 	lds	r25, 0x04EE
    2044:	a0 91 ef 04 	lds	r26, 0x04EF
    2048:	b0 91 f0 04 	lds	r27, 0x04F0
    204c:	bb 27       	eor	r27, r27
    204e:	80 93 ed 04 	sts	0x04ED, r24
    2052:	90 93 ee 04 	sts	0x04EE, r25
    2056:	a0 93 ef 04 	sts	0x04EF, r26
    205a:	b0 93 f0 04 	sts	0x04F0, r27
    205e:	80 91 ed 04 	lds	r24, 0x04ED
    2062:	90 91 ee 04 	lds	r25, 0x04EE
    2066:	a0 91 ef 04 	lds	r26, 0x04EF
    206a:	b0 91 f0 04 	lds	r27, 0x04F0
    206e:	20 91 56 02 	lds	r18, 0x0256
    2072:	b2 2b       	or	r27, r18
    2074:	80 93 ed 04 	sts	0x04ED, r24
    2078:	90 93 ee 04 	sts	0x04EE, r25
    207c:	a0 93 ef 04 	sts	0x04EF, r26
    2080:	b0 93 f0 04 	sts	0x04F0, r27
    2084:	80 91 10 01 	lds	r24, 0x0110
    2088:	8f 5f       	subi	r24, 0xFF	; 255
    208a:	80 93 10 01 	sts	0x0110, r24
    208e:	80 91 10 01 	lds	r24, 0x0110
    2092:	8c 30       	cpi	r24, 0x0C	; 12
    2094:	09 f4       	brne	.+2      	; 0x2098 <__vector_18+0x1ca>
    2096:	e3 c1       	rjmp	.+966    	; 0x245e <__vector_18+0x590>
    2098:	80 91 0f 01 	lds	r24, 0x010F
    209c:	84 30       	cpi	r24, 0x04	; 4
    209e:	60 f5       	brcc	.+88     	; 0x20f8 <__vector_18+0x22a>
    20a0:	80 91 0f 01 	lds	r24, 0x010F
    20a4:	82 30       	cpi	r24, 0x02	; 2
    20a6:	f0 f0       	brcs	.+60     	; 0x20e4 <__vector_18+0x216>
    20a8:	80 91 0c 05 	lds	r24, 0x050C
    20ac:	90 91 0d 05 	lds	r25, 0x050D
    20b0:	89 2f       	mov	r24, r25
    20b2:	99 27       	eor	r25, r25
    20b4:	90 93 0d 05 	sts	0x050D, r25
    20b8:	80 93 0c 05 	sts	0x050C, r24
    20bc:	80 91 0c 05 	lds	r24, 0x050C
    20c0:	90 91 0d 05 	lds	r25, 0x050D
    20c4:	99 27       	eor	r25, r25
    20c6:	90 93 0d 05 	sts	0x050D, r25
    20ca:	80 93 0c 05 	sts	0x050C, r24
    20ce:	80 91 0c 05 	lds	r24, 0x050C
    20d2:	90 91 0d 05 	lds	r25, 0x050D
    20d6:	20 91 56 02 	lds	r18, 0x0256
    20da:	92 2b       	or	r25, r18
    20dc:	90 93 0d 05 	sts	0x050D, r25
    20e0:	80 93 0c 05 	sts	0x050C, r24
    20e4:	80 91 0f 01 	lds	r24, 0x010F
    20e8:	8f 5f       	subi	r24, 0xFF	; 255
    20ea:	80 93 0f 01 	sts	0x010F, r24
    20ee:	80 91 0f 01 	lds	r24, 0x010F
    20f2:	84 30       	cpi	r24, 0x04	; 4
    20f4:	09 f4       	brne	.+2      	; 0x20f8 <__vector_18+0x22a>
    20f6:	ab c1       	rjmp	.+854    	; 0x244e <__vector_18+0x580>
    20f8:	80 91 0e 01 	lds	r24, 0x010E
    20fc:	80 31       	cpi	r24, 0x10	; 16
    20fe:	78 f4       	brcc	.+30     	; 0x211e <__vector_18+0x250>
    2100:	80 91 0e 01 	lds	r24, 0x010E
    2104:	84 30       	cpi	r24, 0x04	; 4
    2106:	08 f0       	brcs	.+2      	; 0x210a <__vector_18+0x23c>
    2108:	4e c1       	rjmp	.+668    	; 0x23a6 <__vector_18+0x4d8>
    210a:	80 91 0e 01 	lds	r24, 0x010E
    210e:	8f 5f       	subi	r24, 0xFF	; 255
    2110:	80 93 0e 01 	sts	0x010E, r24
    2114:	80 91 0e 01 	lds	r24, 0x010E
    2118:	80 31       	cpi	r24, 0x10	; 16
    211a:	09 f4       	brne	.+2      	; 0x211e <__vector_18+0x250>
    211c:	94 c1       	rjmp	.+808    	; 0x2446 <__vector_18+0x578>
    211e:	80 91 0d 01 	lds	r24, 0x010D
    2122:	87 30       	cpi	r24, 0x07	; 7
    2124:	90 f4       	brcc	.+36     	; 0x214a <__vector_18+0x27c>
    2126:	80 91 0d 01 	lds	r24, 0x010D
    212a:	81 11       	cpse	r24, r1
    212c:	7a c0       	rjmp	.+244    	; 0x2222 <__vector_18+0x354>
    212e:	80 91 56 02 	lds	r24, 0x0256
    2132:	80 93 05 05 	sts	0x0505, r24
    2136:	80 91 0d 01 	lds	r24, 0x010D
    213a:	8f 5f       	subi	r24, 0xFF	; 255
    213c:	80 93 0d 01 	sts	0x010D, r24
    2140:	80 91 0d 01 	lds	r24, 0x010D
    2144:	87 30       	cpi	r24, 0x07	; 7
    2146:	09 f4       	brne	.+2      	; 0x214a <__vector_18+0x27c>
    2148:	8e c1       	rjmp	.+796    	; 0x2466 <__vector_18+0x598>
    214a:	80 91 57 02 	lds	r24, 0x0257
    214e:	90 91 58 02 	lds	r25, 0x0258
    2152:	a0 91 59 02 	lds	r26, 0x0259
    2156:	b0 91 5a 02 	lds	r27, 0x025A
    215a:	8c 3a       	cpi	r24, 0xAC	; 172
    215c:	94 40       	sbci	r25, 0x04	; 4
    215e:	af 43       	sbci	r26, 0x3F	; 63
    2160:	bf 43       	sbci	r27, 0x3F	; 63
    2162:	09 f4       	brne	.+2      	; 0x2166 <__vector_18+0x298>
    2164:	65 c1       	rjmp	.+714    	; 0x2430 <__vector_18+0x562>
    2166:	80 91 57 02 	lds	r24, 0x0257
    216a:	90 91 58 02 	lds	r25, 0x0258
    216e:	a0 91 59 02 	lds	r26, 0x0259
    2172:	b0 91 5a 02 	lds	r27, 0x025A
    2176:	8c 3a       	cpi	r24, 0xAC	; 172
    2178:	95 40       	sbci	r25, 0x05	; 5
    217a:	af 43       	sbci	r26, 0x3F	; 63
    217c:	bf 43       	sbci	r27, 0x3F	; 63
    217e:	09 f4       	brne	.+2      	; 0x2182 <__vector_18+0x2b4>
    2180:	5c c1       	rjmp	.+696    	; 0x243a <__vector_18+0x56c>
    2182:	80 91 57 02 	lds	r24, 0x0257
    2186:	90 91 58 02 	lds	r25, 0x0258
    218a:	a0 91 59 02 	lds	r26, 0x0259
    218e:	b0 91 5a 02 	lds	r27, 0x025A
    2192:	8c 3a       	cpi	r24, 0xAC	; 172
    2194:	9b 40       	sbci	r25, 0x0B	; 11
    2196:	af 43       	sbci	r26, 0x3F	; 63
    2198:	bf 43       	sbci	r27, 0x3F	; 63
    219a:	09 f4       	brne	.+2      	; 0x219e <__vector_18+0x2d0>
    219c:	51 c1       	rjmp	.+674    	; 0x2440 <__vector_18+0x572>
    219e:	80 91 57 02 	lds	r24, 0x0257
    21a2:	90 91 58 02 	lds	r25, 0x0258
    21a6:	a0 91 59 02 	lds	r26, 0x0259
    21aa:	b0 91 5a 02 	lds	r27, 0x025A
    21ae:	8c 3a       	cpi	r24, 0xAC	; 172
    21b0:	9e 40       	sbci	r25, 0x0E	; 14
    21b2:	af 43       	sbci	r26, 0x3F	; 63
    21b4:	bf 43       	sbci	r27, 0x3F	; 63
    21b6:	09 f4       	brne	.+2      	; 0x21ba <__vector_18+0x2ec>
    21b8:	16 c2       	rjmp	.+1068   	; 0x25e6 <__vector_18+0x718>
    21ba:	80 91 57 02 	lds	r24, 0x0257
    21be:	90 91 58 02 	lds	r25, 0x0258
    21c2:	a0 91 59 02 	lds	r26, 0x0259
    21c6:	b0 91 5a 02 	lds	r27, 0x025A
    21ca:	8c 3a       	cpi	r24, 0xAC	; 172
    21cc:	9f 40       	sbci	r25, 0x0F	; 15
    21ce:	af 43       	sbci	r26, 0x3F	; 63
    21d0:	bf 43       	sbci	r27, 0x3F	; 63
    21d2:	09 f4       	brne	.+2      	; 0x21d6 <__vector_18+0x308>
    21d4:	00 c2       	rjmp	.+1024   	; 0x25d6 <__vector_18+0x708>
    21d6:	80 91 0c 05 	lds	r24, 0x050C
    21da:	90 91 0d 05 	lds	r25, 0x050D
    21de:	80 91 55 02 	lds	r24, 0x0255
    21e2:	88 23       	and	r24, r24
    21e4:	a1 f0       	breq	.+40     	; 0x220e <__vector_18+0x340>
    21e6:	81 e0       	ldi	r24, 0x01	; 1
    21e8:	80 93 13 01 	sts	0x0113, r24
    21ec:	57 98       	cbi	0x0a, 7	; 10
    21ee:	8f ef       	ldi	r24, 0xFF	; 255
    21f0:	9f ef       	ldi	r25, 0xFF	; 255
    21f2:	90 93 0d 05 	sts	0x050D, r25
    21f6:	80 93 0c 05 	sts	0x050C, r24
    21fa:	10 92 55 02 	sts	0x0255, r1
    21fe:	10 92 57 02 	sts	0x0257, r1
    2202:	10 92 58 02 	sts	0x0258, r1
    2206:	10 92 59 02 	sts	0x0259, r1
    220a:	10 92 5a 02 	sts	0x025A, r1
    220e:	bf 91       	pop	r27
    2210:	af 91       	pop	r26
    2212:	9f 91       	pop	r25
    2214:	8f 91       	pop	r24
    2216:	2f 91       	pop	r18
    2218:	0f 90       	pop	r0
    221a:	0f be       	out	0x3f, r0	; 63
    221c:	0f 90       	pop	r0
    221e:	1f 90       	pop	r1
    2220:	18 95       	reti
    2222:	80 91 0d 01 	lds	r24, 0x010D
    2226:	81 30       	cpi	r24, 0x01	; 1
    2228:	09 f4       	brne	.+2      	; 0x222c <__vector_18+0x35e>
    222a:	d8 c1       	rjmp	.+944    	; 0x25dc <__vector_18+0x70e>
    222c:	80 91 0d 01 	lds	r24, 0x010D
    2230:	82 30       	cpi	r24, 0x02	; 2
    2232:	09 f4       	brne	.+2      	; 0x2236 <__vector_18+0x368>
    2234:	1b c2       	rjmp	.+1078   	; 0x266c <__vector_18+0x79e>
    2236:	80 91 0d 01 	lds	r24, 0x010D
    223a:	83 30       	cpi	r24, 0x03	; 3
    223c:	09 f4       	brne	.+2      	; 0x2240 <__vector_18+0x372>
    223e:	1b c2       	rjmp	.+1078   	; 0x2676 <__vector_18+0x7a8>
    2240:	80 91 0d 01 	lds	r24, 0x010D
    2244:	84 30       	cpi	r24, 0x04	; 4
    2246:	09 f4       	brne	.+2      	; 0x224a <__vector_18+0x37c>
    2248:	1b c2       	rjmp	.+1078   	; 0x2680 <__vector_18+0x7b2>
    224a:	80 91 0d 01 	lds	r24, 0x010D
    224e:	85 30       	cpi	r24, 0x05	; 5
    2250:	08 f4       	brcc	.+2      	; 0x2254 <__vector_18+0x386>
    2252:	71 cf       	rjmp	.-286    	; 0x2136 <__vector_18+0x268>
    2254:	80 91 0a 05 	lds	r24, 0x050A
    2258:	90 91 0b 05 	lds	r25, 0x050B
    225c:	89 2f       	mov	r24, r25
    225e:	99 27       	eor	r25, r25
    2260:	90 93 0b 05 	sts	0x050B, r25
    2264:	80 93 0a 05 	sts	0x050A, r24
    2268:	80 91 0a 05 	lds	r24, 0x050A
    226c:	90 91 0b 05 	lds	r25, 0x050B
    2270:	99 27       	eor	r25, r25
    2272:	90 93 0b 05 	sts	0x050B, r25
    2276:	80 93 0a 05 	sts	0x050A, r24
    227a:	80 91 0a 05 	lds	r24, 0x050A
    227e:	90 91 0b 05 	lds	r25, 0x050B
    2282:	20 91 56 02 	lds	r18, 0x0256
    2286:	92 2b       	or	r25, r18
    2288:	90 93 0b 05 	sts	0x050B, r25
    228c:	80 93 0a 05 	sts	0x050A, r24
    2290:	52 cf       	rjmp	.-348    	; 0x2136 <__vector_18+0x268>
    2292:	80 91 10 01 	lds	r24, 0x0110
    2296:	88 30       	cpi	r24, 0x08	; 8
    2298:	08 f4       	brcc	.+2      	; 0x229c <__vector_18+0x3ce>
    229a:	ec c0       	rjmp	.+472    	; 0x2474 <__vector_18+0x5a6>
    229c:	80 91 10 01 	lds	r24, 0x0110
    22a0:	8c 30       	cpi	r24, 0x0C	; 12
    22a2:	08 f0       	brcs	.+2      	; 0x22a6 <__vector_18+0x3d8>
    22a4:	ef ce       	rjmp	.-546    	; 0x2084 <__vector_18+0x1b6>
    22a6:	80 91 f5 04 	lds	r24, 0x04F5
    22aa:	90 91 f6 04 	lds	r25, 0x04F6
    22ae:	a0 91 f7 04 	lds	r26, 0x04F7
    22b2:	b0 91 f8 04 	lds	r27, 0x04F8
    22b6:	89 2f       	mov	r24, r25
    22b8:	9a 2f       	mov	r25, r26
    22ba:	ab 2f       	mov	r26, r27
    22bc:	bb 27       	eor	r27, r27
    22be:	a7 fd       	sbrc	r26, 7
    22c0:	ba 95       	dec	r27
    22c2:	80 93 f5 04 	sts	0x04F5, r24
    22c6:	90 93 f6 04 	sts	0x04F6, r25
    22ca:	a0 93 f7 04 	sts	0x04F7, r26
    22ce:	b0 93 f8 04 	sts	0x04F8, r27
    22d2:	80 91 f5 04 	lds	r24, 0x04F5
    22d6:	90 91 f6 04 	lds	r25, 0x04F6
    22da:	a0 91 f7 04 	lds	r26, 0x04F7
    22de:	b0 91 f8 04 	lds	r27, 0x04F8
    22e2:	bb 27       	eor	r27, r27
    22e4:	80 93 f5 04 	sts	0x04F5, r24
    22e8:	90 93 f6 04 	sts	0x04F6, r25
    22ec:	a0 93 f7 04 	sts	0x04F7, r26
    22f0:	b0 93 f8 04 	sts	0x04F8, r27
    22f4:	80 91 f5 04 	lds	r24, 0x04F5
    22f8:	90 91 f6 04 	lds	r25, 0x04F6
    22fc:	a0 91 f7 04 	lds	r26, 0x04F7
    2300:	b0 91 f8 04 	lds	r27, 0x04F8
    2304:	20 91 56 02 	lds	r18, 0x0256
    2308:	b2 2b       	or	r27, r18
    230a:	80 93 f5 04 	sts	0x04F5, r24
    230e:	90 93 f6 04 	sts	0x04F6, r25
    2312:	a0 93 f7 04 	sts	0x04F7, r26
    2316:	b0 93 f8 04 	sts	0x04F8, r27
    231a:	b4 ce       	rjmp	.-664    	; 0x2084 <__vector_18+0x1b6>
    231c:	80 91 11 01 	lds	r24, 0x0111
    2320:	88 30       	cpi	r24, 0x08	; 8
    2322:	08 f4       	brcc	.+2      	; 0x2326 <__vector_18+0x458>
    2324:	1d c1       	rjmp	.+570    	; 0x2560 <__vector_18+0x692>
    2326:	80 91 11 01 	lds	r24, 0x0111
    232a:	8c 30       	cpi	r24, 0x0C	; 12
    232c:	08 f0       	brcs	.+2      	; 0x2330 <__vector_18+0x462>
    232e:	5c ce       	rjmp	.-840    	; 0x1fe8 <__vector_18+0x11a>
    2330:	80 91 e9 04 	lds	r24, 0x04E9
    2334:	90 91 ea 04 	lds	r25, 0x04EA
    2338:	a0 91 eb 04 	lds	r26, 0x04EB
    233c:	b0 91 ec 04 	lds	r27, 0x04EC
    2340:	89 2f       	mov	r24, r25
    2342:	9a 2f       	mov	r25, r26
    2344:	ab 2f       	mov	r26, r27
    2346:	bb 27       	eor	r27, r27
    2348:	a7 fd       	sbrc	r26, 7
    234a:	ba 95       	dec	r27
    234c:	80 93 e9 04 	sts	0x04E9, r24
    2350:	90 93 ea 04 	sts	0x04EA, r25
    2354:	a0 93 eb 04 	sts	0x04EB, r26
    2358:	b0 93 ec 04 	sts	0x04EC, r27
    235c:	80 91 e9 04 	lds	r24, 0x04E9
    2360:	90 91 ea 04 	lds	r25, 0x04EA
    2364:	a0 91 eb 04 	lds	r26, 0x04EB
    2368:	b0 91 ec 04 	lds	r27, 0x04EC
    236c:	bb 27       	eor	r27, r27
    236e:	80 93 e9 04 	sts	0x04E9, r24
    2372:	90 93 ea 04 	sts	0x04EA, r25
    2376:	a0 93 eb 04 	sts	0x04EB, r26
    237a:	b0 93 ec 04 	sts	0x04EC, r27
    237e:	80 91 e9 04 	lds	r24, 0x04E9
    2382:	90 91 ea 04 	lds	r25, 0x04EA
    2386:	a0 91 eb 04 	lds	r26, 0x04EB
    238a:	b0 91 ec 04 	lds	r27, 0x04EC
    238e:	20 91 56 02 	lds	r18, 0x0256
    2392:	b2 2b       	or	r27, r18
    2394:	80 93 e9 04 	sts	0x04E9, r24
    2398:	90 93 ea 04 	sts	0x04EA, r25
    239c:	a0 93 eb 04 	sts	0x04EB, r26
    23a0:	b0 93 ec 04 	sts	0x04EC, r27
    23a4:	21 ce       	rjmp	.-958    	; 0x1fe8 <__vector_18+0x11a>
    23a6:	80 91 0e 01 	lds	r24, 0x010E
    23aa:	88 30       	cpi	r24, 0x08	; 8
    23ac:	08 f4       	brcc	.+2      	; 0x23b0 <__vector_18+0x4e2>
    23ae:	9d c0       	rjmp	.+314    	; 0x24ea <__vector_18+0x61c>
    23b0:	80 91 0e 01 	lds	r24, 0x010E
    23b4:	8c 30       	cpi	r24, 0x0C	; 12
    23b6:	08 f0       	brcs	.+2      	; 0x23ba <__vector_18+0x4ec>
    23b8:	19 c1       	rjmp	.+562    	; 0x25ec <__vector_18+0x71e>
    23ba:	80 91 fd 04 	lds	r24, 0x04FD
    23be:	90 91 fe 04 	lds	r25, 0x04FE
    23c2:	a0 91 ff 04 	lds	r26, 0x04FF
    23c6:	b0 91 00 05 	lds	r27, 0x0500
    23ca:	89 2f       	mov	r24, r25
    23cc:	9a 2f       	mov	r25, r26
    23ce:	ab 2f       	mov	r26, r27
    23d0:	bb 27       	eor	r27, r27
    23d2:	a7 fd       	sbrc	r26, 7
    23d4:	ba 95       	dec	r27
    23d6:	80 93 fd 04 	sts	0x04FD, r24
    23da:	90 93 fe 04 	sts	0x04FE, r25
    23de:	a0 93 ff 04 	sts	0x04FF, r26
    23e2:	b0 93 00 05 	sts	0x0500, r27
    23e6:	80 91 fd 04 	lds	r24, 0x04FD
    23ea:	90 91 fe 04 	lds	r25, 0x04FE
    23ee:	a0 91 ff 04 	lds	r26, 0x04FF
    23f2:	b0 91 00 05 	lds	r27, 0x0500
    23f6:	bb 27       	eor	r27, r27
    23f8:	80 93 fd 04 	sts	0x04FD, r24
    23fc:	90 93 fe 04 	sts	0x04FE, r25
    2400:	a0 93 ff 04 	sts	0x04FF, r26
    2404:	b0 93 00 05 	sts	0x0500, r27
    2408:	80 91 fd 04 	lds	r24, 0x04FD
    240c:	90 91 fe 04 	lds	r25, 0x04FE
    2410:	a0 91 ff 04 	lds	r26, 0x04FF
    2414:	b0 91 00 05 	lds	r27, 0x0500
    2418:	20 91 56 02 	lds	r18, 0x0256
    241c:	b2 2b       	or	r27, r18
    241e:	80 93 fd 04 	sts	0x04FD, r24
    2422:	90 93 fe 04 	sts	0x04FE, r25
    2426:	a0 93 ff 04 	sts	0x04FF, r26
    242a:	b0 93 00 05 	sts	0x0500, r27
    242e:	6d ce       	rjmp	.-806    	; 0x210a <__vector_18+0x23c>
    2430:	10 92 55 02 	sts	0x0255, r1
    2434:	10 92 11 01 	sts	0x0111, r1
    2438:	ce ce       	rjmp	.-612    	; 0x21d6 <__vector_18+0x308>
    243a:	10 92 10 01 	sts	0x0110, r1
    243e:	cb ce       	rjmp	.-618    	; 0x21d6 <__vector_18+0x308>
    2440:	10 92 0f 01 	sts	0x010F, r1
    2444:	c8 ce       	rjmp	.-624    	; 0x21d6 <__vector_18+0x308>
    2446:	8f ef       	ldi	r24, 0xFF	; 255
    2448:	80 93 0e 01 	sts	0x010E, r24
    244c:	68 ce       	rjmp	.-816    	; 0x211e <__vector_18+0x250>
    244e:	8f ef       	ldi	r24, 0xFF	; 255
    2450:	80 93 0f 01 	sts	0x010F, r24
    2454:	51 ce       	rjmp	.-862    	; 0x20f8 <__vector_18+0x22a>
    2456:	8f ef       	ldi	r24, 0xFF	; 255
    2458:	80 93 11 01 	sts	0x0111, r24
    245c:	cf cd       	rjmp	.-1122   	; 0x1ffc <__vector_18+0x12e>
    245e:	8f ef       	ldi	r24, 0xFF	; 255
    2460:	80 93 10 01 	sts	0x0110, r24
    2464:	19 ce       	rjmp	.-974    	; 0x2098 <__vector_18+0x1ca>
    2466:	8f ef       	ldi	r24, 0xFF	; 255
    2468:	80 93 0d 01 	sts	0x010D, r24
    246c:	81 e0       	ldi	r24, 0x01	; 1
    246e:	80 93 55 02 	sts	0x0255, r24
    2472:	6b ce       	rjmp	.-810    	; 0x214a <__vector_18+0x27c>
    2474:	80 91 f1 04 	lds	r24, 0x04F1
    2478:	90 91 f2 04 	lds	r25, 0x04F2
    247c:	a0 91 f3 04 	lds	r26, 0x04F3
    2480:	b0 91 f4 04 	lds	r27, 0x04F4
    2484:	89 2f       	mov	r24, r25
    2486:	9a 2f       	mov	r25, r26
    2488:	ab 2f       	mov	r26, r27
    248a:	bb 27       	eor	r27, r27
    248c:	a7 fd       	sbrc	r26, 7
    248e:	ba 95       	dec	r27
    2490:	80 93 f1 04 	sts	0x04F1, r24
    2494:	90 93 f2 04 	sts	0x04F2, r25
    2498:	a0 93 f3 04 	sts	0x04F3, r26
    249c:	b0 93 f4 04 	sts	0x04F4, r27
    24a0:	80 91 f1 04 	lds	r24, 0x04F1
    24a4:	90 91 f2 04 	lds	r25, 0x04F2
    24a8:	a0 91 f3 04 	lds	r26, 0x04F3
    24ac:	b0 91 f4 04 	lds	r27, 0x04F4
    24b0:	bb 27       	eor	r27, r27
    24b2:	80 93 f1 04 	sts	0x04F1, r24
    24b6:	90 93 f2 04 	sts	0x04F2, r25
    24ba:	a0 93 f3 04 	sts	0x04F3, r26
    24be:	b0 93 f4 04 	sts	0x04F4, r27
    24c2:	80 91 f1 04 	lds	r24, 0x04F1
    24c6:	90 91 f2 04 	lds	r25, 0x04F2
    24ca:	a0 91 f3 04 	lds	r26, 0x04F3
    24ce:	b0 91 f4 04 	lds	r27, 0x04F4
    24d2:	20 91 56 02 	lds	r18, 0x0256
    24d6:	b2 2b       	or	r27, r18
    24d8:	80 93 f1 04 	sts	0x04F1, r24
    24dc:	90 93 f2 04 	sts	0x04F2, r25
    24e0:	a0 93 f3 04 	sts	0x04F3, r26
    24e4:	b0 93 f4 04 	sts	0x04F4, r27
    24e8:	cd cd       	rjmp	.-1126   	; 0x2084 <__vector_18+0x1b6>
    24ea:	80 91 f9 04 	lds	r24, 0x04F9
    24ee:	90 91 fa 04 	lds	r25, 0x04FA
    24f2:	a0 91 fb 04 	lds	r26, 0x04FB
    24f6:	b0 91 fc 04 	lds	r27, 0x04FC
    24fa:	89 2f       	mov	r24, r25
    24fc:	9a 2f       	mov	r25, r26
    24fe:	ab 2f       	mov	r26, r27
    2500:	bb 27       	eor	r27, r27
    2502:	a7 fd       	sbrc	r26, 7
    2504:	ba 95       	dec	r27
    2506:	80 93 f9 04 	sts	0x04F9, r24
    250a:	90 93 fa 04 	sts	0x04FA, r25
    250e:	a0 93 fb 04 	sts	0x04FB, r26
    2512:	b0 93 fc 04 	sts	0x04FC, r27
    2516:	80 91 f9 04 	lds	r24, 0x04F9
    251a:	90 91 fa 04 	lds	r25, 0x04FA
    251e:	a0 91 fb 04 	lds	r26, 0x04FB
    2522:	b0 91 fc 04 	lds	r27, 0x04FC
    2526:	bb 27       	eor	r27, r27
    2528:	80 93 f9 04 	sts	0x04F9, r24
    252c:	90 93 fa 04 	sts	0x04FA, r25
    2530:	a0 93 fb 04 	sts	0x04FB, r26
    2534:	b0 93 fc 04 	sts	0x04FC, r27
    2538:	80 91 f9 04 	lds	r24, 0x04F9
    253c:	90 91 fa 04 	lds	r25, 0x04FA
    2540:	a0 91 fb 04 	lds	r26, 0x04FB
    2544:	b0 91 fc 04 	lds	r27, 0x04FC
    2548:	20 91 56 02 	lds	r18, 0x0256
    254c:	b2 2b       	or	r27, r18
    254e:	80 93 f9 04 	sts	0x04F9, r24
    2552:	90 93 fa 04 	sts	0x04FA, r25
    2556:	a0 93 fb 04 	sts	0x04FB, r26
    255a:	b0 93 fc 04 	sts	0x04FC, r27
    255e:	d5 cd       	rjmp	.-1110   	; 0x210a <__vector_18+0x23c>
    2560:	80 91 e5 04 	lds	r24, 0x04E5
    2564:	90 91 e6 04 	lds	r25, 0x04E6
    2568:	a0 91 e7 04 	lds	r26, 0x04E7
    256c:	b0 91 e8 04 	lds	r27, 0x04E8
    2570:	89 2f       	mov	r24, r25
    2572:	9a 2f       	mov	r25, r26
    2574:	ab 2f       	mov	r26, r27
    2576:	bb 27       	eor	r27, r27
    2578:	a7 fd       	sbrc	r26, 7
    257a:	ba 95       	dec	r27
    257c:	80 93 e5 04 	sts	0x04E5, r24
    2580:	90 93 e6 04 	sts	0x04E6, r25
    2584:	a0 93 e7 04 	sts	0x04E7, r26
    2588:	b0 93 e8 04 	sts	0x04E8, r27
    258c:	80 91 e5 04 	lds	r24, 0x04E5
    2590:	90 91 e6 04 	lds	r25, 0x04E6
    2594:	a0 91 e7 04 	lds	r26, 0x04E7
    2598:	b0 91 e8 04 	lds	r27, 0x04E8
    259c:	bb 27       	eor	r27, r27
    259e:	80 93 e5 04 	sts	0x04E5, r24
    25a2:	90 93 e6 04 	sts	0x04E6, r25
    25a6:	a0 93 e7 04 	sts	0x04E7, r26
    25aa:	b0 93 e8 04 	sts	0x04E8, r27
    25ae:	80 91 e5 04 	lds	r24, 0x04E5
    25b2:	90 91 e6 04 	lds	r25, 0x04E6
    25b6:	a0 91 e7 04 	lds	r26, 0x04E7
    25ba:	b0 91 e8 04 	lds	r27, 0x04E8
    25be:	20 91 56 02 	lds	r18, 0x0256
    25c2:	b2 2b       	or	r27, r18
    25c4:	80 93 e5 04 	sts	0x04E5, r24
    25c8:	90 93 e6 04 	sts	0x04E6, r25
    25cc:	a0 93 e7 04 	sts	0x04E7, r26
    25d0:	b0 93 e8 04 	sts	0x04E8, r27
    25d4:	09 cd       	rjmp	.-1518   	; 0x1fe8 <__vector_18+0x11a>
    25d6:	10 92 0d 01 	sts	0x010D, r1
    25da:	fd cd       	rjmp	.-1030   	; 0x21d6 <__vector_18+0x308>
    25dc:	80 91 56 02 	lds	r24, 0x0256
    25e0:	80 93 06 05 	sts	0x0506, r24
    25e4:	a8 cd       	rjmp	.-1200   	; 0x2136 <__vector_18+0x268>
    25e6:	10 92 0e 01 	sts	0x010E, r1
    25ea:	f5 cd       	rjmp	.-1046   	; 0x21d6 <__vector_18+0x308>
    25ec:	80 91 0e 01 	lds	r24, 0x010E
    25f0:	80 31       	cpi	r24, 0x10	; 16
    25f2:	08 f0       	brcs	.+2      	; 0x25f6 <__vector_18+0x728>
    25f4:	8a cd       	rjmp	.-1260   	; 0x210a <__vector_18+0x23c>
    25f6:	80 91 01 05 	lds	r24, 0x0501
    25fa:	90 91 02 05 	lds	r25, 0x0502
    25fe:	a0 91 03 05 	lds	r26, 0x0503
    2602:	b0 91 04 05 	lds	r27, 0x0504
    2606:	89 2f       	mov	r24, r25
    2608:	9a 2f       	mov	r25, r26
    260a:	ab 2f       	mov	r26, r27
    260c:	bb 27       	eor	r27, r27
    260e:	a7 fd       	sbrc	r26, 7
    2610:	ba 95       	dec	r27
    2612:	80 93 01 05 	sts	0x0501, r24
    2616:	90 93 02 05 	sts	0x0502, r25
    261a:	a0 93 03 05 	sts	0x0503, r26
    261e:	b0 93 04 05 	sts	0x0504, r27
    2622:	80 91 01 05 	lds	r24, 0x0501
    2626:	90 91 02 05 	lds	r25, 0x0502
    262a:	a0 91 03 05 	lds	r26, 0x0503
    262e:	b0 91 04 05 	lds	r27, 0x0504
    2632:	bb 27       	eor	r27, r27
    2634:	80 93 01 05 	sts	0x0501, r24
    2638:	90 93 02 05 	sts	0x0502, r25
    263c:	a0 93 03 05 	sts	0x0503, r26
    2640:	b0 93 04 05 	sts	0x0504, r27
    2644:	80 91 01 05 	lds	r24, 0x0501
    2648:	90 91 02 05 	lds	r25, 0x0502
    264c:	a0 91 03 05 	lds	r26, 0x0503
    2650:	b0 91 04 05 	lds	r27, 0x0504
    2654:	20 91 56 02 	lds	r18, 0x0256
    2658:	b2 2b       	or	r27, r18
    265a:	80 93 01 05 	sts	0x0501, r24
    265e:	90 93 02 05 	sts	0x0502, r25
    2662:	a0 93 03 05 	sts	0x0503, r26
    2666:	b0 93 04 05 	sts	0x0504, r27
    266a:	4f cd       	rjmp	.-1378   	; 0x210a <__vector_18+0x23c>
    266c:	80 91 56 02 	lds	r24, 0x0256
    2670:	80 93 07 05 	sts	0x0507, r24
    2674:	60 cd       	rjmp	.-1344   	; 0x2136 <__vector_18+0x268>
    2676:	80 91 56 02 	lds	r24, 0x0256
    267a:	80 93 08 05 	sts	0x0508, r24
    267e:	5b cd       	rjmp	.-1354   	; 0x2136 <__vector_18+0x268>
    2680:	80 91 56 02 	lds	r24, 0x0256
    2684:	80 93 09 05 	sts	0x0509, r24
    2688:	56 cd       	rjmp	.-1364   	; 0x2136 <__vector_18+0x268>

0000268a <igrf>:
    268a:	2f 92       	push	r2
    268c:	3f 92       	push	r3
    268e:	4f 92       	push	r4
    2690:	5f 92       	push	r5
    2692:	6f 92       	push	r6
    2694:	7f 92       	push	r7
    2696:	8f 92       	push	r8
    2698:	9f 92       	push	r9
    269a:	af 92       	push	r10
    269c:	bf 92       	push	r11
    269e:	cf 92       	push	r12
    26a0:	df 92       	push	r13
    26a2:	ef 92       	push	r14
    26a4:	ff 92       	push	r15
    26a6:	0f 93       	push	r16
    26a8:	1f 93       	push	r17
    26aa:	cf 93       	push	r28
    26ac:	df 93       	push	r29
    26ae:	cd b7       	in	r28, 0x3d	; 61
    26b0:	de b7       	in	r29, 0x3e	; 62
    26b2:	c7 55       	subi	r28, 0x57	; 87
    26b4:	d1 09       	sbc	r29, r1
    26b6:	0f b6       	in	r0, 0x3f	; 63
    26b8:	f8 94       	cli
    26ba:	de bf       	out	0x3e, r29	; 62
    26bc:	0f be       	out	0x3f, r0	; 63
    26be:	cd bf       	out	0x3d, r28	; 61
    26c0:	fc 01       	movw	r30, r24
    26c2:	49 87       	std	Y+9, r20	; 0x09
    26c4:	5a 87       	std	Y+10, r21	; 0x0a
    26c6:	6b 87       	std	Y+11, r22	; 0x0b
    26c8:	7c 87       	std	Y+12, r23	; 0x0c
    26ca:	32 2e       	mov	r3, r18
    26cc:	66 96       	adiw	r28, 0x16	; 22
    26ce:	1f af       	std	Y+63, r17	; 0x3f
    26d0:	0e af       	std	Y+62, r16	; 0x3e
    26d2:	66 97       	sbiw	r28, 0x16	; 22
    26d4:	80 80       	ld	r8, Z
    26d6:	91 80       	ldd	r9, Z+1	; 0x01
    26d8:	a2 80       	ldd	r10, Z+2	; 0x02
    26da:	b3 80       	ldd	r11, Z+3	; 0x03
    26dc:	c4 80       	ldd	r12, Z+4	; 0x04
    26de:	d5 80       	ldd	r13, Z+5	; 0x05
    26e0:	e6 80       	ldd	r14, Z+6	; 0x06
    26e2:	f7 80       	ldd	r15, Z+7	; 0x07
    26e4:	20 e0       	ldi	r18, 0x00	; 0
    26e6:	30 e0       	ldi	r19, 0x00	; 0
    26e8:	4a e7       	ldi	r20, 0x7A	; 122
    26ea:	54 e4       	ldi	r21, 0x44	; 68
    26ec:	60 85       	ldd	r22, Z+8	; 0x08
    26ee:	71 85       	ldd	r23, Z+9	; 0x09
    26f0:	82 85       	ldd	r24, Z+10	; 0x0a
    26f2:	93 85       	ldd	r25, Z+11	; 0x0b
    26f4:	0e 94 7c 2a 	call	0x54f8	; 0x54f8 <__divsf3>
    26f8:	6d 87       	std	Y+13, r22	; 0x0d
    26fa:	7e 87       	std	Y+14, r23	; 0x0e
    26fc:	8f 87       	std	Y+15, r24	; 0x0f
    26fe:	98 8b       	std	Y+16, r25	; 0x10
    2700:	c5 01       	movw	r24, r10
    2702:	b4 01       	movw	r22, r8
    2704:	0e 94 44 2d 	call	0x5a88	; 0x5a88 <sin>
    2708:	2b 01       	movw	r4, r22
    270a:	3c 01       	movw	r6, r24
    270c:	c5 01       	movw	r24, r10
    270e:	b4 01       	movw	r22, r8
    2710:	0e 94 79 2a 	call	0x54f2	; 0x54f2 <cos>
    2714:	6d 83       	std	Y+5, r22	; 0x05
    2716:	7e 83       	std	Y+6, r23	; 0x06
    2718:	8f 83       	std	Y+7, r24	; 0x07
    271a:	98 87       	std	Y+8, r25	; 0x08
    271c:	20 e0       	ldi	r18, 0x00	; 0
    271e:	30 ee       	ldi	r19, 0xE0	; 224
    2720:	4b ef       	ldi	r20, 0xFB	; 251
    2722:	54 e4       	ldi	r21, 0x44	; 68
    2724:	69 85       	ldd	r22, Y+9	; 0x09
    2726:	7a 85       	ldd	r23, Y+10	; 0x0a
    2728:	8b 85       	ldd	r24, Y+11	; 0x0b
    272a:	9c 85       	ldd	r25, Y+12	; 0x0c
    272c:	0e 94 97 29 	call	0x532e	; 0x532e <__subsf3>
    2730:	23 96       	adiw	r28, 0x03	; 3
    2732:	6c af       	std	Y+60, r22	; 0x3c
    2734:	7d af       	std	Y+61, r23	; 0x3d
    2736:	8e af       	std	Y+62, r24	; 0x3e
    2738:	9f af       	std	Y+63, r25	; 0x3f
    273a:	23 97       	sbiw	r28, 0x03	; 3
    273c:	c7 01       	movw	r24, r14
    273e:	b6 01       	movw	r22, r12
    2740:	0e 94 79 2a 	call	0x54f2	; 0x54f2 <cos>
    2744:	60 93 9b 02 	sts	0x029B, r22
    2748:	70 93 9c 02 	sts	0x029C, r23
    274c:	80 93 9d 02 	sts	0x029D, r24
    2750:	90 93 9e 02 	sts	0x029E, r25
    2754:	c7 01       	movw	r24, r14
    2756:	b6 01       	movw	r22, r12
    2758:	0e 94 44 2d 	call	0x5a88	; 0x5a88 <sin>
    275c:	60 93 5f 02 	sts	0x025F, r22
    2760:	70 93 60 02 	sts	0x0260, r23
    2764:	80 93 61 02 	sts	0x0261, r24
    2768:	90 93 62 02 	sts	0x0262, r25
    276c:	2e e2       	ldi	r18, 0x2E	; 46
    276e:	3f e2       	ldi	r19, 0x2F	; 47
    2770:	4b e1       	ldi	r20, 0x1B	; 27
    2772:	5c e4       	ldi	r21, 0x4C	; 76
    2774:	6d 81       	ldd	r22, Y+5	; 0x05
    2776:	7e 81       	ldd	r23, Y+6	; 0x06
    2778:	8f 81       	ldd	r24, Y+7	; 0x07
    277a:	98 85       	ldd	r25, Y+8	; 0x08
    277c:	0e 94 95 2c 	call	0x592a	; 0x592a <__mulsf3>
    2780:	2d 81       	ldd	r18, Y+5	; 0x05
    2782:	3e 81       	ldd	r19, Y+6	; 0x06
    2784:	4f 81       	ldd	r20, Y+7	; 0x07
    2786:	58 85       	ldd	r21, Y+8	; 0x08
    2788:	0e 94 95 2c 	call	0x592a	; 0x592a <__mulsf3>
    278c:	4b 01       	movw	r8, r22
    278e:	5c 01       	movw	r10, r24
    2790:	2b e3       	ldi	r18, 0x3B	; 59
    2792:	35 e2       	ldi	r19, 0x25	; 37
    2794:	4a e1       	ldi	r20, 0x1A	; 26
    2796:	5c e4       	ldi	r21, 0x4C	; 76
    2798:	c3 01       	movw	r24, r6
    279a:	b2 01       	movw	r22, r4
    279c:	0e 94 95 2c 	call	0x592a	; 0x592a <__mulsf3>
    27a0:	a3 01       	movw	r20, r6
    27a2:	92 01       	movw	r18, r4
    27a4:	0e 94 95 2c 	call	0x592a	; 0x592a <__mulsf3>
    27a8:	6b 01       	movw	r12, r22
    27aa:	7c 01       	movw	r14, r24
    27ac:	9b 01       	movw	r18, r22
    27ae:	ac 01       	movw	r20, r24
    27b0:	c5 01       	movw	r24, r10
    27b2:	b4 01       	movw	r22, r8
    27b4:	0e 94 98 29 	call	0x5330	; 0x5330 <__addsf3>
    27b8:	69 8f       	std	Y+25, r22	; 0x19
    27ba:	7a 8f       	std	Y+26, r23	; 0x1a
    27bc:	8b 8f       	std	Y+27, r24	; 0x1b
    27be:	9c 8f       	std	Y+28, r25	; 0x1c
    27c0:	0e 94 4e 2d 	call	0x5a9c	; 0x5a9c <sqrt>
    27c4:	69 87       	std	Y+9, r22	; 0x09
    27c6:	7a 87       	std	Y+10, r23	; 0x0a
    27c8:	8b 87       	std	Y+11, r24	; 0x0b
    27ca:	9c 87       	std	Y+12, r25	; 0x0c
    27cc:	9b 01       	movw	r18, r22
    27ce:	ac 01       	movw	r20, r24
    27d0:	0e 94 98 29 	call	0x5330	; 0x5330 <__addsf3>
    27d4:	2d 85       	ldd	r18, Y+13	; 0x0d
    27d6:	3e 85       	ldd	r19, Y+14	; 0x0e
    27d8:	4f 85       	ldd	r20, Y+15	; 0x0f
    27da:	58 89       	ldd	r21, Y+16	; 0x10
    27dc:	0e 94 98 29 	call	0x5330	; 0x5330 <__addsf3>
    27e0:	2d 85       	ldd	r18, Y+13	; 0x0d
    27e2:	3e 85       	ldd	r19, Y+14	; 0x0e
    27e4:	4f 85       	ldd	r20, Y+15	; 0x0f
    27e6:	58 89       	ldd	r21, Y+16	; 0x10
    27e8:	0e 94 95 2c 	call	0x592a	; 0x592a <__mulsf3>
    27ec:	6d 8f       	std	Y+29, r22	; 0x1d
    27ee:	7e 8f       	std	Y+30, r23	; 0x1e
    27f0:	8f 8f       	std	Y+31, r24	; 0x1f
    27f2:	98 a3       	std	Y+32, r25	; 0x20
    27f4:	2e e2       	ldi	r18, 0x2E	; 46
    27f6:	3f e2       	ldi	r19, 0x2F	; 47
    27f8:	4b e1       	ldi	r20, 0x1B	; 27
    27fa:	5c e4       	ldi	r21, 0x4C	; 76
    27fc:	c5 01       	movw	r24, r10
    27fe:	b4 01       	movw	r22, r8
    2800:	0e 94 95 2c 	call	0x592a	; 0x592a <__mulsf3>
    2804:	4b 01       	movw	r8, r22
    2806:	5c 01       	movw	r10, r24
    2808:	2b e3       	ldi	r18, 0x3B	; 59
    280a:	35 e2       	ldi	r19, 0x25	; 37
    280c:	4a e1       	ldi	r20, 0x1A	; 26
    280e:	5c e4       	ldi	r21, 0x4C	; 76
    2810:	c7 01       	movw	r24, r14
    2812:	b6 01       	movw	r22, r12
    2814:	0e 94 95 2c 	call	0x592a	; 0x592a <__mulsf3>
    2818:	9b 01       	movw	r18, r22
    281a:	ac 01       	movw	r20, r24
    281c:	c5 01       	movw	r24, r10
    281e:	b4 01       	movw	r22, r8
    2820:	0e 94 98 29 	call	0x5330	; 0x5330 <__addsf3>
    2824:	29 8d       	ldd	r18, Y+25	; 0x19
    2826:	3a 8d       	ldd	r19, Y+26	; 0x1a
    2828:	4b 8d       	ldd	r20, Y+27	; 0x1b
    282a:	5c 8d       	ldd	r21, Y+28	; 0x1c
    282c:	0e 94 7c 2a 	call	0x54f8	; 0x54f8 <__divsf3>
    2830:	9b 01       	movw	r18, r22
    2832:	ac 01       	movw	r20, r24
    2834:	6d 8d       	ldd	r22, Y+29	; 0x1d
    2836:	7e 8d       	ldd	r23, Y+30	; 0x1e
    2838:	8f 8d       	ldd	r24, Y+31	; 0x1f
    283a:	98 a1       	ldd	r25, Y+32	; 0x20
    283c:	0e 94 98 29 	call	0x5330	; 0x5330 <__addsf3>
    2840:	0e 94 4e 2d 	call	0x5a9c	; 0x5a9c <sqrt>
    2844:	4b 01       	movw	r8, r22
    2846:	5c 01       	movw	r10, r24
    2848:	29 85       	ldd	r18, Y+9	; 0x09
    284a:	3a 85       	ldd	r19, Y+10	; 0x0a
    284c:	4b 85       	ldd	r20, Y+11	; 0x0b
    284e:	5c 85       	ldd	r21, Y+12	; 0x0c
    2850:	6d 85       	ldd	r22, Y+13	; 0x0d
    2852:	7e 85       	ldd	r23, Y+14	; 0x0e
    2854:	8f 85       	ldd	r24, Y+15	; 0x0f
    2856:	98 89       	ldd	r25, Y+16	; 0x10
    2858:	0e 94 98 29 	call	0x5330	; 0x5330 <__addsf3>
    285c:	a5 01       	movw	r20, r10
    285e:	94 01       	movw	r18, r8
    2860:	0e 94 7c 2a 	call	0x54f8	; 0x54f8 <__divsf3>
    2864:	60 96       	adiw	r28, 0x10	; 16
    2866:	6c af       	std	Y+60, r22	; 0x3c
    2868:	7d af       	std	Y+61, r23	; 0x3d
    286a:	8e af       	std	Y+62, r24	; 0x3e
    286c:	9f af       	std	Y+63, r25	; 0x3f
    286e:	60 97       	sbiw	r28, 0x10	; 16
    2870:	20 e8       	ldi	r18, 0x80	; 128
    2872:	39 ef       	ldi	r19, 0xF9	; 249
    2874:	44 e8       	ldi	r20, 0x84	; 132
    2876:	58 e4       	ldi	r21, 0x48	; 72
    2878:	c3 01       	movw	r24, r6
    287a:	b2 01       	movw	r22, r4
    287c:	0e 94 95 2c 	call	0x592a	; 0x592a <__mulsf3>
    2880:	2d 81       	ldd	r18, Y+5	; 0x05
    2882:	3e 81       	ldd	r19, Y+6	; 0x06
    2884:	4f 81       	ldd	r20, Y+7	; 0x07
    2886:	58 85       	ldd	r21, Y+8	; 0x08
    2888:	0e 94 95 2c 	call	0x592a	; 0x592a <__mulsf3>
    288c:	6b 01       	movw	r12, r22
    288e:	7c 01       	movw	r14, r24
    2890:	a5 01       	movw	r20, r10
    2892:	94 01       	movw	r18, r8
    2894:	69 85       	ldd	r22, Y+9	; 0x09
    2896:	7a 85       	ldd	r23, Y+10	; 0x0a
    2898:	8b 85       	ldd	r24, Y+11	; 0x0b
    289a:	9c 85       	ldd	r25, Y+12	; 0x0c
    289c:	0e 94 95 2c 	call	0x592a	; 0x592a <__mulsf3>
    28a0:	9b 01       	movw	r18, r22
    28a2:	ac 01       	movw	r20, r24
    28a4:	c7 01       	movw	r24, r14
    28a6:	b6 01       	movw	r22, r12
    28a8:	0e 94 7c 2a 	call	0x54f8	; 0x54f8 <__divsf3>
    28ac:	64 96       	adiw	r28, 0x14	; 20
    28ae:	6c af       	std	Y+60, r22	; 0x3c
    28b0:	7d af       	std	Y+61, r23	; 0x3d
    28b2:	8e af       	std	Y+62, r24	; 0x3e
    28b4:	9f af       	std	Y+63, r25	; 0x3f
    28b6:	64 97       	sbiw	r28, 0x14	; 20
    28b8:	60 96       	adiw	r28, 0x10	; 16
    28ba:	2c ad       	ldd	r18, Y+60	; 0x3c
    28bc:	3d ad       	ldd	r19, Y+61	; 0x3d
    28be:	4e ad       	ldd	r20, Y+62	; 0x3e
    28c0:	5f ad       	ldd	r21, Y+63	; 0x3f
    28c2:	60 97       	sbiw	r28, 0x10	; 16
    28c4:	c3 01       	movw	r24, r6
    28c6:	b2 01       	movw	r22, r4
    28c8:	0e 94 95 2c 	call	0x592a	; 0x592a <__mulsf3>
    28cc:	6b 01       	movw	r12, r22
    28ce:	7c 01       	movw	r14, r24
    28d0:	64 96       	adiw	r28, 0x14	; 20
    28d2:	2c ad       	ldd	r18, Y+60	; 0x3c
    28d4:	3d ad       	ldd	r19, Y+61	; 0x3d
    28d6:	4e ad       	ldd	r20, Y+62	; 0x3e
    28d8:	5f ad       	ldd	r21, Y+63	; 0x3f
    28da:	64 97       	sbiw	r28, 0x14	; 20
    28dc:	6d 81       	ldd	r22, Y+5	; 0x05
    28de:	7e 81       	ldd	r23, Y+6	; 0x06
    28e0:	8f 81       	ldd	r24, Y+7	; 0x07
    28e2:	98 85       	ldd	r25, Y+8	; 0x08
    28e4:	0e 94 95 2c 	call	0x592a	; 0x592a <__mulsf3>
    28e8:	9b 01       	movw	r18, r22
    28ea:	ac 01       	movw	r20, r24
    28ec:	c7 01       	movw	r24, r14
    28ee:	b6 01       	movw	r22, r12
    28f0:	0e 94 97 29 	call	0x532e	; 0x532e <__subsf3>
    28f4:	6a a7       	std	Y+42, r22	; 0x2a
    28f6:	7b a7       	std	Y+43, r23	; 0x2b
    28f8:	8c a7       	std	Y+44, r24	; 0x2c
    28fa:	9d a7       	std	Y+45, r25	; 0x2d
    28fc:	60 96       	adiw	r28, 0x10	; 16
    28fe:	2c ad       	ldd	r18, Y+60	; 0x3c
    2900:	3d ad       	ldd	r19, Y+61	; 0x3d
    2902:	4e ad       	ldd	r20, Y+62	; 0x3e
    2904:	5f ad       	ldd	r21, Y+63	; 0x3f
    2906:	60 97       	sbiw	r28, 0x10	; 16
    2908:	6d 81       	ldd	r22, Y+5	; 0x05
    290a:	7e 81       	ldd	r23, Y+6	; 0x06
    290c:	8f 81       	ldd	r24, Y+7	; 0x07
    290e:	98 85       	ldd	r25, Y+8	; 0x08
    2910:	0e 94 95 2c 	call	0x592a	; 0x592a <__mulsf3>
    2914:	6b 01       	movw	r12, r22
    2916:	7c 01       	movw	r14, r24
    2918:	64 96       	adiw	r28, 0x14	; 20
    291a:	2c ad       	ldd	r18, Y+60	; 0x3c
    291c:	3d ad       	ldd	r19, Y+61	; 0x3d
    291e:	4e ad       	ldd	r20, Y+62	; 0x3e
    2920:	5f ad       	ldd	r21, Y+63	; 0x3f
    2922:	64 97       	sbiw	r28, 0x14	; 20
    2924:	c3 01       	movw	r24, r6
    2926:	b2 01       	movw	r22, r4
    2928:	0e 94 95 2c 	call	0x592a	; 0x592a <__mulsf3>
    292c:	9b 01       	movw	r18, r22
    292e:	ac 01       	movw	r20, r24
    2930:	c7 01       	movw	r24, r14
    2932:	b6 01       	movw	r22, r12
    2934:	0e 94 98 29 	call	0x5330	; 0x5330 <__addsf3>
    2938:	6e a3       	std	Y+38, r22	; 0x26
    293a:	7f a3       	std	Y+39, r23	; 0x27
    293c:	88 a7       	std	Y+40, r24	; 0x28
    293e:	99 a7       	std	Y+41, r25	; 0x29
    2940:	2a a5       	ldd	r18, Y+42	; 0x2a
    2942:	3b a5       	ldd	r19, Y+43	; 0x2b
    2944:	4c a5       	ldd	r20, Y+44	; 0x2c
    2946:	5d a5       	ldd	r21, Y+45	; 0x2d
    2948:	ca 01       	movw	r24, r20
    294a:	b9 01       	movw	r22, r18
    294c:	0e 94 98 29 	call	0x5330	; 0x5330 <__addsf3>
    2950:	60 93 9f 03 	sts	0x039F, r22
    2954:	70 93 a0 03 	sts	0x03A0, r23
    2958:	80 93 a1 03 	sts	0x03A1, r24
    295c:	90 93 a2 03 	sts	0x03A2, r25
    2960:	2e a1       	ldd	r18, Y+38	; 0x26
    2962:	3f a1       	ldd	r19, Y+39	; 0x27
    2964:	48 a5       	ldd	r20, Y+40	; 0x28
    2966:	59 a5       	ldd	r21, Y+41	; 0x29
    2968:	ca 01       	movw	r24, r20
    296a:	b9 01       	movw	r22, r18
    296c:	0e 94 98 29 	call	0x5330	; 0x5330 <__addsf3>
    2970:	60 93 a3 03 	sts	0x03A3, r22
    2974:	70 93 a4 03 	sts	0x03A4, r23
    2978:	80 93 a5 03 	sts	0x03A5, r24
    297c:	90 93 a6 03 	sts	0x03A6, r25
    2980:	20 e0       	ldi	r18, 0x00	; 0
    2982:	30 e0       	ldi	r19, 0x00	; 0
    2984:	40 e9       	ldi	r20, 0x90	; 144
    2986:	50 e4       	ldi	r21, 0x40	; 64
    2988:	6a a5       	ldd	r22, Y+42	; 0x2a
    298a:	7b a5       	ldd	r23, Y+43	; 0x2b
    298c:	8c a5       	ldd	r24, Y+44	; 0x2c
    298e:	9d a5       	ldd	r25, Y+45	; 0x2d
    2990:	0e 94 95 2c 	call	0x592a	; 0x592a <__mulsf3>
    2994:	2a a5       	ldd	r18, Y+42	; 0x2a
    2996:	3b a5       	ldd	r19, Y+43	; 0x2b
    2998:	4c a5       	ldd	r20, Y+44	; 0x2c
    299a:	5d a5       	ldd	r21, Y+45	; 0x2d
    299c:	0e 94 95 2c 	call	0x592a	; 0x592a <__mulsf3>
    29a0:	20 e0       	ldi	r18, 0x00	; 0
    29a2:	30 e0       	ldi	r19, 0x00	; 0
    29a4:	40 ec       	ldi	r20, 0xC0	; 192
    29a6:	5f e3       	ldi	r21, 0x3F	; 63
    29a8:	0e 94 97 29 	call	0x532e	; 0x532e <__subsf3>
    29ac:	60 93 a7 03 	sts	0x03A7, r22
    29b0:	70 93 a8 03 	sts	0x03A8, r23
    29b4:	80 93 a9 03 	sts	0x03A9, r24
    29b8:	90 93 aa 03 	sts	0x03AA, r25
    29bc:	21 ee       	ldi	r18, 0xE1	; 225
    29be:	36 e4       	ldi	r19, 0x46	; 70
    29c0:	46 ea       	ldi	r20, 0xA6	; 166
    29c2:	50 e4       	ldi	r21, 0x40	; 64
    29c4:	6e a1       	ldd	r22, Y+38	; 0x26
    29c6:	7f a1       	ldd	r23, Y+39	; 0x27
    29c8:	88 a5       	ldd	r24, Y+40	; 0x28
    29ca:	99 a5       	ldd	r25, Y+41	; 0x29
    29cc:	0e 94 95 2c 	call	0x592a	; 0x592a <__mulsf3>
    29d0:	2a a5       	ldd	r18, Y+42	; 0x2a
    29d2:	3b a5       	ldd	r19, Y+43	; 0x2b
    29d4:	4c a5       	ldd	r20, Y+44	; 0x2c
    29d6:	5d a5       	ldd	r21, Y+45	; 0x2d
    29d8:	0e 94 95 2c 	call	0x592a	; 0x592a <__mulsf3>
    29dc:	60 93 ab 03 	sts	0x03AB, r22
    29e0:	70 93 ac 03 	sts	0x03AC, r23
    29e4:	80 93 ad 03 	sts	0x03AD, r24
    29e8:	90 93 ae 03 	sts	0x03AE, r25
    29ec:	8e a1       	ldd	r24, Y+38	; 0x26
    29ee:	9f a1       	ldd	r25, Y+39	; 0x27
    29f0:	a8 a5       	ldd	r26, Y+40	; 0x28
    29f2:	b9 a5       	ldd	r27, Y+41	; 0x29
    29f4:	b0 58       	subi	r27, 0x80	; 128
    29f6:	80 93 d7 02 	sts	0x02D7, r24
    29fa:	90 93 d8 02 	sts	0x02D8, r25
    29fe:	a0 93 d9 02 	sts	0x02D9, r26
    2a02:	b0 93 da 02 	sts	0x02DA, r27
    2a06:	2a a5       	ldd	r18, Y+42	; 0x2a
    2a08:	3b a5       	ldd	r19, Y+43	; 0x2b
    2a0a:	4c a5       	ldd	r20, Y+44	; 0x2c
    2a0c:	5d a5       	ldd	r21, Y+45	; 0x2d
    2a0e:	20 93 db 02 	sts	0x02DB, r18
    2a12:	30 93 dc 02 	sts	0x02DC, r19
    2a16:	40 93 dd 02 	sts	0x02DD, r20
    2a1a:	50 93 de 02 	sts	0x02DE, r21
    2a1e:	20 e0       	ldi	r18, 0x00	; 0
    2a20:	30 e0       	ldi	r19, 0x00	; 0
    2a22:	40 e4       	ldi	r20, 0x40	; 64
    2a24:	50 ec       	ldi	r21, 0xC0	; 192
    2a26:	6e a1       	ldd	r22, Y+38	; 0x26
    2a28:	7f a1       	ldd	r23, Y+39	; 0x27
    2a2a:	88 a5       	ldd	r24, Y+40	; 0x28
    2a2c:	99 a5       	ldd	r25, Y+41	; 0x29
    2a2e:	0e 94 95 2c 	call	0x592a	; 0x592a <__mulsf3>
    2a32:	2a a5       	ldd	r18, Y+42	; 0x2a
    2a34:	3b a5       	ldd	r19, Y+43	; 0x2b
    2a36:	4c a5       	ldd	r20, Y+44	; 0x2c
    2a38:	5d a5       	ldd	r21, Y+45	; 0x2d
    2a3a:	0e 94 95 2c 	call	0x592a	; 0x592a <__mulsf3>
    2a3e:	60 93 df 02 	sts	0x02DF, r22
    2a42:	70 93 e0 02 	sts	0x02E0, r23
    2a46:	80 93 e1 02 	sts	0x02E1, r24
    2a4a:	90 93 e2 02 	sts	0x02E2, r25
    2a4e:	2a a5       	ldd	r18, Y+42	; 0x2a
    2a50:	3b a5       	ldd	r19, Y+43	; 0x2b
    2a52:	4c a5       	ldd	r20, Y+44	; 0x2c
    2a54:	5d a5       	ldd	r21, Y+45	; 0x2d
    2a56:	ca 01       	movw	r24, r20
    2a58:	b9 01       	movw	r22, r18
    2a5a:	0e 94 95 2c 	call	0x592a	; 0x592a <__mulsf3>
    2a5e:	6b 01       	movw	r12, r22
    2a60:	7c 01       	movw	r14, r24
    2a62:	2e a1       	ldd	r18, Y+38	; 0x26
    2a64:	3f a1       	ldd	r19, Y+39	; 0x27
    2a66:	48 a5       	ldd	r20, Y+40	; 0x28
    2a68:	59 a5       	ldd	r21, Y+41	; 0x29
    2a6a:	ca 01       	movw	r24, r20
    2a6c:	b9 01       	movw	r22, r18
    2a6e:	0e 94 95 2c 	call	0x592a	; 0x592a <__mulsf3>
    2a72:	9b 01       	movw	r18, r22
    2a74:	ac 01       	movw	r20, r24
    2a76:	c7 01       	movw	r24, r14
    2a78:	b6 01       	movw	r22, r12
    2a7a:	0e 94 97 29 	call	0x532e	; 0x532e <__subsf3>
    2a7e:	27 ed       	ldi	r18, 0xD7	; 215
    2a80:	33 eb       	ldi	r19, 0xB3	; 179
    2a82:	4d ed       	ldi	r20, 0xDD	; 221
    2a84:	5f e3       	ldi	r21, 0x3F	; 63
    2a86:	0e 94 95 2c 	call	0x592a	; 0x592a <__mulsf3>
    2a8a:	60 93 e3 02 	sts	0x02E3, r22
    2a8e:	70 93 e4 02 	sts	0x02E4, r23
    2a92:	80 93 e5 02 	sts	0x02E5, r24
    2a96:	90 93 e6 02 	sts	0x02E6, r25
    2a9a:	a5 01       	movw	r20, r10
    2a9c:	94 01       	movw	r18, r8
    2a9e:	6a e9       	ldi	r22, 0x9A	; 154
    2aa0:	79 e1       	ldi	r23, 0x19	; 25
    2aa2:	87 ec       	ldi	r24, 0xC7	; 199
    2aa4:	95 e4       	ldi	r25, 0x45	; 69
    2aa6:	0e 94 7c 2a 	call	0x54f8	; 0x54f8 <__divsf3>
    2aaa:	2c 96       	adiw	r28, 0x0c	; 12
    2aac:	6c af       	std	Y+60, r22	; 0x3c
    2aae:	7d af       	std	Y+61, r23	; 0x3d
    2ab0:	8e af       	std	Y+62, r24	; 0x3e
    2ab2:	9f af       	std	Y+63, r25	; 0x3f
    2ab4:	2c 97       	sbiw	r28, 0x0c	; 12
    2ab6:	43 2d       	mov	r20, r3
    2ab8:	50 e0       	ldi	r21, 0x00	; 0
    2aba:	9a 01       	movw	r18, r20
    2abc:	2d 5f       	subi	r18, 0xFD	; 253
    2abe:	3f 4f       	sbci	r19, 0xFF	; 255
    2ac0:	42 9f       	mul	r20, r18
    2ac2:	c0 01       	movw	r24, r0
    2ac4:	43 9f       	mul	r20, r19
    2ac6:	90 0d       	add	r25, r0
    2ac8:	52 9f       	mul	r21, r18
    2aca:	90 0d       	add	r25, r0
    2acc:	11 24       	eor	r1, r1
    2ace:	95 95       	asr	r25
    2ad0:	87 95       	ror	r24
    2ad2:	24 96       	adiw	r28, 0x04	; 4
    2ad4:	8f af       	std	Y+63, r24	; 0x3f
    2ad6:	24 97       	sbiw	r28, 0x04	; 4
    2ad8:	88 23       	and	r24, r24
    2ada:	09 f4       	brne	.+2      	; 0x2ade <igrf+0x454>
    2adc:	95 c4       	rjmp	.+2346   	; 0x3408 <igrf+0xd7e>
    2ade:	19 8e       	std	Y+25, r1	; 0x19
    2ae0:	31 e0       	ldi	r19, 0x01	; 1
    2ae2:	39 87       	std	Y+9, r19	; 0x09
    2ae4:	1d 86       	std	Y+13, r1	; 0x0d
    2ae6:	41 e0       	ldi	r20, 0x01	; 1
    2ae8:	49 a3       	std	Y+33, r20	; 0x21
    2aea:	51 e0       	ldi	r21, 0x01	; 1
    2aec:	5d 8f       	std	Y+29, r21	; 0x1d
    2aee:	1b ae       	std	Y+59, r1	; 0x3b
    2af0:	1c ae       	std	Y+60, r1	; 0x3c
    2af2:	1d ae       	std	Y+61, r1	; 0x3d
    2af4:	1e ae       	std	Y+62, r1	; 0x3e
    2af6:	1e aa       	std	Y+54, r1	; 0x36
    2af8:	1f aa       	std	Y+55, r1	; 0x37
    2afa:	18 ae       	std	Y+56, r1	; 0x38
    2afc:	19 ae       	std	Y+57, r1	; 0x39
    2afe:	28 96       	adiw	r28, 0x08	; 8
    2b00:	1c ae       	std	Y+60, r1	; 0x3c
    2b02:	1d ae       	std	Y+61, r1	; 0x3d
    2b04:	1e ae       	std	Y+62, r1	; 0x3e
    2b06:	1f ae       	std	Y+63, r1	; 0x3f
    2b08:	28 97       	sbiw	r28, 0x08	; 8
    2b0a:	1a aa       	std	Y+50, r1	; 0x32
    2b0c:	1b aa       	std	Y+51, r1	; 0x33
    2b0e:	1c aa       	std	Y+52, r1	; 0x34
    2b10:	1d aa       	std	Y+53, r1	; 0x35
    2b12:	93 c1       	rjmp	.+806    	; 0x2e3a <igrf+0x7b0>
    2b14:	8d 83       	std	Y+5, r24	; 0x05
    2b16:	a8 2f       	mov	r26, r24
    2b18:	af 5f       	subi	r26, 0xFF	; 255
    2b1a:	a9 a3       	std	Y+33, r26	; 0x21
    2b1c:	29 85       	ldd	r18, Y+9	; 0x09
    2b1e:	25 30       	cpi	r18, 0x05	; 5
    2b20:	08 f4       	brcc	.+2      	; 0x2b24 <igrf+0x49a>
    2b22:	81 c4       	rjmp	.+2306   	; 0x3426 <igrf+0xd9c>
    2b24:	3d 81       	ldd	r19, Y+5	; 0x05
    2b26:	4d 85       	ldd	r20, Y+13	; 0x0d
    2b28:	34 17       	cp	r19, r20
    2b2a:	09 f4       	brne	.+2      	; 0x2b2e <igrf+0x4a4>
    2b2c:	29 c3       	rjmp	.+1618   	; 0x3180 <igrf+0xaf6>
    2b2e:	fd 81       	ldd	r31, Y+5	; 0x05
    2b30:	ff 9f       	mul	r31, r31
    2b32:	80 01       	movw	r16, r0
    2b34:	11 24       	eor	r1, r1
    2b36:	29 8d       	ldd	r18, Y+25	; 0x19
    2b38:	22 9f       	mul	r18, r18
    2b3a:	b0 01       	movw	r22, r0
    2b3c:	11 24       	eor	r1, r1
    2b3e:	60 1b       	sub	r22, r16
    2b40:	71 0b       	sbc	r23, r17
    2b42:	88 27       	eor	r24, r24
    2b44:	77 fd       	sbrc	r23, 7
    2b46:	80 95       	com	r24
    2b48:	98 2f       	mov	r25, r24
    2b4a:	0e 94 12 2b 	call	0x5624	; 0x5624 <__floatsisf>
    2b4e:	0e 94 4e 2d 	call	0x5a9c	; 0x5a9c <sqrt>
    2b52:	4b 01       	movw	r8, r22
    2b54:	5c 01       	movw	r10, r24
    2b56:	39 8d       	ldd	r19, Y+25	; 0x19
    2b58:	63 2f       	mov	r22, r19
    2b5a:	70 e0       	ldi	r23, 0x00	; 0
    2b5c:	80 e0       	ldi	r24, 0x00	; 0
    2b5e:	90 e0       	ldi	r25, 0x00	; 0
    2b60:	0e 94 12 2b 	call	0x5624	; 0x5624 <__floatsisf>
    2b64:	2b 01       	movw	r4, r22
    2b66:	3c 01       	movw	r6, r24
    2b68:	20 e0       	ldi	r18, 0x00	; 0
    2b6a:	30 e0       	ldi	r19, 0x00	; 0
    2b6c:	40 e8       	ldi	r20, 0x80	; 128
    2b6e:	5f e3       	ldi	r21, 0x3F	; 63
    2b70:	0e 94 97 29 	call	0x532e	; 0x532e <__subsf3>
    2b74:	69 83       	std	Y+1, r22	; 0x01
    2b76:	7a 83       	std	Y+2, r23	; 0x02
    2b78:	8b 83       	std	Y+3, r24	; 0x03
    2b7a:	9c 83       	std	Y+4, r25	; 0x04
    2b7c:	9b 01       	movw	r18, r22
    2b7e:	ac 01       	movw	r20, r24
    2b80:	0e 94 95 2c 	call	0x592a	; 0x592a <__mulsf3>
    2b84:	6b 01       	movw	r12, r22
    2b86:	7c 01       	movw	r14, r24
    2b88:	b8 01       	movw	r22, r16
    2b8a:	88 27       	eor	r24, r24
    2b8c:	77 fd       	sbrc	r23, 7
    2b8e:	80 95       	com	r24
    2b90:	98 2f       	mov	r25, r24
    2b92:	0e 94 12 2b 	call	0x5624	; 0x5624 <__floatsisf>
    2b96:	9b 01       	movw	r18, r22
    2b98:	ac 01       	movw	r20, r24
    2b9a:	c7 01       	movw	r24, r14
    2b9c:	b6 01       	movw	r22, r12
    2b9e:	0e 94 97 29 	call	0x532e	; 0x532e <__subsf3>
    2ba2:	0e 94 4e 2d 	call	0x5a9c	; 0x5a9c <sqrt>
    2ba6:	a5 01       	movw	r20, r10
    2ba8:	94 01       	movw	r18, r8
    2baa:	0e 94 7c 2a 	call	0x54f8	; 0x54f8 <__divsf3>
    2bae:	6b 01       	movw	r12, r22
    2bb0:	7c 01       	movw	r14, r24
    2bb2:	a3 01       	movw	r20, r6
    2bb4:	92 01       	movw	r18, r4
    2bb6:	c3 01       	movw	r24, r6
    2bb8:	b2 01       	movw	r22, r4
    2bba:	0e 94 98 29 	call	0x5330	; 0x5330 <__addsf3>
    2bbe:	20 e0       	ldi	r18, 0x00	; 0
    2bc0:	30 e0       	ldi	r19, 0x00	; 0
    2bc2:	40 e8       	ldi	r20, 0x80	; 128
    2bc4:	5f e3       	ldi	r21, 0x3F	; 63
    2bc6:	0e 94 97 29 	call	0x532e	; 0x532e <__subsf3>
    2bca:	a5 01       	movw	r20, r10
    2bcc:	94 01       	movw	r18, r8
    2bce:	0e 94 7c 2a 	call	0x54f8	; 0x54f8 <__divsf3>
    2bd2:	6a a3       	std	Y+34, r22	; 0x22
    2bd4:	7b a3       	std	Y+35, r23	; 0x23
    2bd6:	8c a3       	std	Y+36, r24	; 0x24
    2bd8:	9d a3       	std	Y+37, r25	; 0x25
    2bda:	49 85       	ldd	r20, Y+9	; 0x09
    2bdc:	24 2f       	mov	r18, r20
    2bde:	30 e0       	ldi	r19, 0x00	; 0
    2be0:	5d 85       	ldd	r21, Y+13	; 0x0d
    2be2:	85 2f       	mov	r24, r21
    2be4:	90 e0       	ldi	r25, 0x00	; 0
    2be6:	3a 8b       	std	Y+18, r19	; 0x12
    2be8:	29 8b       	std	Y+17, r18	; 0x11
    2bea:	19 01       	movw	r2, r18
    2bec:	28 1a       	sub	r2, r24
    2bee:	39 0a       	sbc	r3, r25
    2bf0:	d1 01       	movw	r26, r2
    2bf2:	a8 1b       	sub	r26, r24
    2bf4:	b9 0b       	sbc	r27, r25
    2bf6:	11 96       	adiw	r26, 0x01	; 1
    2bf8:	68 96       	adiw	r28, 0x18	; 24
    2bfa:	bf af       	std	Y+63, r27	; 0x3f
    2bfc:	ae af       	std	Y+62, r26	; 0x3e
    2bfe:	68 97       	sbiw	r28, 0x18	; 24
    2c00:	20 e0       	ldi	r18, 0x00	; 0
    2c02:	30 e0       	ldi	r19, 0x00	; 0
    2c04:	40 e8       	ldi	r20, 0x80	; 128
    2c06:	5f e3       	ldi	r21, 0x3F	; 63
    2c08:	c3 01       	movw	r24, r6
    2c0a:	b2 01       	movw	r22, r4
    2c0c:	0e 94 98 29 	call	0x5330	; 0x5330 <__addsf3>
    2c10:	4b 01       	movw	r8, r22
    2c12:	5c 01       	movw	r10, r24
    2c14:	2a a5       	ldd	r18, Y+42	; 0x2a
    2c16:	3b a5       	ldd	r19, Y+43	; 0x2b
    2c18:	4c a5       	ldd	r20, Y+44	; 0x2c
    2c1a:	5d a5       	ldd	r21, Y+45	; 0x2d
    2c1c:	6a a1       	ldd	r22, Y+34	; 0x22
    2c1e:	7b a1       	ldd	r23, Y+35	; 0x23
    2c20:	8c a1       	ldd	r24, Y+36	; 0x24
    2c22:	9d a1       	ldd	r25, Y+37	; 0x25
    2c24:	0e 94 95 2c 	call	0x592a	; 0x592a <__mulsf3>
    2c28:	22 0c       	add	r2, r2
    2c2a:	33 1c       	adc	r3, r3
    2c2c:	22 0c       	add	r2, r2
    2c2e:	33 1c       	adc	r3, r3
    2c30:	f1 01       	movw	r30, r2
    2c32:	e5 56       	subi	r30, 0x65	; 101
    2c34:	fc 4f       	sbci	r31, 0xFC	; 252
    2c36:	ff a7       	std	Y+47, r31	; 0x2f
    2c38:	ee a7       	std	Y+46, r30	; 0x2e
    2c3a:	20 81       	ld	r18, Z
    2c3c:	31 81       	ldd	r19, Z+1	; 0x01
    2c3e:	42 81       	ldd	r20, Z+2	; 0x02
    2c40:	53 81       	ldd	r21, Z+3	; 0x03
    2c42:	0e 94 95 2c 	call	0x592a	; 0x592a <__mulsf3>
    2c46:	a3 01       	movw	r20, r6
    2c48:	92 01       	movw	r18, r4
    2c4a:	0e 94 7c 2a 	call	0x54f8	; 0x54f8 <__divsf3>
    2c4e:	6d 8b       	std	Y+21, r22	; 0x15
    2c50:	7e 8b       	std	Y+22, r23	; 0x16
    2c52:	8f 8b       	std	Y+23, r24	; 0x17
    2c54:	98 8f       	std	Y+24, r25	; 0x18
    2c56:	68 96       	adiw	r28, 0x18	; 24
    2c58:	2e ad       	ldd	r18, Y+62	; 0x3e
    2c5a:	3f ad       	ldd	r19, Y+63	; 0x3f
    2c5c:	68 97       	sbiw	r28, 0x18	; 24
    2c5e:	22 0f       	add	r18, r18
    2c60:	33 1f       	adc	r19, r19
    2c62:	22 0f       	add	r18, r18
    2c64:	33 1f       	adc	r19, r19
    2c66:	68 96       	adiw	r28, 0x18	; 24
    2c68:	3f af       	std	Y+63, r19	; 0x3f
    2c6a:	2e af       	std	Y+62, r18	; 0x3e
    2c6c:	68 97       	sbiw	r28, 0x18	; 24
    2c6e:	f9 01       	movw	r30, r18
    2c70:	e5 56       	subi	r30, 0x65	; 101
    2c72:	fc 4f       	sbci	r31, 0xFC	; 252
    2c74:	20 81       	ld	r18, Z
    2c76:	31 81       	ldd	r19, Z+1	; 0x01
    2c78:	42 81       	ldd	r20, Z+2	; 0x02
    2c7a:	53 81       	ldd	r21, Z+3	; 0x03
    2c7c:	c7 01       	movw	r24, r14
    2c7e:	b6 01       	movw	r22, r12
    2c80:	0e 94 95 2c 	call	0x592a	; 0x592a <__mulsf3>
    2c84:	29 81       	ldd	r18, Y+1	; 0x01
    2c86:	3a 81       	ldd	r19, Y+2	; 0x02
    2c88:	4b 81       	ldd	r20, Y+3	; 0x03
    2c8a:	5c 81       	ldd	r21, Y+4	; 0x04
    2c8c:	0e 94 7c 2a 	call	0x54f8	; 0x54f8 <__divsf3>
    2c90:	9b 01       	movw	r18, r22
    2c92:	ac 01       	movw	r20, r24
    2c94:	6d 89       	ldd	r22, Y+21	; 0x15
    2c96:	7e 89       	ldd	r23, Y+22	; 0x16
    2c98:	8f 89       	ldd	r24, Y+23	; 0x17
    2c9a:	98 8d       	ldd	r25, Y+24	; 0x18
    2c9c:	0e 94 97 29 	call	0x532e	; 0x532e <__subsf3>
    2ca0:	9b 01       	movw	r18, r22
    2ca2:	ac 01       	movw	r20, r24
    2ca4:	c5 01       	movw	r24, r10
    2ca6:	b4 01       	movw	r22, r8
    2ca8:	0e 94 95 2c 	call	0x592a	; 0x592a <__mulsf3>
    2cac:	16 2f       	mov	r17, r22
    2cae:	7d 8b       	std	Y+21, r23	; 0x15
    2cb0:	8a af       	std	Y+58, r24	; 0x3a
    2cb2:	09 2f       	mov	r16, r25
    2cb4:	49 89       	ldd	r20, Y+17	; 0x11
    2cb6:	5a 89       	ldd	r21, Y+18	; 0x12
    2cb8:	44 0f       	add	r20, r20
    2cba:	55 1f       	adc	r21, r21
    2cbc:	44 0f       	add	r20, r20
    2cbe:	55 1f       	adc	r21, r21
    2cc0:	5a 83       	std	Y+2, r21	; 0x02
    2cc2:	49 83       	std	Y+1, r20	; 0x01
    2cc4:	9a 01       	movw	r18, r20
    2cc6:	25 56       	subi	r18, 0x65	; 101
    2cc8:	3c 4f       	sbci	r19, 0xFC	; 252
    2cca:	86 2f       	mov	r24, r22
    2ccc:	97 2f       	mov	r25, r23
    2cce:	aa ad       	ldd	r26, Y+58	; 0x3a
    2cd0:	b0 2f       	mov	r27, r16
    2cd2:	f9 01       	movw	r30, r18
    2cd4:	80 83       	st	Z, r24
    2cd6:	91 83       	std	Z+1, r25	; 0x01
    2cd8:	a2 83       	std	Z+2, r26	; 0x02
    2cda:	b3 83       	std	Z+3, r27	; 0x03
    2cdc:	f1 01       	movw	r30, r2
    2cde:	ed 52       	subi	r30, 0x2D	; 45
    2ce0:	fd 4f       	sbci	r31, 0xFD	; 253
    2ce2:	20 81       	ld	r18, Z
    2ce4:	31 81       	ldd	r19, Z+1	; 0x01
    2ce6:	42 81       	ldd	r20, Z+2	; 0x02
    2ce8:	53 81       	ldd	r21, Z+3	; 0x03
    2cea:	6a a5       	ldd	r22, Y+42	; 0x2a
    2cec:	7b a5       	ldd	r23, Y+43	; 0x2b
    2cee:	8c a5       	ldd	r24, Y+44	; 0x2c
    2cf0:	9d a5       	ldd	r25, Y+45	; 0x2d
    2cf2:	0e 94 95 2c 	call	0x592a	; 0x592a <__mulsf3>
    2cf6:	4b 01       	movw	r8, r22
    2cf8:	5c 01       	movw	r10, r24
    2cfa:	ae a5       	ldd	r26, Y+46	; 0x2e
    2cfc:	bf a5       	ldd	r27, Y+47	; 0x2f
    2cfe:	2d 91       	ld	r18, X+
    2d00:	3d 91       	ld	r19, X+
    2d02:	4d 91       	ld	r20, X+
    2d04:	5c 91       	ld	r21, X
    2d06:	6e a1       	ldd	r22, Y+38	; 0x26
    2d08:	7f a1       	ldd	r23, Y+39	; 0x27
    2d0a:	88 a5       	ldd	r24, Y+40	; 0x28
    2d0c:	99 a5       	ldd	r25, Y+41	; 0x29
    2d0e:	0e 94 95 2c 	call	0x592a	; 0x592a <__mulsf3>
    2d12:	a3 01       	movw	r20, r6
    2d14:	92 01       	movw	r18, r4
    2d16:	0e 94 7c 2a 	call	0x54f8	; 0x54f8 <__divsf3>
    2d1a:	9b 01       	movw	r18, r22
    2d1c:	ac 01       	movw	r20, r24
    2d1e:	c5 01       	movw	r24, r10
    2d20:	b4 01       	movw	r22, r8
    2d22:	0e 94 97 29 	call	0x532e	; 0x532e <__subsf3>
    2d26:	2a a1       	ldd	r18, Y+34	; 0x22
    2d28:	3b a1       	ldd	r19, Y+35	; 0x23
    2d2a:	4c a1       	ldd	r20, Y+36	; 0x24
    2d2c:	5d a1       	ldd	r21, Y+37	; 0x25
    2d2e:	0e 94 95 2c 	call	0x592a	; 0x592a <__mulsf3>
    2d32:	4b 01       	movw	r8, r22
    2d34:	5c 01       	movw	r10, r24
    2d36:	68 96       	adiw	r28, 0x18	; 24
    2d38:	ee ad       	ldd	r30, Y+62	; 0x3e
    2d3a:	ff ad       	ldd	r31, Y+63	; 0x3f
    2d3c:	68 97       	sbiw	r28, 0x18	; 24
    2d3e:	ed 52       	subi	r30, 0x2D	; 45
    2d40:	fd 4f       	sbci	r31, 0xFD	; 253
    2d42:	20 81       	ld	r18, Z
    2d44:	31 81       	ldd	r19, Z+1	; 0x01
    2d46:	42 81       	ldd	r20, Z+2	; 0x02
    2d48:	53 81       	ldd	r21, Z+3	; 0x03
    2d4a:	c7 01       	movw	r24, r14
    2d4c:	b6 01       	movw	r22, r12
    2d4e:	0e 94 95 2c 	call	0x592a	; 0x592a <__mulsf3>
    2d52:	9b 01       	movw	r18, r22
    2d54:	ac 01       	movw	r20, r24
    2d56:	c5 01       	movw	r24, r10
    2d58:	b4 01       	movw	r22, r8
    2d5a:	0e 94 97 29 	call	0x532e	; 0x532e <__subsf3>
    2d5e:	2b 01       	movw	r4, r22
    2d60:	3c 01       	movw	r6, r24
    2d62:	e9 81       	ldd	r30, Y+1	; 0x01
    2d64:	fa 81       	ldd	r31, Y+2	; 0x02
    2d66:	ed 52       	subi	r30, 0x2D	; 45
    2d68:	fd 4f       	sbci	r31, 0xFD	; 253
    2d6a:	60 83       	st	Z, r22
    2d6c:	71 83       	std	Z+1, r23	; 0x01
    2d6e:	82 83       	std	Z+2, r24	; 0x02
    2d70:	93 83       	std	Z+3, r25	; 0x03
    2d72:	2d 88       	ldd	r2, Y+21	; 0x15
    2d74:	3a ac       	ldd	r3, Y+58	; 0x3a
    2d76:	bd 8d       	ldd	r27, Y+29	; 0x1d
    2d78:	ab 2e       	mov	r10, r27
    2d7a:	b1 2c       	mov	r11, r1
    2d7c:	f5 01       	movw	r30, r10
    2d7e:	ee 0f       	add	r30, r30
    2d80:	ff 1f       	adc	r31, r31
    2d82:	ee 0f       	add	r30, r30
    2d84:	ff 1f       	adc	r31, r31
    2d86:	ea 55       	subi	r30, 0x5A	; 90
    2d88:	fb 4f       	sbci	r31, 0xFB	; 251
    2d8a:	c5 90       	lpm	r12, Z+
    2d8c:	d5 90       	lpm	r13, Z+
    2d8e:	e5 90       	lpm	r14, Z+
    2d90:	f4 90       	lpm	r15, Z
    2d92:	f5 01       	movw	r30, r10
    2d94:	ee 0f       	add	r30, r30
    2d96:	ff 1f       	adc	r31, r31
    2d98:	ee 0f       	add	r30, r30
    2d9a:	ff 1f       	adc	r31, r31
    2d9c:	ea 56       	subi	r30, 0x6A	; 106
    2d9e:	fe 4f       	sbci	r31, 0xFE	; 254
    2da0:	25 91       	lpm	r18, Z+
    2da2:	35 91       	lpm	r19, Z+
    2da4:	45 91       	lpm	r20, Z+
    2da6:	54 91       	lpm	r21, Z
    2da8:	23 96       	adiw	r28, 0x03	; 3
    2daa:	6c ad       	ldd	r22, Y+60	; 0x3c
    2dac:	7d ad       	ldd	r23, Y+61	; 0x3d
    2dae:	8e ad       	ldd	r24, Y+62	; 0x3e
    2db0:	9f ad       	ldd	r25, Y+63	; 0x3f
    2db2:	23 97       	sbiw	r28, 0x03	; 3
    2db4:	0e 94 95 2c 	call	0x592a	; 0x592a <__mulsf3>
    2db8:	9b 01       	movw	r18, r22
    2dba:	ac 01       	movw	r20, r24
    2dbc:	c7 01       	movw	r24, r14
    2dbe:	b6 01       	movw	r22, r12
    2dc0:	0e 94 98 29 	call	0x5330	; 0x5330 <__addsf3>
    2dc4:	2b ad       	ldd	r18, Y+59	; 0x3b
    2dc6:	3c ad       	ldd	r19, Y+60	; 0x3c
    2dc8:	4d ad       	ldd	r20, Y+61	; 0x3d
    2dca:	5e ad       	ldd	r21, Y+62	; 0x3e
    2dcc:	0e 94 95 2c 	call	0x592a	; 0x592a <__mulsf3>
    2dd0:	6b 01       	movw	r12, r22
    2dd2:	7c 01       	movw	r14, r24
    2dd4:	ed 81       	ldd	r30, Y+5	; 0x05
    2dd6:	e1 11       	cpse	r30, r1
    2dd8:	56 c0       	rjmp	.+172    	; 0x2e86 <igrf+0x7fc>
    2dda:	a3 01       	movw	r20, r6
    2ddc:	92 01       	movw	r18, r4
    2dde:	0e 94 95 2c 	call	0x592a	; 0x592a <__mulsf3>
    2de2:	9b 01       	movw	r18, r22
    2de4:	ac 01       	movw	r20, r24
    2de6:	6a a9       	ldd	r22, Y+50	; 0x32
    2de8:	7b a9       	ldd	r23, Y+51	; 0x33
    2dea:	8c a9       	ldd	r24, Y+52	; 0x34
    2dec:	9d a9       	ldd	r25, Y+53	; 0x35
    2dee:	0e 94 98 29 	call	0x5330	; 0x5330 <__addsf3>
    2df2:	6a ab       	std	Y+50, r22	; 0x32
    2df4:	7b ab       	std	Y+51, r23	; 0x33
    2df6:	8c ab       	std	Y+52, r24	; 0x34
    2df8:	9d ab       	std	Y+53, r25	; 0x35
    2dfa:	21 2f       	mov	r18, r17
    2dfc:	32 2d       	mov	r19, r2
    2dfe:	43 2d       	mov	r20, r3
    2e00:	50 2f       	mov	r21, r16
    2e02:	c7 01       	movw	r24, r14
    2e04:	b6 01       	movw	r22, r12
    2e06:	0e 94 95 2c 	call	0x592a	; 0x592a <__mulsf3>
    2e0a:	9b 01       	movw	r18, r22
    2e0c:	ac 01       	movw	r20, r24
    2e0e:	6e a9       	ldd	r22, Y+54	; 0x36
    2e10:	7f a9       	ldd	r23, Y+55	; 0x37
    2e12:	88 ad       	ldd	r24, Y+56	; 0x38
    2e14:	99 ad       	ldd	r25, Y+57	; 0x39
    2e16:	0e 94 97 29 	call	0x532e	; 0x532e <__subsf3>
    2e1a:	6e ab       	std	Y+54, r22	; 0x36
    2e1c:	7f ab       	std	Y+55, r23	; 0x37
    2e1e:	88 af       	std	Y+56, r24	; 0x38
    2e20:	99 af       	std	Y+57, r25	; 0x39
    2e22:	fd 8d       	ldd	r31, Y+29	; 0x1d
    2e24:	ff 5f       	subi	r31, 0xFF	; 255
    2e26:	fd 8f       	std	Y+29, r31	; 0x1d
    2e28:	39 85       	ldd	r19, Y+9	; 0x09
    2e2a:	3f 5f       	subi	r19, 0xFF	; 255
    2e2c:	39 87       	std	Y+9, r19	; 0x09
    2e2e:	24 96       	adiw	r28, 0x04	; 4
    2e30:	4f ad       	ldd	r20, Y+63	; 0x3f
    2e32:	24 97       	sbiw	r28, 0x04	; 4
    2e34:	43 17       	cp	r20, r19
    2e36:	08 f4       	brcc	.+2      	; 0x2e3a <igrf+0x7b0>
    2e38:	2c c1       	rjmp	.+600    	; 0x3092 <igrf+0xa08>
    2e3a:	89 a1       	ldd	r24, Y+33	; 0x21
    2e3c:	9d 85       	ldd	r25, Y+13	; 0x0d
    2e3e:	98 17       	cp	r25, r24
    2e40:	08 f0       	brcs	.+2      	; 0x2e44 <igrf+0x7ba>
    2e42:	68 ce       	rjmp	.-816    	; 0x2b14 <igrf+0x48a>
    2e44:	bd 85       	ldd	r27, Y+13	; 0x0d
    2e46:	bf 5f       	subi	r27, 0xFF	; 255
    2e48:	bd 87       	std	Y+13, r27	; 0x0d
    2e4a:	6b 2f       	mov	r22, r27
    2e4c:	70 e0       	ldi	r23, 0x00	; 0
    2e4e:	6e 5f       	subi	r22, 0xFE	; 254
    2e50:	7f 4f       	sbci	r23, 0xFF	; 255
    2e52:	88 27       	eor	r24, r24
    2e54:	77 fd       	sbrc	r23, 7
    2e56:	80 95       	com	r24
    2e58:	98 2f       	mov	r25, r24
    2e5a:	0e 94 12 2b 	call	0x5624	; 0x5624 <__floatsisf>
    2e5e:	9b 01       	movw	r18, r22
    2e60:	ac 01       	movw	r20, r24
    2e62:	2c 96       	adiw	r28, 0x0c	; 12
    2e64:	6c ad       	ldd	r22, Y+60	; 0x3c
    2e66:	7d ad       	ldd	r23, Y+61	; 0x3d
    2e68:	8e ad       	ldd	r24, Y+62	; 0x3e
    2e6a:	9f ad       	ldd	r25, Y+63	; 0x3f
    2e6c:	2c 97       	sbiw	r28, 0x0c	; 12
    2e6e:	0e 94 f8 2c 	call	0x59f0	; 0x59f0 <pow>
    2e72:	6b af       	std	Y+59, r22	; 0x3b
    2e74:	7c af       	std	Y+60, r23	; 0x3c
    2e76:	8d af       	std	Y+61, r24	; 0x3d
    2e78:	9e af       	std	Y+62, r25	; 0x3e
    2e7a:	ed 85       	ldd	r30, Y+13	; 0x0d
    2e7c:	e9 8f       	std	Y+25, r30	; 0x19
    2e7e:	f1 e0       	ldi	r31, 0x01	; 1
    2e80:	f9 a3       	std	Y+33, r31	; 0x21
    2e82:	1d 82       	std	Y+5, r1	; 0x05
    2e84:	4b ce       	rjmp	.-874    	; 0x2b1c <igrf+0x492>
    2e86:	c5 01       	movw	r24, r10
    2e88:	01 96       	adiw	r24, 0x01	; 1
    2e8a:	fc 01       	movw	r30, r24
    2e8c:	ee 0f       	add	r30, r30
    2e8e:	ff 1f       	adc	r31, r31
    2e90:	ee 0f       	add	r30, r30
    2e92:	ff 1f       	adc	r31, r31
    2e94:	ea 55       	subi	r30, 0x5A	; 90
    2e96:	fb 4f       	sbci	r31, 0xFB	; 251
    2e98:	85 90       	lpm	r8, Z+
    2e9a:	95 90       	lpm	r9, Z+
    2e9c:	a5 90       	lpm	r10, Z+
    2e9e:	b4 90       	lpm	r11, Z
    2ea0:	fc 01       	movw	r30, r24
    2ea2:	ee 0f       	add	r30, r30
    2ea4:	ff 1f       	adc	r31, r31
    2ea6:	ee 0f       	add	r30, r30
    2ea8:	ff 1f       	adc	r31, r31
    2eaa:	ea 56       	subi	r30, 0x6A	; 106
    2eac:	fe 4f       	sbci	r31, 0xFE	; 254
    2eae:	25 91       	lpm	r18, Z+
    2eb0:	35 91       	lpm	r19, Z+
    2eb2:	45 91       	lpm	r20, Z+
    2eb4:	54 91       	lpm	r21, Z
    2eb6:	23 96       	adiw	r28, 0x03	; 3
    2eb8:	6c ad       	ldd	r22, Y+60	; 0x3c
    2eba:	7d ad       	ldd	r23, Y+61	; 0x3d
    2ebc:	8e ad       	ldd	r24, Y+62	; 0x3e
    2ebe:	9f ad       	ldd	r25, Y+63	; 0x3f
    2ec0:	23 97       	sbiw	r28, 0x03	; 3
    2ec2:	0e 94 95 2c 	call	0x592a	; 0x592a <__mulsf3>
    2ec6:	9b 01       	movw	r18, r22
    2ec8:	ac 01       	movw	r20, r24
    2eca:	c5 01       	movw	r24, r10
    2ecc:	b4 01       	movw	r22, r8
    2ece:	0e 94 98 29 	call	0x5330	; 0x5330 <__addsf3>
    2ed2:	2b ad       	ldd	r18, Y+59	; 0x3b
    2ed4:	3c ad       	ldd	r19, Y+60	; 0x3c
    2ed6:	4d ad       	ldd	r20, Y+61	; 0x3d
    2ed8:	5e ad       	ldd	r21, Y+62	; 0x3e
    2eda:	0e 94 95 2c 	call	0x592a	; 0x592a <__mulsf3>
    2ede:	69 8b       	std	Y+17, r22	; 0x11
    2ee0:	7a 8b       	std	Y+18, r23	; 0x12
    2ee2:	8b 8b       	std	Y+19, r24	; 0x13
    2ee4:	9c 8b       	std	Y+20, r25	; 0x14
    2ee6:	3d 81       	ldd	r19, Y+5	; 0x05
    2ee8:	23 2f       	mov	r18, r19
    2eea:	30 e0       	ldi	r19, 0x00	; 0
    2eec:	3e 8b       	std	Y+22, r19	; 0x16
    2eee:	2d 8b       	std	Y+21, r18	; 0x15
    2ef0:	c9 01       	movw	r24, r18
    2ef2:	88 0f       	add	r24, r24
    2ef4:	99 1f       	adc	r25, r25
    2ef6:	88 0f       	add	r24, r24
    2ef8:	99 1f       	adc	r25, r25
    2efa:	fc 01       	movw	r30, r24
    2efc:	e9 56       	subi	r30, 0x69	; 105
    2efe:	fd 4f       	sbci	r31, 0xFD	; 253
    2f00:	20 81       	ld	r18, Z
    2f02:	31 81       	ldd	r19, Z+1	; 0x01
    2f04:	42 81       	ldd	r20, Z+2	; 0x02
    2f06:	53 81       	ldd	r21, Z+3	; 0x03
    2f08:	2d 83       	std	Y+5, r18	; 0x05
    2f0a:	3e 83       	std	Y+6, r19	; 0x06
    2f0c:	4f 83       	std	Y+7, r20	; 0x07
    2f0e:	58 87       	std	Y+8, r21	; 0x08
    2f10:	9c 01       	movw	r18, r24
    2f12:	25 5a       	subi	r18, 0xA5	; 165
    2f14:	3d 4f       	sbci	r19, 0xFD	; 253
    2f16:	d9 01       	movw	r26, r18
    2f18:	8d 91       	ld	r24, X+
    2f1a:	9d 91       	ld	r25, X+
    2f1c:	0d 90       	ld	r0, X+
    2f1e:	bc 91       	ld	r27, X
    2f20:	a0 2d       	mov	r26, r0
    2f22:	89 83       	std	Y+1, r24	; 0x01
    2f24:	9a 83       	std	Y+2, r25	; 0x02
    2f26:	ab 83       	std	Y+3, r26	; 0x03
    2f28:	bc 83       	std	Y+4, r27	; 0x04
    2f2a:	a7 01       	movw	r20, r14
    2f2c:	96 01       	movw	r18, r12
    2f2e:	6d 81       	ldd	r22, Y+5	; 0x05
    2f30:	7e 81       	ldd	r23, Y+6	; 0x06
    2f32:	8f 81       	ldd	r24, Y+7	; 0x07
    2f34:	98 85       	ldd	r25, Y+8	; 0x08
    2f36:	0e 94 95 2c 	call	0x592a	; 0x592a <__mulsf3>
    2f3a:	4b 01       	movw	r8, r22
    2f3c:	5c 01       	movw	r10, r24
    2f3e:	29 89       	ldd	r18, Y+17	; 0x11
    2f40:	3a 89       	ldd	r19, Y+18	; 0x12
    2f42:	4b 89       	ldd	r20, Y+19	; 0x13
    2f44:	5c 89       	ldd	r21, Y+20	; 0x14
    2f46:	69 81       	ldd	r22, Y+1	; 0x01
    2f48:	7a 81       	ldd	r23, Y+2	; 0x02
    2f4a:	8b 81       	ldd	r24, Y+3	; 0x03
    2f4c:	9c 81       	ldd	r25, Y+4	; 0x04
    2f4e:	0e 94 95 2c 	call	0x592a	; 0x592a <__mulsf3>
    2f52:	9b 01       	movw	r18, r22
    2f54:	ac 01       	movw	r20, r24
    2f56:	c5 01       	movw	r24, r10
    2f58:	b4 01       	movw	r22, r8
    2f5a:	0e 94 98 29 	call	0x5330	; 0x5330 <__addsf3>
    2f5e:	4b 01       	movw	r8, r22
    2f60:	5c 01       	movw	r10, r24
    2f62:	a3 01       	movw	r20, r6
    2f64:	92 01       	movw	r18, r4
    2f66:	0e 94 95 2c 	call	0x592a	; 0x592a <__mulsf3>
    2f6a:	9b 01       	movw	r18, r22
    2f6c:	ac 01       	movw	r20, r24
    2f6e:	6a a9       	ldd	r22, Y+50	; 0x32
    2f70:	7b a9       	ldd	r23, Y+51	; 0x33
    2f72:	8c a9       	ldd	r24, Y+52	; 0x34
    2f74:	9d a9       	ldd	r25, Y+53	; 0x35
    2f76:	0e 94 98 29 	call	0x5330	; 0x5330 <__addsf3>
    2f7a:	6a ab       	std	Y+50, r22	; 0x32
    2f7c:	7b ab       	std	Y+51, r23	; 0x33
    2f7e:	8c ab       	std	Y+52, r24	; 0x34
    2f80:	9d ab       	std	Y+53, r25	; 0x35
    2f82:	21 2f       	mov	r18, r17
    2f84:	32 2d       	mov	r19, r2
    2f86:	43 2d       	mov	r20, r3
    2f88:	50 2f       	mov	r21, r16
    2f8a:	c5 01       	movw	r24, r10
    2f8c:	b4 01       	movw	r22, r8
    2f8e:	0e 94 95 2c 	call	0x592a	; 0x592a <__mulsf3>
    2f92:	9b 01       	movw	r18, r22
    2f94:	ac 01       	movw	r20, r24
    2f96:	6e a9       	ldd	r22, Y+54	; 0x36
    2f98:	7f a9       	ldd	r23, Y+55	; 0x37
    2f9a:	88 ad       	ldd	r24, Y+56	; 0x38
    2f9c:	99 ad       	ldd	r25, Y+57	; 0x39
    2f9e:	0e 94 97 29 	call	0x532e	; 0x532e <__subsf3>
    2fa2:	6e ab       	std	Y+54, r22	; 0x36
    2fa4:	7f ab       	std	Y+55, r23	; 0x37
    2fa6:	88 af       	std	Y+56, r24	; 0x38
    2fa8:	99 af       	std	Y+57, r25	; 0x39
    2faa:	20 e0       	ldi	r18, 0x00	; 0
    2fac:	30 e0       	ldi	r19, 0x00	; 0
    2fae:	a9 01       	movw	r20, r18
    2fb0:	6e a1       	ldd	r22, Y+38	; 0x26
    2fb2:	7f a1       	ldd	r23, Y+39	; 0x27
    2fb4:	88 a5       	ldd	r24, Y+40	; 0x28
    2fb6:	99 a5       	ldd	r25, Y+41	; 0x29
    2fb8:	0e 94 8a 2c 	call	0x5914	; 0x5914 <__gesf2>
    2fbc:	29 81       	ldd	r18, Y+1	; 0x01
    2fbe:	3a 81       	ldd	r19, Y+2	; 0x02
    2fc0:	4b 81       	ldd	r20, Y+3	; 0x03
    2fc2:	5c 81       	ldd	r21, Y+4	; 0x04
    2fc4:	18 16       	cp	r1, r24
    2fc6:	0c f0       	brlt	.+2      	; 0x2fca <igrf+0x940>
    2fc8:	ee c1       	rjmp	.+988    	; 0x33a6 <igrf+0xd1c>
    2fca:	c7 01       	movw	r24, r14
    2fcc:	b6 01       	movw	r22, r12
    2fce:	0e 94 95 2c 	call	0x592a	; 0x592a <__mulsf3>
    2fd2:	6b 01       	movw	r12, r22
    2fd4:	7c 01       	movw	r14, r24
    2fd6:	2d 81       	ldd	r18, Y+5	; 0x05
    2fd8:	3e 81       	ldd	r19, Y+6	; 0x06
    2fda:	4f 81       	ldd	r20, Y+7	; 0x07
    2fdc:	58 85       	ldd	r21, Y+8	; 0x08
    2fde:	69 89       	ldd	r22, Y+17	; 0x11
    2fe0:	7a 89       	ldd	r23, Y+18	; 0x12
    2fe2:	8b 89       	ldd	r24, Y+19	; 0x13
    2fe4:	9c 89       	ldd	r25, Y+20	; 0x14
    2fe6:	0e 94 95 2c 	call	0x592a	; 0x592a <__mulsf3>
    2fea:	9b 01       	movw	r18, r22
    2fec:	ac 01       	movw	r20, r24
    2fee:	c7 01       	movw	r24, r14
    2ff0:	b6 01       	movw	r22, r12
    2ff2:	0e 94 97 29 	call	0x532e	; 0x532e <__subsf3>
    2ff6:	6b 01       	movw	r12, r22
    2ff8:	7c 01       	movw	r14, r24
    2ffa:	ed 89       	ldd	r30, Y+21	; 0x15
    2ffc:	fe 89       	ldd	r31, Y+22	; 0x16
    2ffe:	bf 01       	movw	r22, r30
    3000:	88 27       	eor	r24, r24
    3002:	77 fd       	sbrc	r23, 7
    3004:	80 95       	com	r24
    3006:	98 2f       	mov	r25, r24
    3008:	0e 94 12 2b 	call	0x5624	; 0x5624 <__floatsisf>
    300c:	9b 01       	movw	r18, r22
    300e:	ac 01       	movw	r20, r24
    3010:	c7 01       	movw	r24, r14
    3012:	b6 01       	movw	r22, r12
    3014:	0e 94 95 2c 	call	0x592a	; 0x592a <__mulsf3>
    3018:	21 2f       	mov	r18, r17
    301a:	32 2d       	mov	r19, r2
    301c:	43 2d       	mov	r20, r3
    301e:	50 2f       	mov	r21, r16
    3020:	0e 94 95 2c 	call	0x592a	; 0x592a <__mulsf3>
    3024:	6b 01       	movw	r12, r22
    3026:	7c 01       	movw	r14, r24
    3028:	f9 8d       	ldd	r31, Y+25	; 0x19
    302a:	6f 2f       	mov	r22, r31
    302c:	70 e0       	ldi	r23, 0x00	; 0
    302e:	80 e0       	ldi	r24, 0x00	; 0
    3030:	90 e0       	ldi	r25, 0x00	; 0
    3032:	0e 94 12 2b 	call	0x5624	; 0x5624 <__floatsisf>
    3036:	20 e0       	ldi	r18, 0x00	; 0
    3038:	30 e0       	ldi	r19, 0x00	; 0
    303a:	40 e8       	ldi	r20, 0x80	; 128
    303c:	5f e3       	ldi	r21, 0x3F	; 63
    303e:	0e 94 98 29 	call	0x5330	; 0x5330 <__addsf3>
    3042:	2e a1       	ldd	r18, Y+38	; 0x26
    3044:	3f a1       	ldd	r19, Y+39	; 0x27
    3046:	48 a5       	ldd	r20, Y+40	; 0x28
    3048:	59 a5       	ldd	r21, Y+41	; 0x29
    304a:	0e 94 95 2c 	call	0x592a	; 0x592a <__mulsf3>
    304e:	9b 01       	movw	r18, r22
    3050:	ac 01       	movw	r20, r24
    3052:	c7 01       	movw	r24, r14
    3054:	b6 01       	movw	r22, r12
    3056:	0e 94 7c 2a 	call	0x54f8	; 0x54f8 <__divsf3>
    305a:	9b 01       	movw	r18, r22
    305c:	ac 01       	movw	r20, r24
    305e:	28 96       	adiw	r28, 0x08	; 8
    3060:	6c ad       	ldd	r22, Y+60	; 0x3c
    3062:	7d ad       	ldd	r23, Y+61	; 0x3d
    3064:	8e ad       	ldd	r24, Y+62	; 0x3e
    3066:	9f ad       	ldd	r25, Y+63	; 0x3f
    3068:	28 97       	sbiw	r28, 0x08	; 8
    306a:	0e 94 98 29 	call	0x5330	; 0x5330 <__addsf3>
    306e:	28 96       	adiw	r28, 0x08	; 8
    3070:	6c af       	std	Y+60, r22	; 0x3c
    3072:	7d af       	std	Y+61, r23	; 0x3d
    3074:	8e af       	std	Y+62, r24	; 0x3e
    3076:	9f af       	std	Y+63, r25	; 0x3f
    3078:	28 97       	sbiw	r28, 0x08	; 8
    307a:	2d 8d       	ldd	r18, Y+29	; 0x1d
    307c:	2e 5f       	subi	r18, 0xFE	; 254
    307e:	2d 8f       	std	Y+29, r18	; 0x1d
    3080:	39 85       	ldd	r19, Y+9	; 0x09
    3082:	3f 5f       	subi	r19, 0xFF	; 255
    3084:	39 87       	std	Y+9, r19	; 0x09
    3086:	24 96       	adiw	r28, 0x04	; 4
    3088:	4f ad       	ldd	r20, Y+63	; 0x3f
    308a:	24 97       	sbiw	r28, 0x04	; 4
    308c:	43 17       	cp	r20, r19
    308e:	08 f0       	brcs	.+2      	; 0x3092 <igrf+0xa08>
    3090:	d4 ce       	rjmp	.-600    	; 0x2e3a <igrf+0x7b0>
    3092:	60 96       	adiw	r28, 0x10	; 16
    3094:	2c ad       	ldd	r18, Y+60	; 0x3c
    3096:	3d ad       	ldd	r19, Y+61	; 0x3d
    3098:	4e ad       	ldd	r20, Y+62	; 0x3e
    309a:	5f ad       	ldd	r21, Y+63	; 0x3f
    309c:	60 97       	sbiw	r28, 0x10	; 16
    309e:	6e a9       	ldd	r22, Y+54	; 0x36
    30a0:	7f a9       	ldd	r23, Y+55	; 0x37
    30a2:	88 ad       	ldd	r24, Y+56	; 0x38
    30a4:	99 ad       	ldd	r25, Y+57	; 0x39
    30a6:	0e 94 95 2c 	call	0x592a	; 0x592a <__mulsf3>
    30aa:	6b 01       	movw	r12, r22
    30ac:	7c 01       	movw	r14, r24
    30ae:	60 96       	adiw	r28, 0x10	; 16
    30b0:	2c ad       	ldd	r18, Y+60	; 0x3c
    30b2:	3d ad       	ldd	r19, Y+61	; 0x3d
    30b4:	4e ad       	ldd	r20, Y+62	; 0x3e
    30b6:	5f ad       	ldd	r21, Y+63	; 0x3f
    30b8:	60 97       	sbiw	r28, 0x10	; 16
    30ba:	6a a9       	ldd	r22, Y+50	; 0x32
    30bc:	7b a9       	ldd	r23, Y+51	; 0x33
    30be:	8c a9       	ldd	r24, Y+52	; 0x34
    30c0:	9d a9       	ldd	r25, Y+53	; 0x35
    30c2:	0e 94 95 2c 	call	0x592a	; 0x592a <__mulsf3>
    30c6:	4b 01       	movw	r8, r22
    30c8:	5c 01       	movw	r10, r24
    30ca:	64 96       	adiw	r28, 0x14	; 20
    30cc:	2c ad       	ldd	r18, Y+60	; 0x3c
    30ce:	3d ad       	ldd	r19, Y+61	; 0x3d
    30d0:	4e ad       	ldd	r20, Y+62	; 0x3e
    30d2:	5f ad       	ldd	r21, Y+63	; 0x3f
    30d4:	64 97       	sbiw	r28, 0x14	; 20
    30d6:	6e a9       	ldd	r22, Y+54	; 0x36
    30d8:	7f a9       	ldd	r23, Y+55	; 0x37
    30da:	88 ad       	ldd	r24, Y+56	; 0x38
    30dc:	99 ad       	ldd	r25, Y+57	; 0x39
    30de:	0e 94 95 2c 	call	0x592a	; 0x592a <__mulsf3>
    30e2:	9b 01       	movw	r18, r22
    30e4:	ac 01       	movw	r20, r24
    30e6:	c5 01       	movw	r24, r10
    30e8:	b4 01       	movw	r22, r8
    30ea:	0e 94 98 29 	call	0x5330	; 0x5330 <__addsf3>
    30ee:	66 96       	adiw	r28, 0x16	; 22
    30f0:	ae ad       	ldd	r26, Y+62	; 0x3e
    30f2:	bf ad       	ldd	r27, Y+63	; 0x3f
    30f4:	66 97       	sbiw	r28, 0x16	; 22
    30f6:	6d 93       	st	X+, r22
    30f8:	7d 93       	st	X+, r23
    30fa:	8d 93       	st	X+, r24
    30fc:	9c 93       	st	X, r25
    30fe:	13 97       	sbiw	r26, 0x03	; 3
    3100:	28 96       	adiw	r28, 0x08	; 8
    3102:	2c ad       	ldd	r18, Y+60	; 0x3c
    3104:	3d ad       	ldd	r19, Y+61	; 0x3d
    3106:	4e ad       	ldd	r20, Y+62	; 0x3e
    3108:	5f ad       	ldd	r21, Y+63	; 0x3f
    310a:	28 97       	sbiw	r28, 0x08	; 8
    310c:	14 96       	adiw	r26, 0x04	; 4
    310e:	2d 93       	st	X+, r18
    3110:	3d 93       	st	X+, r19
    3112:	4d 93       	st	X+, r20
    3114:	5c 93       	st	X, r21
    3116:	17 97       	sbiw	r26, 0x07	; 7
    3118:	64 96       	adiw	r28, 0x14	; 20
    311a:	2c ad       	ldd	r18, Y+60	; 0x3c
    311c:	3d ad       	ldd	r19, Y+61	; 0x3d
    311e:	4e ad       	ldd	r20, Y+62	; 0x3e
    3120:	5f ad       	ldd	r21, Y+63	; 0x3f
    3122:	64 97       	sbiw	r28, 0x14	; 20
    3124:	6a a9       	ldd	r22, Y+50	; 0x32
    3126:	7b a9       	ldd	r23, Y+51	; 0x33
    3128:	8c a9       	ldd	r24, Y+52	; 0x34
    312a:	9d a9       	ldd	r25, Y+53	; 0x35
    312c:	0e 94 95 2c 	call	0x592a	; 0x592a <__mulsf3>
    3130:	9b 01       	movw	r18, r22
    3132:	ac 01       	movw	r20, r24
    3134:	c7 01       	movw	r24, r14
    3136:	b6 01       	movw	r22, r12
    3138:	0e 94 97 29 	call	0x532e	; 0x532e <__subsf3>
    313c:	66 96       	adiw	r28, 0x16	; 22
    313e:	ee ad       	ldd	r30, Y+62	; 0x3e
    3140:	ff ad       	ldd	r31, Y+63	; 0x3f
    3142:	66 97       	sbiw	r28, 0x16	; 22
    3144:	60 87       	std	Z+8, r22	; 0x08
    3146:	71 87       	std	Z+9, r23	; 0x09
    3148:	82 87       	std	Z+10, r24	; 0x0a
    314a:	93 87       	std	Z+11, r25	; 0x0b
    314c:	c9 5a       	subi	r28, 0xA9	; 169
    314e:	df 4f       	sbci	r29, 0xFF	; 255
    3150:	0f b6       	in	r0, 0x3f	; 63
    3152:	f8 94       	cli
    3154:	de bf       	out	0x3e, r29	; 62
    3156:	0f be       	out	0x3f, r0	; 63
    3158:	cd bf       	out	0x3d, r28	; 61
    315a:	df 91       	pop	r29
    315c:	cf 91       	pop	r28
    315e:	1f 91       	pop	r17
    3160:	0f 91       	pop	r16
    3162:	ff 90       	pop	r15
    3164:	ef 90       	pop	r14
    3166:	df 90       	pop	r13
    3168:	cf 90       	pop	r12
    316a:	bf 90       	pop	r11
    316c:	af 90       	pop	r10
    316e:	9f 90       	pop	r9
    3170:	8f 90       	pop	r8
    3172:	7f 90       	pop	r7
    3174:	6f 90       	pop	r6
    3176:	5f 90       	pop	r5
    3178:	4f 90       	pop	r4
    317a:	3f 90       	pop	r3
    317c:	2f 90       	pop	r2
    317e:	08 95       	ret
    3180:	83 2f       	mov	r24, r19
    3182:	90 e0       	ldi	r25, 0x00	; 0
    3184:	9e 8b       	std	Y+22, r25	; 0x16
    3186:	8d 8b       	std	Y+21, r24	; 0x15
    3188:	bc 01       	movw	r22, r24
    318a:	88 27       	eor	r24, r24
    318c:	77 fd       	sbrc	r23, 7
    318e:	80 95       	com	r24
    3190:	98 2f       	mov	r25, r24
    3192:	0e 94 12 2b 	call	0x5624	; 0x5624 <__floatsisf>
    3196:	6b 01       	movw	r12, r22
    3198:	7c 01       	movw	r14, r24
    319a:	9b 01       	movw	r18, r22
    319c:	ac 01       	movw	r20, r24
    319e:	60 e0       	ldi	r22, 0x00	; 0
    31a0:	70 e0       	ldi	r23, 0x00	; 0
    31a2:	80 e0       	ldi	r24, 0x00	; 0
    31a4:	9f e3       	ldi	r25, 0x3F	; 63
    31a6:	0e 94 7c 2a 	call	0x54f8	; 0x54f8 <__divsf3>
    31aa:	9b 01       	movw	r18, r22
    31ac:	ac 01       	movw	r20, r24
    31ae:	60 e0       	ldi	r22, 0x00	; 0
    31b0:	70 e0       	ldi	r23, 0x00	; 0
    31b2:	80 e8       	ldi	r24, 0x80	; 128
    31b4:	9f e3       	ldi	r25, 0x3F	; 63
    31b6:	0e 94 97 29 	call	0x532e	; 0x532e <__subsf3>
    31ba:	0e 94 4e 2d 	call	0x5a9c	; 0x5a9c <sqrt>
    31be:	4b 01       	movw	r8, r22
    31c0:	5c 01       	movw	r10, r24
    31c2:	a9 85       	ldd	r26, Y+9	; 0x09
    31c4:	0a 2f       	mov	r16, r26
    31c6:	10 e0       	ldi	r17, 0x00	; 0
    31c8:	38 01       	movw	r6, r16
    31ca:	ed 89       	ldd	r30, Y+21	; 0x15
    31cc:	fe 89       	ldd	r31, Y+22	; 0x16
    31ce:	6e 1a       	sub	r6, r30
    31d0:	7f 0a       	sbc	r7, r31
    31d2:	f1 e0       	ldi	r31, 0x01	; 1
    31d4:	6f 1a       	sub	r6, r31
    31d6:	71 08       	sbc	r7, r1
    31d8:	a7 01       	movw	r20, r14
    31da:	96 01       	movw	r18, r12
    31dc:	60 e0       	ldi	r22, 0x00	; 0
    31de:	70 e0       	ldi	r23, 0x00	; 0
    31e0:	80 e8       	ldi	r24, 0x80	; 128
    31e2:	9f e3       	ldi	r25, 0x3F	; 63
    31e4:	0e 94 7c 2a 	call	0x54f8	; 0x54f8 <__divsf3>
    31e8:	20 e0       	ldi	r18, 0x00	; 0
    31ea:	30 e0       	ldi	r19, 0x00	; 0
    31ec:	40 e8       	ldi	r20, 0x80	; 128
    31ee:	5f e3       	ldi	r21, 0x3F	; 63
    31f0:	0e 94 98 29 	call	0x5330	; 0x5330 <__addsf3>
    31f4:	a5 01       	movw	r20, r10
    31f6:	94 01       	movw	r18, r8
    31f8:	0e 94 95 2c 	call	0x592a	; 0x592a <__mulsf3>
    31fc:	2e a1       	ldd	r18, Y+38	; 0x26
    31fe:	3f a1       	ldd	r19, Y+39	; 0x27
    3200:	48 a5       	ldd	r20, Y+40	; 0x28
    3202:	59 a5       	ldd	r21, Y+41	; 0x29
    3204:	0e 94 95 2c 	call	0x592a	; 0x592a <__mulsf3>
    3208:	66 0c       	add	r6, r6
    320a:	77 1c       	adc	r7, r7
    320c:	66 0c       	add	r6, r6
    320e:	77 1c       	adc	r7, r7
    3210:	93 01       	movw	r18, r6
    3212:	25 56       	subi	r18, 0x65	; 101
    3214:	3c 4f       	sbci	r19, 0xFC	; 252
    3216:	3a 83       	std	Y+2, r19	; 0x02
    3218:	29 83       	std	Y+1, r18	; 0x01
    321a:	d9 01       	movw	r26, r18
    321c:	2d 91       	ld	r18, X+
    321e:	3d 91       	ld	r19, X+
    3220:	4d 91       	ld	r20, X+
    3222:	5c 91       	ld	r21, X
    3224:	0e 94 95 2c 	call	0x592a	; 0x592a <__mulsf3>
    3228:	36 2e       	mov	r3, r22
    322a:	27 2e       	mov	r2, r23
    322c:	89 8b       	std	Y+17, r24	; 0x11
    322e:	9a a3       	std	Y+34, r25	; 0x22
    3230:	00 0f       	add	r16, r16
    3232:	11 1f       	adc	r17, r17
    3234:	00 0f       	add	r16, r16
    3236:	11 1f       	adc	r17, r17
    3238:	98 01       	movw	r18, r16
    323a:	25 56       	subi	r18, 0x65	; 101
    323c:	3c 4f       	sbci	r19, 0xFC	; 252
    323e:	83 2d       	mov	r24, r3
    3240:	92 2d       	mov	r25, r2
    3242:	a9 89       	ldd	r26, Y+17	; 0x11
    3244:	ba a1       	ldd	r27, Y+34	; 0x22
    3246:	f9 01       	movw	r30, r18
    3248:	80 83       	st	Z, r24
    324a:	91 83       	std	Z+1, r25	; 0x01
    324c:	a2 83       	std	Z+2, r26	; 0x02
    324e:	b3 83       	std	Z+3, r27	; 0x03
    3250:	f3 01       	movw	r30, r6
    3252:	ed 52       	subi	r30, 0x2D	; 45
    3254:	fd 4f       	sbci	r31, 0xFD	; 253
    3256:	20 81       	ld	r18, Z
    3258:	31 81       	ldd	r19, Z+1	; 0x01
    325a:	42 81       	ldd	r20, Z+2	; 0x02
    325c:	53 81       	ldd	r21, Z+3	; 0x03
    325e:	6e a1       	ldd	r22, Y+38	; 0x26
    3260:	7f a1       	ldd	r23, Y+39	; 0x27
    3262:	88 a5       	ldd	r24, Y+40	; 0x28
    3264:	99 a5       	ldd	r25, Y+41	; 0x29
    3266:	0e 94 95 2c 	call	0x592a	; 0x592a <__mulsf3>
    326a:	2b 01       	movw	r4, r22
    326c:	3c 01       	movw	r6, r24
    326e:	a9 81       	ldd	r26, Y+1	; 0x01
    3270:	ba 81       	ldd	r27, Y+2	; 0x02
    3272:	2d 91       	ld	r18, X+
    3274:	3d 91       	ld	r19, X+
    3276:	4d 91       	ld	r20, X+
    3278:	5c 91       	ld	r21, X
    327a:	6a a5       	ldd	r22, Y+42	; 0x2a
    327c:	7b a5       	ldd	r23, Y+43	; 0x2b
    327e:	8c a5       	ldd	r24, Y+44	; 0x2c
    3280:	9d a5       	ldd	r25, Y+45	; 0x2d
    3282:	0e 94 95 2c 	call	0x592a	; 0x592a <__mulsf3>
    3286:	a7 01       	movw	r20, r14
    3288:	96 01       	movw	r18, r12
    328a:	0e 94 7c 2a 	call	0x54f8	; 0x54f8 <__divsf3>
    328e:	9b 01       	movw	r18, r22
    3290:	ac 01       	movw	r20, r24
    3292:	c3 01       	movw	r24, r6
    3294:	b2 01       	movw	r22, r4
    3296:	0e 94 98 29 	call	0x5330	; 0x5330 <__addsf3>
    329a:	a5 01       	movw	r20, r10
    329c:	94 01       	movw	r18, r8
    329e:	0e 94 95 2c 	call	0x592a	; 0x592a <__mulsf3>
    32a2:	2b 01       	movw	r4, r22
    32a4:	3c 01       	movw	r6, r24
    32a6:	f8 01       	movw	r30, r16
    32a8:	ed 52       	subi	r30, 0x2D	; 45
    32aa:	fd 4f       	sbci	r31, 0xFD	; 253
    32ac:	60 83       	st	Z, r22
    32ae:	71 83       	std	Z+1, r23	; 0x01
    32b0:	82 83       	std	Z+2, r24	; 0x02
    32b2:	93 83       	std	Z+3, r25	; 0x03
    32b4:	0d 89       	ldd	r16, Y+21	; 0x15
    32b6:	1e 89       	ldd	r17, Y+22	; 0x16
    32b8:	01 50       	subi	r16, 0x01	; 1
    32ba:	11 09       	sbc	r17, r1
    32bc:	c0 90 9b 02 	lds	r12, 0x029B
    32c0:	d0 90 9c 02 	lds	r13, 0x029C
    32c4:	e0 90 9d 02 	lds	r14, 0x029D
    32c8:	f0 90 9e 02 	lds	r15, 0x029E
    32cc:	00 0f       	add	r16, r16
    32ce:	11 1f       	adc	r17, r17
    32d0:	00 0f       	add	r16, r16
    32d2:	11 1f       	adc	r17, r17
    32d4:	f8 01       	movw	r30, r16
    32d6:	e9 56       	subi	r30, 0x69	; 105
    32d8:	fd 4f       	sbci	r31, 0xFD	; 253
    32da:	80 80       	ld	r8, Z
    32dc:	91 80       	ldd	r9, Z+1	; 0x01
    32de:	a2 80       	ldd	r10, Z+2	; 0x02
    32e0:	b3 80       	ldd	r11, Z+3	; 0x03
    32e2:	ed 89       	ldd	r30, Y+21	; 0x15
    32e4:	fe 89       	ldd	r31, Y+22	; 0x16
    32e6:	ee 0f       	add	r30, r30
    32e8:	ff 1f       	adc	r31, r31
    32ea:	ee 0f       	add	r30, r30
    32ec:	ff 1f       	adc	r31, r31
    32ee:	fe 8b       	std	Y+22, r31	; 0x16
    32f0:	ed 8b       	std	Y+21, r30	; 0x15
    32f2:	e5 5a       	subi	r30, 0xA5	; 165
    32f4:	fd 4f       	sbci	r31, 0xFD	; 253
    32f6:	fa 83       	std	Y+2, r31	; 0x02
    32f8:	e9 83       	std	Y+1, r30	; 0x01
    32fa:	05 5a       	subi	r16, 0xA5	; 165
    32fc:	1d 4f       	sbci	r17, 0xFD	; 253
    32fe:	d8 01       	movw	r26, r16
    3300:	2d 91       	ld	r18, X+
    3302:	3d 91       	ld	r19, X+
    3304:	4d 91       	ld	r20, X+
    3306:	5c 91       	ld	r21, X
    3308:	c7 01       	movw	r24, r14
    330a:	b6 01       	movw	r22, r12
    330c:	0e 94 95 2c 	call	0x592a	; 0x592a <__mulsf3>
    3310:	6e a7       	std	Y+46, r22	; 0x2e
    3312:	7f a7       	std	Y+47, r23	; 0x2f
    3314:	88 ab       	std	Y+48, r24	; 0x30
    3316:	99 ab       	std	Y+49, r25	; 0x31
    3318:	20 91 5f 02 	lds	r18, 0x025F
    331c:	30 91 60 02 	lds	r19, 0x0260
    3320:	40 91 61 02 	lds	r20, 0x0261
    3324:	50 91 62 02 	lds	r21, 0x0262
    3328:	c5 01       	movw	r24, r10
    332a:	b4 01       	movw	r22, r8
    332c:	0e 94 95 2c 	call	0x592a	; 0x592a <__mulsf3>
    3330:	9b 01       	movw	r18, r22
    3332:	ac 01       	movw	r20, r24
    3334:	6e a5       	ldd	r22, Y+46	; 0x2e
    3336:	7f a5       	ldd	r23, Y+47	; 0x2f
    3338:	88 a9       	ldd	r24, Y+48	; 0x30
    333a:	99 a9       	ldd	r25, Y+49	; 0x31
    333c:	0e 94 98 29 	call	0x5330	; 0x5330 <__addsf3>
    3340:	e9 81       	ldd	r30, Y+1	; 0x01
    3342:	fa 81       	ldd	r31, Y+2	; 0x02
    3344:	60 83       	st	Z, r22
    3346:	71 83       	std	Z+1, r23	; 0x01
    3348:	82 83       	std	Z+2, r24	; 0x02
    334a:	93 83       	std	Z+3, r25	; 0x03
    334c:	2d 89       	ldd	r18, Y+21	; 0x15
    334e:	3e 89       	ldd	r19, Y+22	; 0x16
    3350:	29 56       	subi	r18, 0x69	; 105
    3352:	3d 4f       	sbci	r19, 0xFD	; 253
    3354:	3a 83       	std	Y+2, r19	; 0x02
    3356:	29 83       	std	Y+1, r18	; 0x01
    3358:	a5 01       	movw	r20, r10
    335a:	94 01       	movw	r18, r8
    335c:	c7 01       	movw	r24, r14
    335e:	b6 01       	movw	r22, r12
    3360:	0e 94 95 2c 	call	0x592a	; 0x592a <__mulsf3>
    3364:	6b 01       	movw	r12, r22
    3366:	7c 01       	movw	r14, r24
    3368:	20 91 5f 02 	lds	r18, 0x025F
    336c:	30 91 60 02 	lds	r19, 0x0260
    3370:	40 91 61 02 	lds	r20, 0x0261
    3374:	50 91 62 02 	lds	r21, 0x0262
    3378:	d8 01       	movw	r26, r16
    337a:	6d 91       	ld	r22, X+
    337c:	7d 91       	ld	r23, X+
    337e:	8d 91       	ld	r24, X+
    3380:	9c 91       	ld	r25, X
    3382:	0e 94 95 2c 	call	0x592a	; 0x592a <__mulsf3>
    3386:	9b 01       	movw	r18, r22
    3388:	ac 01       	movw	r20, r24
    338a:	c7 01       	movw	r24, r14
    338c:	b6 01       	movw	r22, r12
    338e:	0e 94 97 29 	call	0x532e	; 0x532e <__subsf3>
    3392:	e9 81       	ldd	r30, Y+1	; 0x01
    3394:	fa 81       	ldd	r31, Y+2	; 0x02
    3396:	60 83       	st	Z, r22
    3398:	71 83       	std	Z+1, r23	; 0x01
    339a:	82 83       	std	Z+2, r24	; 0x02
    339c:	93 83       	std	Z+3, r25	; 0x03
    339e:	13 2d       	mov	r17, r3
    33a0:	39 88       	ldd	r3, Y+17	; 0x11
    33a2:	0a a1       	ldd	r16, Y+34	; 0x22
    33a4:	e8 cc       	rjmp	.-1584   	; 0x2d76 <igrf+0x6ec>
    33a6:	c7 01       	movw	r24, r14
    33a8:	b6 01       	movw	r22, r12
    33aa:	0e 94 95 2c 	call	0x592a	; 0x592a <__mulsf3>
    33ae:	6b 01       	movw	r12, r22
    33b0:	7c 01       	movw	r14, r24
    33b2:	2d 81       	ldd	r18, Y+5	; 0x05
    33b4:	3e 81       	ldd	r19, Y+6	; 0x06
    33b6:	4f 81       	ldd	r20, Y+7	; 0x07
    33b8:	58 85       	ldd	r21, Y+8	; 0x08
    33ba:	69 89       	ldd	r22, Y+17	; 0x11
    33bc:	7a 89       	ldd	r23, Y+18	; 0x12
    33be:	8b 89       	ldd	r24, Y+19	; 0x13
    33c0:	9c 89       	ldd	r25, Y+20	; 0x14
    33c2:	0e 94 95 2c 	call	0x592a	; 0x592a <__mulsf3>
    33c6:	9b 01       	movw	r18, r22
    33c8:	ac 01       	movw	r20, r24
    33ca:	c7 01       	movw	r24, r14
    33cc:	b6 01       	movw	r22, r12
    33ce:	0e 94 97 29 	call	0x532e	; 0x532e <__subsf3>
    33d2:	a3 01       	movw	r20, r6
    33d4:	92 01       	movw	r18, r4
    33d6:	0e 94 95 2c 	call	0x592a	; 0x592a <__mulsf3>
    33da:	2a a5       	ldd	r18, Y+42	; 0x2a
    33dc:	3b a5       	ldd	r19, Y+43	; 0x2b
    33de:	4c a5       	ldd	r20, Y+44	; 0x2c
    33e0:	5d a5       	ldd	r21, Y+45	; 0x2d
    33e2:	0e 94 95 2c 	call	0x592a	; 0x592a <__mulsf3>
    33e6:	9b 01       	movw	r18, r22
    33e8:	ac 01       	movw	r20, r24
    33ea:	28 96       	adiw	r28, 0x08	; 8
    33ec:	6c ad       	ldd	r22, Y+60	; 0x3c
    33ee:	7d ad       	ldd	r23, Y+61	; 0x3d
    33f0:	8e ad       	ldd	r24, Y+62	; 0x3e
    33f2:	9f ad       	ldd	r25, Y+63	; 0x3f
    33f4:	28 97       	sbiw	r28, 0x08	; 8
    33f6:	0e 94 98 29 	call	0x5330	; 0x5330 <__addsf3>
    33fa:	28 96       	adiw	r28, 0x08	; 8
    33fc:	6c af       	std	Y+60, r22	; 0x3c
    33fe:	7d af       	std	Y+61, r23	; 0x3d
    3400:	8e af       	std	Y+62, r24	; 0x3e
    3402:	9f af       	std	Y+63, r25	; 0x3f
    3404:	28 97       	sbiw	r28, 0x08	; 8
    3406:	39 ce       	rjmp	.-910    	; 0x307a <igrf+0x9f0>
    3408:	1e aa       	std	Y+54, r1	; 0x36
    340a:	1f aa       	std	Y+55, r1	; 0x37
    340c:	18 ae       	std	Y+56, r1	; 0x38
    340e:	19 ae       	std	Y+57, r1	; 0x39
    3410:	28 96       	adiw	r28, 0x08	; 8
    3412:	1c ae       	std	Y+60, r1	; 0x3c
    3414:	1d ae       	std	Y+61, r1	; 0x3d
    3416:	1e ae       	std	Y+62, r1	; 0x3e
    3418:	1f ae       	std	Y+63, r1	; 0x3f
    341a:	28 97       	sbiw	r28, 0x08	; 8
    341c:	1a aa       	std	Y+50, r1	; 0x32
    341e:	1b aa       	std	Y+51, r1	; 0x33
    3420:	1c aa       	std	Y+52, r1	; 0x34
    3422:	1d aa       	std	Y+53, r1	; 0x35
    3424:	36 ce       	rjmp	.-916    	; 0x3092 <igrf+0xa08>
    3426:	82 2f       	mov	r24, r18
    3428:	90 e0       	ldi	r25, 0x00	; 0
    342a:	88 0f       	add	r24, r24
    342c:	99 1f       	adc	r25, r25
    342e:	88 0f       	add	r24, r24
    3430:	99 1f       	adc	r25, r25
    3432:	fc 01       	movw	r30, r24
    3434:	ed 52       	subi	r30, 0x2D	; 45
    3436:	fd 4f       	sbci	r31, 0xFD	; 253
    3438:	40 80       	ld	r4, Z
    343a:	51 80       	ldd	r5, Z+1	; 0x01
    343c:	62 80       	ldd	r6, Z+2	; 0x02
    343e:	73 80       	ldd	r7, Z+3	; 0x03
    3440:	fc 01       	movw	r30, r24
    3442:	e5 56       	subi	r30, 0x65	; 101
    3444:	fc 4f       	sbci	r31, 0xFC	; 252
    3446:	10 81       	ld	r17, Z
    3448:	21 80       	ldd	r2, Z+1	; 0x01
    344a:	32 80       	ldd	r3, Z+2	; 0x02
    344c:	03 81       	ldd	r16, Z+3	; 0x03
    344e:	93 cc       	rjmp	.-1754   	; 0x2d76 <igrf+0x6ec>

00003450 <init_UART_MM>:
      transmit_string_UART0(sy);
      transmit_UART0(' ');
      transmit_string_UART0(sz);
      transmit_UART0('\r');
	  */
}
    3450:	cf 93       	push	r28
    3452:	df 93       	push	r29
    3454:	cb e9       	ldi	r28, 0x9B	; 155
    3456:	d0 e0       	ldi	r29, 0x00	; 0
    3458:	18 82       	st	Y, r1
    345a:	aa e9       	ldi	r26, 0x9A	; 154
    345c:	b0 e0       	ldi	r27, 0x00	; 0
    345e:	1c 92       	st	X, r1
    3460:	ed e9       	ldi	r30, 0x9D	; 157
    3462:	f0 e0       	ldi	r31, 0x00	; 0
    3464:	10 82       	st	Z, r1
    3466:	88 81       	ld	r24, Y
    3468:	82 60       	ori	r24, 0x02	; 2
    346a:	88 83       	st	Y, r24
    346c:	8c 91       	ld	r24, X
    346e:	88 69       	ori	r24, 0x98	; 152
    3470:	8c 93       	st	X, r24
    3472:	80 81       	ld	r24, Z
    3474:	86 60       	ori	r24, 0x06	; 6
    3476:	80 83       	st	Z, r24
    3478:	87 e6       	ldi	r24, 0x67	; 103
    347a:	80 93 99 00 	sts	0x0099, r24
    347e:	10 92 98 00 	sts	0x0098, r1
    3482:	df 91       	pop	r29
    3484:	cf 91       	pop	r28
    3486:	08 95       	ret

00003488 <__vector_30>:
ISR(USART1_RX_vect)//ISR for Magmeter UART
{
    3488:	1f 92       	push	r1
    348a:	0f 92       	push	r0
    348c:	0f b6       	in	r0, 0x3f	; 63
    348e:	0f 92       	push	r0
    3490:	11 24       	eor	r1, r1
    3492:	0b b6       	in	r0, 0x3b	; 59
    3494:	0f 92       	push	r0
    3496:	0f 93       	push	r16
    3498:	1f 93       	push	r17
    349a:	2f 93       	push	r18
    349c:	3f 93       	push	r19
    349e:	4f 93       	push	r20
    34a0:	5f 93       	push	r21
    34a2:	6f 93       	push	r22
    34a4:	7f 93       	push	r23
    34a6:	8f 93       	push	r24
    34a8:	9f 93       	push	r25
    34aa:	af 93       	push	r26
    34ac:	bf 93       	push	r27
    34ae:	cf 93       	push	r28
    34b0:	df 93       	push	r29
    34b2:	ef 93       	push	r30
    34b4:	ff 93       	push	r31
	int16_t x, y, z;
	mag_data[mag_count] = UDR1;
    34b6:	80 91 63 04 	lds	r24, 0x0463
    34ba:	90 91 9c 00 	lds	r25, 0x009C
    34be:	e8 2f       	mov	r30, r24
    34c0:	f0 e0       	ldi	r31, 0x00	; 0
    34c2:	e6 52       	subi	r30, 0x26	; 38
    34c4:	fb 4f       	sbci	r31, 0xFB	; 251
    34c6:	90 83       	st	Z, r25
	mag_count++;
    34c8:	8f 5f       	subi	r24, 0xFF	; 255
	if (mag_count == 7)
    34ca:	87 30       	cpi	r24, 0x07	; 7
    34cc:	c9 f0       	breq	.+50     	; 0x3500 <__vector_30+0x78>
}
ISR(USART1_RX_vect)//ISR for Magmeter UART
{
	int16_t x, y, z;
	mag_data[mag_count] = UDR1;
	mag_count++;
    34ce:	80 93 63 04 	sts	0x0463, r24
		///Convert the readings to Gauss
		Current_state.mm.B_x = ((float) x) / 15000;
		Current_state.mm.B_y = ((float) y) / 15000;
		Current_state.mm.B_z = ((float) z) / 15000;
	}
}
    34d2:	ff 91       	pop	r31
    34d4:	ef 91       	pop	r30
    34d6:	df 91       	pop	r29
    34d8:	cf 91       	pop	r28
    34da:	bf 91       	pop	r27
    34dc:	af 91       	pop	r26
    34de:	9f 91       	pop	r25
    34e0:	8f 91       	pop	r24
    34e2:	7f 91       	pop	r23
    34e4:	6f 91       	pop	r22
    34e6:	5f 91       	pop	r21
    34e8:	4f 91       	pop	r20
    34ea:	3f 91       	pop	r19
    34ec:	2f 91       	pop	r18
    34ee:	1f 91       	pop	r17
    34f0:	0f 91       	pop	r16
    34f2:	0f 90       	pop	r0
    34f4:	0b be       	out	0x3b, r0	; 59
    34f6:	0f 90       	pop	r0
    34f8:	0f be       	out	0x3f, r0	; 63
    34fa:	0f 90       	pop	r0
    34fc:	1f 90       	pop	r1
    34fe:	18 95       	reti
	int16_t x, y, z;
	mag_data[mag_count] = UDR1;
	mag_count++;
	if (mag_count == 7)
	{
		mag_count = 0;
    3500:	10 92 63 04 	sts	0x0463, r1
		x = ((int16_t)mag_data[0])<<8;
    3504:	60 91 da 04 	lds	r22, 0x04DA
    3508:	70 e0       	ldi	r23, 0x00	; 0
    350a:	76 2f       	mov	r23, r22
    350c:	66 27       	eor	r22, r22
		x &= 0xFF00;
		x |= (int16_t)mag_data[1];
		
		
		y = ((int16_t)mag_data[2]) << 8;
    350e:	00 91 dc 04 	lds	r16, 0x04DC
    3512:	10 e0       	ldi	r17, 0x00	; 0
    3514:	10 2f       	mov	r17, r16
    3516:	00 27       	eor	r16, r16
		y &= 0xFF00;
		y |= (int16_t)mag_data[3];
    3518:	80 91 dd 04 	lds	r24, 0x04DD
    351c:	08 2b       	or	r16, r24
		
		z = ((int16_t)mag_data[4]) << 8;
    351e:	c0 91 de 04 	lds	r28, 0x04DE
    3522:	d0 e0       	ldi	r29, 0x00	; 0
    3524:	dc 2f       	mov	r29, r28
    3526:	cc 27       	eor	r28, r28
		z &= 0xFF00;
		z |= (int16_t)mag_data[5];
    3528:	80 91 df 04 	lds	r24, 0x04DF
    352c:	c8 2b       	or	r28, r24
	if (mag_count == 7)
	{
		mag_count = 0;
		x = ((int16_t)mag_data[0])<<8;
		x &= 0xFF00;
		x |= (int16_t)mag_data[1];
    352e:	80 91 db 04 	lds	r24, 0x04DB
    3532:	68 2b       	or	r22, r24
		z = ((int16_t)mag_data[4]) << 8;
		z &= 0xFF00;
		z |= (int16_t)mag_data[5];
		
		///Convert the readings to Gauss
		Current_state.mm.B_x = ((float) x) / 15000;
    3534:	88 27       	eor	r24, r24
    3536:	77 fd       	sbrc	r23, 7
    3538:	80 95       	com	r24
    353a:	98 2f       	mov	r25, r24
    353c:	0e 94 12 2b 	call	0x5624	; 0x5624 <__floatsisf>
    3540:	20 e0       	ldi	r18, 0x00	; 0
    3542:	30 e6       	ldi	r19, 0x60	; 96
    3544:	4a e6       	ldi	r20, 0x6A	; 106
    3546:	56 e4       	ldi	r21, 0x46	; 70
    3548:	0e 94 7c 2a 	call	0x54f8	; 0x54f8 <__divsf3>
    354c:	60 93 34 05 	sts	0x0534, r22
    3550:	70 93 35 05 	sts	0x0535, r23
    3554:	80 93 36 05 	sts	0x0536, r24
    3558:	90 93 37 05 	sts	0x0537, r25
		Current_state.mm.B_y = ((float) y) / 15000;
    355c:	b8 01       	movw	r22, r16
    355e:	88 27       	eor	r24, r24
    3560:	77 fd       	sbrc	r23, 7
    3562:	80 95       	com	r24
    3564:	98 2f       	mov	r25, r24
    3566:	0e 94 12 2b 	call	0x5624	; 0x5624 <__floatsisf>
    356a:	20 e0       	ldi	r18, 0x00	; 0
    356c:	30 e6       	ldi	r19, 0x60	; 96
    356e:	4a e6       	ldi	r20, 0x6A	; 106
    3570:	56 e4       	ldi	r21, 0x46	; 70
    3572:	0e 94 7c 2a 	call	0x54f8	; 0x54f8 <__divsf3>
    3576:	60 93 38 05 	sts	0x0538, r22
    357a:	70 93 39 05 	sts	0x0539, r23
    357e:	80 93 3a 05 	sts	0x053A, r24
    3582:	90 93 3b 05 	sts	0x053B, r25
		Current_state.mm.B_z = ((float) z) / 15000;
    3586:	be 01       	movw	r22, r28
    3588:	88 27       	eor	r24, r24
    358a:	77 fd       	sbrc	r23, 7
    358c:	80 95       	com	r24
    358e:	98 2f       	mov	r25, r24
    3590:	0e 94 12 2b 	call	0x5624	; 0x5624 <__floatsisf>
    3594:	20 e0       	ldi	r18, 0x00	; 0
    3596:	30 e6       	ldi	r19, 0x60	; 96
    3598:	4a e6       	ldi	r20, 0x6A	; 106
    359a:	56 e4       	ldi	r21, 0x46	; 70
    359c:	0e 94 7c 2a 	call	0x54f8	; 0x54f8 <__divsf3>
    35a0:	60 93 3c 05 	sts	0x053C, r22
    35a4:	70 93 3d 05 	sts	0x053D, r23
    35a8:	80 93 3e 05 	sts	0x053E, r24
    35ac:	90 93 3f 05 	sts	0x053F, r25
    35b0:	90 cf       	rjmp	.-224    	; 0x34d2 <__vector_30+0x4a>

000035b2 <poll_MM>:
}
	
	

void poll_MM(void)
{
    35b2:	ea ed       	ldi	r30, 0xDA	; 218
    35b4:	f1 e0       	ldi	r31, 0x01	; 1
}

void send_MM_cmd(char *data)
{
  ///Send the char array till stop
  while((*data) != '\0')
    35b6:	9a e2       	ldi	r25, 0x2A	; 42
  {
    ///* Wait for empty transmit buffer 
    while ( !(UCSR1A & (_BV(UDRE1))) );
    35b8:	80 91 9b 00 	lds	r24, 0x009B
    35bc:	85 ff       	sbrs	r24, 5
    35be:	fc cf       	rjmp	.-8      	; 0x35b8 <poll_MM+0x6>
    ///* Start transmission
    UDR1 = *data;
    35c0:	90 93 9c 00 	sts	0x009C, r25
}

void send_MM_cmd(char *data)
{
  ///Send the char array till stop
  while((*data) != '\0')
    35c4:	91 91       	ld	r25, Z+
    35c6:	91 11       	cpse	r25, r1
    35c8:	f7 cf       	rjmp	.-18     	; 0x35b8 <poll_MM+0x6>
  
  ///Send the poll command
 send_MM_cmd("*00P\r");
  
  
}
    35ca:	08 95       	ret

000035cc <main>:
 */

int main(void){
    
  /// Initialise Interfaces - UART of Magnetometer and GPS and the SPI bus
  init_UART_MM();
    35cc:	41 df       	rcall	.-382    	; 0x3450 <init_UART_MM>
  init_UART_GPS();
    35ce:	0e 94 f6 0e 	call	0x1dec	; 0x1dec <init_UART_GPS>
  init_SPI();
    35d2:	0e 94 3e 28 	call	0x507c	; 0x507c <init_SPI>
  init_UART0();
    35d6:	0e 94 74 29 	call	0x52e8	; 0x52e8 <init_UART0>
  ///Configure the magnetometer
  //configure_MM();
  DDRA=0xf0;
    35da:	80 ef       	ldi	r24, 0xF0	; 240
    35dc:	8a bb       	out	0x1a, r24	; 26
  PORTA = 0xE0;
    35de:	80 ee       	ldi	r24, 0xE0	; 224
    35e0:	8b bb       	out	0x1b, r24	; 27
	#else
		//round up by default
		__ticks_dc = (uint32_t)(ceil(fabs(__tmp)));
	#endif

	__builtin_avr_delay_cycles(__ticks_dc);
    35e2:	2f ef       	ldi	r18, 0xFF	; 255
    35e4:	82 e5       	ldi	r24, 0x52	; 82
    35e6:	97 e0       	ldi	r25, 0x07	; 7
    35e8:	21 50       	subi	r18, 0x01	; 1
    35ea:	80 40       	sbci	r24, 0x00	; 0
    35ec:	90 40       	sbci	r25, 0x00	; 0
    35ee:	e1 f7       	brne	.-8      	; 0x35e8 <main+0x1c>
    35f0:	00 c0       	rjmp	.+0      	; 0x35f2 <main+0x26>
    35f2:	00 00       	nop
	  
    ///Wait for all components to switch on
    _delay_ms(300);
    
    ///* Switch on Global interrupts
    sei();
    35f4:	78 94       	sei
    
    ///* Set default mode of Satellite
    //Mode = DETUMBLING;
   // Mode = NOMINAL;
    ///* initialise Timer
    Time = 0;
    35f6:	10 92 50 05 	sts	0x0550, r1
    35fa:	10 92 51 05 	sts	0x0551, r1
    35fe:	10 92 52 05 	sts	0x0552, r1
    3602:	10 92 53 05 	sts	0x0553, r1
    3606:	10 92 54 05 	sts	0x0554, r1
    360a:	10 92 55 05 	sts	0x0555, r1
    360e:	10 92 56 05 	sts	0x0556, r1
    3612:	10 92 57 05 	sts	0x0557, r1
      /**
      * * * * Task 1: Control codes
       * @ref control
       */
	  
      control();
    3616:	0e 94 6e 06 	call	0xcdc	; 0xcdc <control>
      * @ref comm
      */
      //comm();
      
      ///* * Increment the Timer
      Time += FRAME_TIME;
    361a:	20 91 50 05 	lds	r18, 0x0550
    361e:	30 91 51 05 	lds	r19, 0x0551
    3622:	40 91 52 05 	lds	r20, 0x0552
    3626:	50 91 53 05 	lds	r21, 0x0553
    362a:	60 91 54 05 	lds	r22, 0x0554
    362e:	70 91 55 05 	lds	r23, 0x0555
    3632:	80 91 56 05 	lds	r24, 0x0556
    3636:	90 91 57 05 	lds	r25, 0x0557
    363a:	a2 e0       	ldi	r26, 0x02	; 2
    363c:	0e 94 df 2e 	call	0x5dbe	; 0x5dbe <__adddi3_s8>
    3640:	20 93 50 05 	sts	0x0550, r18
    3644:	30 93 51 05 	sts	0x0551, r19
    3648:	40 93 52 05 	sts	0x0552, r20
    364c:	50 93 53 05 	sts	0x0553, r21
    3650:	60 93 54 05 	sts	0x0554, r22
    3654:	70 93 55 05 	sts	0x0555, r23
    3658:	80 93 56 05 	sts	0x0556, r24
    365c:	90 93 57 05 	sts	0x0557, r25
    3660:	da cf       	rjmp	.-76     	; 0x3616 <main+0x4a>

00003662 <copy_vector>:
    3662:	cf 93       	push	r28
    3664:	df 93       	push	r29
    3666:	fc 01       	movw	r30, r24
    3668:	eb 01       	movw	r28, r22
    366a:	40 81       	ld	r20, Z
    366c:	51 81       	ldd	r21, Z+1	; 0x01
    366e:	62 81       	ldd	r22, Z+2	; 0x02
    3670:	73 81       	ldd	r23, Z+3	; 0x03
    3672:	48 83       	st	Y, r20
    3674:	59 83       	std	Y+1, r21	; 0x01
    3676:	6a 83       	std	Y+2, r22	; 0x02
    3678:	7b 83       	std	Y+3, r23	; 0x03
    367a:	44 81       	ldd	r20, Z+4	; 0x04
    367c:	55 81       	ldd	r21, Z+5	; 0x05
    367e:	66 81       	ldd	r22, Z+6	; 0x06
    3680:	77 81       	ldd	r23, Z+7	; 0x07
    3682:	4c 83       	std	Y+4, r20	; 0x04
    3684:	5d 83       	std	Y+5, r21	; 0x05
    3686:	6e 83       	std	Y+6, r22	; 0x06
    3688:	7f 83       	std	Y+7, r23	; 0x07
    368a:	80 85       	ldd	r24, Z+8	; 0x08
    368c:	91 85       	ldd	r25, Z+9	; 0x09
    368e:	a2 85       	ldd	r26, Z+10	; 0x0a
    3690:	b3 85       	ldd	r27, Z+11	; 0x0b
    3692:	88 87       	std	Y+8, r24	; 0x08
    3694:	99 87       	std	Y+9, r25	; 0x09
    3696:	aa 87       	std	Y+10, r26	; 0x0a
    3698:	bb 87       	std	Y+11, r27	; 0x0b
    369a:	df 91       	pop	r29
    369c:	cf 91       	pop	r28
    369e:	08 95       	ret

000036a0 <copy_quaternion>:
    36a0:	dc 01       	movw	r26, r24
    36a2:	fb 01       	movw	r30, r22
    36a4:	84 e0       	ldi	r24, 0x04	; 4
    36a6:	4d 91       	ld	r20, X+
    36a8:	5d 91       	ld	r21, X+
    36aa:	6d 91       	ld	r22, X+
    36ac:	7d 91       	ld	r23, X+
    36ae:	41 93       	st	Z+, r20
    36b0:	51 93       	st	Z+, r21
    36b2:	61 93       	st	Z+, r22
    36b4:	71 93       	st	Z+, r23
    36b6:	81 50       	subi	r24, 0x01	; 1
    36b8:	b1 f7       	brne	.-20     	; 0x36a6 <copy_quaternion+0x6>
    36ba:	08 95       	ret

000036bc <vector_norm>:
    36bc:	4f 92       	push	r4
    36be:	5f 92       	push	r5
    36c0:	6f 92       	push	r6
    36c2:	7f 92       	push	r7
    36c4:	8f 92       	push	r8
    36c6:	9f 92       	push	r9
    36c8:	af 92       	push	r10
    36ca:	bf 92       	push	r11
    36cc:	cf 92       	push	r12
    36ce:	df 92       	push	r13
    36d0:	ef 92       	push	r14
    36d2:	ff 92       	push	r15
    36d4:	fc 01       	movw	r30, r24
    36d6:	60 81       	ld	r22, Z
    36d8:	71 81       	ldd	r23, Z+1	; 0x01
    36da:	82 81       	ldd	r24, Z+2	; 0x02
    36dc:	93 81       	ldd	r25, Z+3	; 0x03
    36de:	84 80       	ldd	r8, Z+4	; 0x04
    36e0:	95 80       	ldd	r9, Z+5	; 0x05
    36e2:	a6 80       	ldd	r10, Z+6	; 0x06
    36e4:	b7 80       	ldd	r11, Z+7	; 0x07
    36e6:	c0 84       	ldd	r12, Z+8	; 0x08
    36e8:	d1 84       	ldd	r13, Z+9	; 0x09
    36ea:	e2 84       	ldd	r14, Z+10	; 0x0a
    36ec:	f3 84       	ldd	r15, Z+11	; 0x0b
    36ee:	9b 01       	movw	r18, r22
    36f0:	ac 01       	movw	r20, r24
    36f2:	0e 94 95 2c 	call	0x592a	; 0x592a <__mulsf3>
    36f6:	2b 01       	movw	r4, r22
    36f8:	3c 01       	movw	r6, r24
    36fa:	a5 01       	movw	r20, r10
    36fc:	94 01       	movw	r18, r8
    36fe:	c5 01       	movw	r24, r10
    3700:	b4 01       	movw	r22, r8
    3702:	0e 94 95 2c 	call	0x592a	; 0x592a <__mulsf3>
    3706:	9b 01       	movw	r18, r22
    3708:	ac 01       	movw	r20, r24
    370a:	c3 01       	movw	r24, r6
    370c:	b2 01       	movw	r22, r4
    370e:	0e 94 98 29 	call	0x5330	; 0x5330 <__addsf3>
    3712:	4b 01       	movw	r8, r22
    3714:	5c 01       	movw	r10, r24
    3716:	a7 01       	movw	r20, r14
    3718:	96 01       	movw	r18, r12
    371a:	c7 01       	movw	r24, r14
    371c:	b6 01       	movw	r22, r12
    371e:	0e 94 95 2c 	call	0x592a	; 0x592a <__mulsf3>
    3722:	9b 01       	movw	r18, r22
    3724:	ac 01       	movw	r20, r24
    3726:	c5 01       	movw	r24, r10
    3728:	b4 01       	movw	r22, r8
    372a:	0e 94 98 29 	call	0x5330	; 0x5330 <__addsf3>
    372e:	ff 90       	pop	r15
    3730:	ef 90       	pop	r14
    3732:	df 90       	pop	r13
    3734:	cf 90       	pop	r12
    3736:	bf 90       	pop	r11
    3738:	af 90       	pop	r10
    373a:	9f 90       	pop	r9
    373c:	8f 90       	pop	r8
    373e:	7f 90       	pop	r7
    3740:	6f 90       	pop	r6
    3742:	5f 90       	pop	r5
    3744:	4f 90       	pop	r4
    3746:	0c 94 4e 2d 	jmp	0x5a9c	; 0x5a9c <sqrt>

0000374a <quaternion_norm>:
    374a:	4f 92       	push	r4
    374c:	5f 92       	push	r5
    374e:	6f 92       	push	r6
    3750:	7f 92       	push	r7
    3752:	8f 92       	push	r8
    3754:	9f 92       	push	r9
    3756:	af 92       	push	r10
    3758:	bf 92       	push	r11
    375a:	cf 92       	push	r12
    375c:	df 92       	push	r13
    375e:	ef 92       	push	r14
    3760:	ff 92       	push	r15
    3762:	cf 93       	push	r28
    3764:	df 93       	push	r29
    3766:	00 d0       	rcall	.+0      	; 0x3768 <quaternion_norm+0x1e>
    3768:	00 d0       	rcall	.+0      	; 0x376a <quaternion_norm+0x20>
    376a:	cd b7       	in	r28, 0x3d	; 61
    376c:	de b7       	in	r29, 0x3e	; 62
    376e:	fc 01       	movw	r30, r24
    3770:	60 81       	ld	r22, Z
    3772:	71 81       	ldd	r23, Z+1	; 0x01
    3774:	82 81       	ldd	r24, Z+2	; 0x02
    3776:	93 81       	ldd	r25, Z+3	; 0x03
    3778:	84 80       	ldd	r8, Z+4	; 0x04
    377a:	95 80       	ldd	r9, Z+5	; 0x05
    377c:	a6 80       	ldd	r10, Z+6	; 0x06
    377e:	b7 80       	ldd	r11, Z+7	; 0x07
    3780:	c0 84       	ldd	r12, Z+8	; 0x08
    3782:	d1 84       	ldd	r13, Z+9	; 0x09
    3784:	e2 84       	ldd	r14, Z+10	; 0x0a
    3786:	f3 84       	ldd	r15, Z+11	; 0x0b
    3788:	44 84       	ldd	r4, Z+12	; 0x0c
    378a:	55 84       	ldd	r5, Z+13	; 0x0d
    378c:	66 84       	ldd	r6, Z+14	; 0x0e
    378e:	77 84       	ldd	r7, Z+15	; 0x0f
    3790:	9b 01       	movw	r18, r22
    3792:	ac 01       	movw	r20, r24
    3794:	0e 94 95 2c 	call	0x592a	; 0x592a <__mulsf3>
    3798:	69 83       	std	Y+1, r22	; 0x01
    379a:	7a 83       	std	Y+2, r23	; 0x02
    379c:	8b 83       	std	Y+3, r24	; 0x03
    379e:	9c 83       	std	Y+4, r25	; 0x04
    37a0:	a5 01       	movw	r20, r10
    37a2:	94 01       	movw	r18, r8
    37a4:	c5 01       	movw	r24, r10
    37a6:	b4 01       	movw	r22, r8
    37a8:	0e 94 95 2c 	call	0x592a	; 0x592a <__mulsf3>
    37ac:	9b 01       	movw	r18, r22
    37ae:	ac 01       	movw	r20, r24
    37b0:	69 81       	ldd	r22, Y+1	; 0x01
    37b2:	7a 81       	ldd	r23, Y+2	; 0x02
    37b4:	8b 81       	ldd	r24, Y+3	; 0x03
    37b6:	9c 81       	ldd	r25, Y+4	; 0x04
    37b8:	0e 94 98 29 	call	0x5330	; 0x5330 <__addsf3>
    37bc:	4b 01       	movw	r8, r22
    37be:	5c 01       	movw	r10, r24
    37c0:	a7 01       	movw	r20, r14
    37c2:	96 01       	movw	r18, r12
    37c4:	c7 01       	movw	r24, r14
    37c6:	b6 01       	movw	r22, r12
    37c8:	0e 94 95 2c 	call	0x592a	; 0x592a <__mulsf3>
    37cc:	9b 01       	movw	r18, r22
    37ce:	ac 01       	movw	r20, r24
    37d0:	c5 01       	movw	r24, r10
    37d2:	b4 01       	movw	r22, r8
    37d4:	0e 94 98 29 	call	0x5330	; 0x5330 <__addsf3>
    37d8:	6b 01       	movw	r12, r22
    37da:	7c 01       	movw	r14, r24
    37dc:	a3 01       	movw	r20, r6
    37de:	92 01       	movw	r18, r4
    37e0:	c3 01       	movw	r24, r6
    37e2:	b2 01       	movw	r22, r4
    37e4:	0e 94 95 2c 	call	0x592a	; 0x592a <__mulsf3>
    37e8:	9b 01       	movw	r18, r22
    37ea:	ac 01       	movw	r20, r24
    37ec:	c7 01       	movw	r24, r14
    37ee:	b6 01       	movw	r22, r12
    37f0:	0e 94 98 29 	call	0x5330	; 0x5330 <__addsf3>
    37f4:	0f 90       	pop	r0
    37f6:	0f 90       	pop	r0
    37f8:	0f 90       	pop	r0
    37fa:	0f 90       	pop	r0
    37fc:	df 91       	pop	r29
    37fe:	cf 91       	pop	r28
    3800:	ff 90       	pop	r15
    3802:	ef 90       	pop	r14
    3804:	df 90       	pop	r13
    3806:	cf 90       	pop	r12
    3808:	bf 90       	pop	r11
    380a:	af 90       	pop	r10
    380c:	9f 90       	pop	r9
    380e:	8f 90       	pop	r8
    3810:	7f 90       	pop	r7
    3812:	6f 90       	pop	r6
    3814:	5f 90       	pop	r5
    3816:	4f 90       	pop	r4
    3818:	0c 94 4e 2d 	jmp	0x5a9c	; 0x5a9c <sqrt>

0000381c <vector_dot_product>:
    381c:	cf 92       	push	r12
    381e:	df 92       	push	r13
    3820:	ef 92       	push	r14
    3822:	ff 92       	push	r15
    3824:	0f 93       	push	r16
    3826:	1f 93       	push	r17
    3828:	cf 93       	push	r28
    382a:	df 93       	push	r29
    382c:	ec 01       	movw	r28, r24
    382e:	8b 01       	movw	r16, r22
    3830:	fb 01       	movw	r30, r22
    3832:	20 81       	ld	r18, Z
    3834:	31 81       	ldd	r19, Z+1	; 0x01
    3836:	42 81       	ldd	r20, Z+2	; 0x02
    3838:	53 81       	ldd	r21, Z+3	; 0x03
    383a:	68 81       	ld	r22, Y
    383c:	79 81       	ldd	r23, Y+1	; 0x01
    383e:	8a 81       	ldd	r24, Y+2	; 0x02
    3840:	9b 81       	ldd	r25, Y+3	; 0x03
    3842:	0e 94 95 2c 	call	0x592a	; 0x592a <__mulsf3>
    3846:	6b 01       	movw	r12, r22
    3848:	7c 01       	movw	r14, r24
    384a:	f8 01       	movw	r30, r16
    384c:	24 81       	ldd	r18, Z+4	; 0x04
    384e:	35 81       	ldd	r19, Z+5	; 0x05
    3850:	46 81       	ldd	r20, Z+6	; 0x06
    3852:	57 81       	ldd	r21, Z+7	; 0x07
    3854:	6c 81       	ldd	r22, Y+4	; 0x04
    3856:	7d 81       	ldd	r23, Y+5	; 0x05
    3858:	8e 81       	ldd	r24, Y+6	; 0x06
    385a:	9f 81       	ldd	r25, Y+7	; 0x07
    385c:	0e 94 95 2c 	call	0x592a	; 0x592a <__mulsf3>
    3860:	9b 01       	movw	r18, r22
    3862:	ac 01       	movw	r20, r24
    3864:	c7 01       	movw	r24, r14
    3866:	b6 01       	movw	r22, r12
    3868:	0e 94 98 29 	call	0x5330	; 0x5330 <__addsf3>
    386c:	6b 01       	movw	r12, r22
    386e:	7c 01       	movw	r14, r24
    3870:	f8 01       	movw	r30, r16
    3872:	20 85       	ldd	r18, Z+8	; 0x08
    3874:	31 85       	ldd	r19, Z+9	; 0x09
    3876:	42 85       	ldd	r20, Z+10	; 0x0a
    3878:	53 85       	ldd	r21, Z+11	; 0x0b
    387a:	68 85       	ldd	r22, Y+8	; 0x08
    387c:	79 85       	ldd	r23, Y+9	; 0x09
    387e:	8a 85       	ldd	r24, Y+10	; 0x0a
    3880:	9b 85       	ldd	r25, Y+11	; 0x0b
    3882:	0e 94 95 2c 	call	0x592a	; 0x592a <__mulsf3>
    3886:	9b 01       	movw	r18, r22
    3888:	ac 01       	movw	r20, r24
    388a:	c7 01       	movw	r24, r14
    388c:	b6 01       	movw	r22, r12
    388e:	0e 94 98 29 	call	0x5330	; 0x5330 <__addsf3>
    3892:	df 91       	pop	r29
    3894:	cf 91       	pop	r28
    3896:	1f 91       	pop	r17
    3898:	0f 91       	pop	r16
    389a:	ff 90       	pop	r15
    389c:	ef 90       	pop	r14
    389e:	df 90       	pop	r13
    38a0:	cf 90       	pop	r12
    38a2:	08 95       	ret

000038a4 <add_vectors>:
    38a4:	df 92       	push	r13
    38a6:	ef 92       	push	r14
    38a8:	ff 92       	push	r15
    38aa:	0f 93       	push	r16
    38ac:	1f 93       	push	r17
    38ae:	cf 93       	push	r28
    38b0:	df 93       	push	r29
    38b2:	7c 01       	movw	r14, r24
    38b4:	8b 01       	movw	r16, r22
    38b6:	ea 01       	movw	r28, r20
    38b8:	d1 2c       	mov	r13, r1
    38ba:	f7 01       	movw	r30, r14
    38bc:	61 91       	ld	r22, Z+
    38be:	71 91       	ld	r23, Z+
    38c0:	81 91       	ld	r24, Z+
    38c2:	91 91       	ld	r25, Z+
    38c4:	7f 01       	movw	r14, r30
    38c6:	f8 01       	movw	r30, r16
    38c8:	21 91       	ld	r18, Z+
    38ca:	31 91       	ld	r19, Z+
    38cc:	41 91       	ld	r20, Z+
    38ce:	51 91       	ld	r21, Z+
    38d0:	8f 01       	movw	r16, r30
    38d2:	0e 94 98 29 	call	0x5330	; 0x5330 <__addsf3>
    38d6:	69 93       	st	Y+, r22
    38d8:	79 93       	st	Y+, r23
    38da:	89 93       	st	Y+, r24
    38dc:	99 93       	st	Y+, r25
    38de:	d3 94       	inc	r13
    38e0:	f3 e0       	ldi	r31, 0x03	; 3
    38e2:	df 12       	cpse	r13, r31
    38e4:	ea cf       	rjmp	.-44     	; 0x38ba <add_vectors+0x16>
    38e6:	df 91       	pop	r29
    38e8:	cf 91       	pop	r28
    38ea:	1f 91       	pop	r17
    38ec:	0f 91       	pop	r16
    38ee:	ff 90       	pop	r15
    38f0:	ef 90       	pop	r14
    38f2:	df 90       	pop	r13
    38f4:	08 95       	ret

000038f6 <vector_into_matrix>:
    38f6:	3f 92       	push	r3
    38f8:	4f 92       	push	r4
    38fa:	5f 92       	push	r5
    38fc:	6f 92       	push	r6
    38fe:	7f 92       	push	r7
    3900:	8f 92       	push	r8
    3902:	9f 92       	push	r9
    3904:	af 92       	push	r10
    3906:	bf 92       	push	r11
    3908:	cf 92       	push	r12
    390a:	df 92       	push	r13
    390c:	ef 92       	push	r14
    390e:	ff 92       	push	r15
    3910:	0f 93       	push	r16
    3912:	1f 93       	push	r17
    3914:	cf 93       	push	r28
    3916:	df 93       	push	r29
    3918:	38 2e       	mov	r3, r24
    391a:	89 2e       	mov	r8, r25
    391c:	5b 01       	movw	r10, r22
    391e:	7a 01       	movw	r14, r20
    3920:	c1 2c       	mov	r12, r1
    3922:	d1 2c       	mov	r13, r1
    3924:	f7 01       	movw	r30, r14
    3926:	10 82       	st	Z, r1
    3928:	11 82       	std	Z+1, r1	; 0x01
    392a:	12 82       	std	Z+2, r1	; 0x02
    392c:	13 82       	std	Z+3, r1	; 0x03
    392e:	03 2d       	mov	r16, r3
    3930:	18 2d       	mov	r17, r8
    3932:	e5 01       	movw	r28, r10
    3934:	cc 0d       	add	r28, r12
    3936:	dd 1d       	adc	r29, r13
    3938:	83 e0       	ldi	r24, 0x03	; 3
    393a:	98 2e       	mov	r9, r24
    393c:	41 2c       	mov	r4, r1
    393e:	51 2c       	mov	r5, r1
    3940:	32 01       	movw	r6, r4
    3942:	f8 01       	movw	r30, r16
    3944:	61 91       	ld	r22, Z+
    3946:	71 91       	ld	r23, Z+
    3948:	81 91       	ld	r24, Z+
    394a:	91 91       	ld	r25, Z+
    394c:	8f 01       	movw	r16, r30
    394e:	28 81       	ld	r18, Y
    3950:	39 81       	ldd	r19, Y+1	; 0x01
    3952:	4a 81       	ldd	r20, Y+2	; 0x02
    3954:	5b 81       	ldd	r21, Y+3	; 0x03
    3956:	0e 94 95 2c 	call	0x592a	; 0x592a <__mulsf3>
    395a:	9b 01       	movw	r18, r22
    395c:	ac 01       	movw	r20, r24
    395e:	c3 01       	movw	r24, r6
    3960:	b2 01       	movw	r22, r4
    3962:	0e 94 98 29 	call	0x5330	; 0x5330 <__addsf3>
    3966:	2b 01       	movw	r4, r22
    3968:	3c 01       	movw	r6, r24
    396a:	f7 01       	movw	r30, r14
    396c:	60 83       	st	Z, r22
    396e:	71 83       	std	Z+1, r23	; 0x01
    3970:	82 83       	std	Z+2, r24	; 0x02
    3972:	93 83       	std	Z+3, r25	; 0x03
    3974:	9a 94       	dec	r9
    3976:	2c 96       	adiw	r28, 0x0c	; 12
    3978:	91 10       	cpse	r9, r1
    397a:	e3 cf       	rjmp	.-58     	; 0x3942 <vector_into_matrix+0x4c>
    397c:	f4 e0       	ldi	r31, 0x04	; 4
    397e:	ef 0e       	add	r14, r31
    3980:	f1 1c       	adc	r15, r1
    3982:	84 e0       	ldi	r24, 0x04	; 4
    3984:	c8 0e       	add	r12, r24
    3986:	d1 1c       	adc	r13, r1
    3988:	ec e0       	ldi	r30, 0x0C	; 12
    398a:	ce 16       	cp	r12, r30
    398c:	d1 04       	cpc	r13, r1
    398e:	51 f6       	brne	.-108    	; 0x3924 <vector_into_matrix+0x2e>
    3990:	df 91       	pop	r29
    3992:	cf 91       	pop	r28
    3994:	1f 91       	pop	r17
    3996:	0f 91       	pop	r16
    3998:	ff 90       	pop	r15
    399a:	ef 90       	pop	r14
    399c:	df 90       	pop	r13
    399e:	cf 90       	pop	r12
    39a0:	bf 90       	pop	r11
    39a2:	af 90       	pop	r10
    39a4:	9f 90       	pop	r9
    39a6:	8f 90       	pop	r8
    39a8:	7f 90       	pop	r7
    39aa:	6f 90       	pop	r6
    39ac:	5f 90       	pop	r5
    39ae:	4f 90       	pop	r4
    39b0:	3f 90       	pop	r3
    39b2:	08 95       	ret

000039b4 <vector_cross_product>:
    39b4:	af 92       	push	r10
    39b6:	bf 92       	push	r11
    39b8:	cf 92       	push	r12
    39ba:	df 92       	push	r13
    39bc:	ef 92       	push	r14
    39be:	ff 92       	push	r15
    39c0:	0f 93       	push	r16
    39c2:	1f 93       	push	r17
    39c4:	cf 93       	push	r28
    39c6:	df 93       	push	r29
    39c8:	ec 01       	movw	r28, r24
    39ca:	8b 01       	movw	r16, r22
    39cc:	5a 01       	movw	r10, r20
    39ce:	fb 01       	movw	r30, r22
    39d0:	20 85       	ldd	r18, Z+8	; 0x08
    39d2:	31 85       	ldd	r19, Z+9	; 0x09
    39d4:	42 85       	ldd	r20, Z+10	; 0x0a
    39d6:	53 85       	ldd	r21, Z+11	; 0x0b
    39d8:	6c 81       	ldd	r22, Y+4	; 0x04
    39da:	7d 81       	ldd	r23, Y+5	; 0x05
    39dc:	8e 81       	ldd	r24, Y+6	; 0x06
    39de:	9f 81       	ldd	r25, Y+7	; 0x07
    39e0:	0e 94 95 2c 	call	0x592a	; 0x592a <__mulsf3>
    39e4:	6b 01       	movw	r12, r22
    39e6:	7c 01       	movw	r14, r24
    39e8:	f8 01       	movw	r30, r16
    39ea:	24 81       	ldd	r18, Z+4	; 0x04
    39ec:	35 81       	ldd	r19, Z+5	; 0x05
    39ee:	46 81       	ldd	r20, Z+6	; 0x06
    39f0:	57 81       	ldd	r21, Z+7	; 0x07
    39f2:	68 85       	ldd	r22, Y+8	; 0x08
    39f4:	79 85       	ldd	r23, Y+9	; 0x09
    39f6:	8a 85       	ldd	r24, Y+10	; 0x0a
    39f8:	9b 85       	ldd	r25, Y+11	; 0x0b
    39fa:	0e 94 95 2c 	call	0x592a	; 0x592a <__mulsf3>
    39fe:	9b 01       	movw	r18, r22
    3a00:	ac 01       	movw	r20, r24
    3a02:	c7 01       	movw	r24, r14
    3a04:	b6 01       	movw	r22, r12
    3a06:	0e 94 97 29 	call	0x532e	; 0x532e <__subsf3>
    3a0a:	f5 01       	movw	r30, r10
    3a0c:	60 83       	st	Z, r22
    3a0e:	71 83       	std	Z+1, r23	; 0x01
    3a10:	82 83       	std	Z+2, r24	; 0x02
    3a12:	93 83       	std	Z+3, r25	; 0x03
    3a14:	f8 01       	movw	r30, r16
    3a16:	20 81       	ld	r18, Z
    3a18:	31 81       	ldd	r19, Z+1	; 0x01
    3a1a:	42 81       	ldd	r20, Z+2	; 0x02
    3a1c:	53 81       	ldd	r21, Z+3	; 0x03
    3a1e:	68 85       	ldd	r22, Y+8	; 0x08
    3a20:	79 85       	ldd	r23, Y+9	; 0x09
    3a22:	8a 85       	ldd	r24, Y+10	; 0x0a
    3a24:	9b 85       	ldd	r25, Y+11	; 0x0b
    3a26:	0e 94 95 2c 	call	0x592a	; 0x592a <__mulsf3>
    3a2a:	6b 01       	movw	r12, r22
    3a2c:	7c 01       	movw	r14, r24
    3a2e:	f8 01       	movw	r30, r16
    3a30:	20 85       	ldd	r18, Z+8	; 0x08
    3a32:	31 85       	ldd	r19, Z+9	; 0x09
    3a34:	42 85       	ldd	r20, Z+10	; 0x0a
    3a36:	53 85       	ldd	r21, Z+11	; 0x0b
    3a38:	68 81       	ld	r22, Y
    3a3a:	79 81       	ldd	r23, Y+1	; 0x01
    3a3c:	8a 81       	ldd	r24, Y+2	; 0x02
    3a3e:	9b 81       	ldd	r25, Y+3	; 0x03
    3a40:	0e 94 95 2c 	call	0x592a	; 0x592a <__mulsf3>
    3a44:	9b 01       	movw	r18, r22
    3a46:	ac 01       	movw	r20, r24
    3a48:	c7 01       	movw	r24, r14
    3a4a:	b6 01       	movw	r22, r12
    3a4c:	0e 94 97 29 	call	0x532e	; 0x532e <__subsf3>
    3a50:	f5 01       	movw	r30, r10
    3a52:	64 83       	std	Z+4, r22	; 0x04
    3a54:	75 83       	std	Z+5, r23	; 0x05
    3a56:	86 83       	std	Z+6, r24	; 0x06
    3a58:	97 83       	std	Z+7, r25	; 0x07
    3a5a:	f8 01       	movw	r30, r16
    3a5c:	24 81       	ldd	r18, Z+4	; 0x04
    3a5e:	35 81       	ldd	r19, Z+5	; 0x05
    3a60:	46 81       	ldd	r20, Z+6	; 0x06
    3a62:	57 81       	ldd	r21, Z+7	; 0x07
    3a64:	68 81       	ld	r22, Y
    3a66:	79 81       	ldd	r23, Y+1	; 0x01
    3a68:	8a 81       	ldd	r24, Y+2	; 0x02
    3a6a:	9b 81       	ldd	r25, Y+3	; 0x03
    3a6c:	0e 94 95 2c 	call	0x592a	; 0x592a <__mulsf3>
    3a70:	6b 01       	movw	r12, r22
    3a72:	7c 01       	movw	r14, r24
    3a74:	f8 01       	movw	r30, r16
    3a76:	20 81       	ld	r18, Z
    3a78:	31 81       	ldd	r19, Z+1	; 0x01
    3a7a:	42 81       	ldd	r20, Z+2	; 0x02
    3a7c:	53 81       	ldd	r21, Z+3	; 0x03
    3a7e:	6c 81       	ldd	r22, Y+4	; 0x04
    3a80:	7d 81       	ldd	r23, Y+5	; 0x05
    3a82:	8e 81       	ldd	r24, Y+6	; 0x06
    3a84:	9f 81       	ldd	r25, Y+7	; 0x07
    3a86:	0e 94 95 2c 	call	0x592a	; 0x592a <__mulsf3>
    3a8a:	9b 01       	movw	r18, r22
    3a8c:	ac 01       	movw	r20, r24
    3a8e:	c7 01       	movw	r24, r14
    3a90:	b6 01       	movw	r22, r12
    3a92:	0e 94 97 29 	call	0x532e	; 0x532e <__subsf3>
    3a96:	f5 01       	movw	r30, r10
    3a98:	60 87       	std	Z+8, r22	; 0x08
    3a9a:	71 87       	std	Z+9, r23	; 0x09
    3a9c:	82 87       	std	Z+10, r24	; 0x0a
    3a9e:	93 87       	std	Z+11, r25	; 0x0b
    3aa0:	df 91       	pop	r29
    3aa2:	cf 91       	pop	r28
    3aa4:	1f 91       	pop	r17
    3aa6:	0f 91       	pop	r16
    3aa8:	ff 90       	pop	r15
    3aaa:	ef 90       	pop	r14
    3aac:	df 90       	pop	r13
    3aae:	cf 90       	pop	r12
    3ab0:	bf 90       	pop	r11
    3ab2:	af 90       	pop	r10
    3ab4:	08 95       	ret

00003ab6 <scalar_into_vector>:
    3ab6:	cf 92       	push	r12
    3ab8:	df 92       	push	r13
    3aba:	ef 92       	push	r14
    3abc:	ff 92       	push	r15
    3abe:	cf 93       	push	r28
    3ac0:	df 93       	push	r29
    3ac2:	ec 01       	movw	r28, r24
    3ac4:	6a 01       	movw	r12, r20
    3ac6:	7b 01       	movw	r14, r22
    3ac8:	9a 01       	movw	r18, r20
    3aca:	ab 01       	movw	r20, r22
    3acc:	68 81       	ld	r22, Y
    3ace:	79 81       	ldd	r23, Y+1	; 0x01
    3ad0:	8a 81       	ldd	r24, Y+2	; 0x02
    3ad2:	9b 81       	ldd	r25, Y+3	; 0x03
    3ad4:	0e 94 95 2c 	call	0x592a	; 0x592a <__mulsf3>
    3ad8:	68 83       	st	Y, r22
    3ada:	79 83       	std	Y+1, r23	; 0x01
    3adc:	8a 83       	std	Y+2, r24	; 0x02
    3ade:	9b 83       	std	Y+3, r25	; 0x03
    3ae0:	a7 01       	movw	r20, r14
    3ae2:	96 01       	movw	r18, r12
    3ae4:	6c 81       	ldd	r22, Y+4	; 0x04
    3ae6:	7d 81       	ldd	r23, Y+5	; 0x05
    3ae8:	8e 81       	ldd	r24, Y+6	; 0x06
    3aea:	9f 81       	ldd	r25, Y+7	; 0x07
    3aec:	0e 94 95 2c 	call	0x592a	; 0x592a <__mulsf3>
    3af0:	6c 83       	std	Y+4, r22	; 0x04
    3af2:	7d 83       	std	Y+5, r23	; 0x05
    3af4:	8e 83       	std	Y+6, r24	; 0x06
    3af6:	9f 83       	std	Y+7, r25	; 0x07
    3af8:	a7 01       	movw	r20, r14
    3afa:	96 01       	movw	r18, r12
    3afc:	68 85       	ldd	r22, Y+8	; 0x08
    3afe:	79 85       	ldd	r23, Y+9	; 0x09
    3b00:	8a 85       	ldd	r24, Y+10	; 0x0a
    3b02:	9b 85       	ldd	r25, Y+11	; 0x0b
    3b04:	0e 94 95 2c 	call	0x592a	; 0x592a <__mulsf3>
    3b08:	68 87       	std	Y+8, r22	; 0x08
    3b0a:	79 87       	std	Y+9, r23	; 0x09
    3b0c:	8a 87       	std	Y+10, r24	; 0x0a
    3b0e:	9b 87       	std	Y+11, r25	; 0x0b
    3b10:	df 91       	pop	r29
    3b12:	cf 91       	pop	r28
    3b14:	ff 90       	pop	r15
    3b16:	ef 90       	pop	r14
    3b18:	df 90       	pop	r13
    3b1a:	cf 90       	pop	r12
    3b1c:	08 95       	ret

00003b1e <scalar_into_quaternion>:
    3b1e:	cf 92       	push	r12
    3b20:	df 92       	push	r13
    3b22:	ef 92       	push	r14
    3b24:	ff 92       	push	r15
    3b26:	1f 93       	push	r17
    3b28:	cf 93       	push	r28
    3b2a:	df 93       	push	r29
    3b2c:	6a 01       	movw	r12, r20
    3b2e:	7b 01       	movw	r14, r22
    3b30:	ec 01       	movw	r28, r24
    3b32:	10 e0       	ldi	r17, 0x00	; 0
    3b34:	a7 01       	movw	r20, r14
    3b36:	96 01       	movw	r18, r12
    3b38:	68 81       	ld	r22, Y
    3b3a:	79 81       	ldd	r23, Y+1	; 0x01
    3b3c:	8a 81       	ldd	r24, Y+2	; 0x02
    3b3e:	9b 81       	ldd	r25, Y+3	; 0x03
    3b40:	0e 94 95 2c 	call	0x592a	; 0x592a <__mulsf3>
    3b44:	69 93       	st	Y+, r22
    3b46:	79 93       	st	Y+, r23
    3b48:	89 93       	st	Y+, r24
    3b4a:	99 93       	st	Y+, r25
    3b4c:	1f 5f       	subi	r17, 0xFF	; 255
    3b4e:	14 30       	cpi	r17, 0x04	; 4
    3b50:	89 f7       	brne	.-30     	; 0x3b34 <scalar_into_quaternion+0x16>
    3b52:	df 91       	pop	r29
    3b54:	cf 91       	pop	r28
    3b56:	1f 91       	pop	r17
    3b58:	ff 90       	pop	r15
    3b5a:	ef 90       	pop	r14
    3b5c:	df 90       	pop	r13
    3b5e:	cf 90       	pop	r12
    3b60:	08 95       	ret

00003b62 <convert_unit_vector>:
    3b62:	cf 92       	push	r12
    3b64:	df 92       	push	r13
    3b66:	ef 92       	push	r14
    3b68:	ff 92       	push	r15
    3b6a:	cf 93       	push	r28
    3b6c:	df 93       	push	r29
    3b6e:	ec 01       	movw	r28, r24
    3b70:	a5 dd       	rcall	.-1206   	; 0x36bc <vector_norm>
    3b72:	6b 01       	movw	r12, r22
    3b74:	7c 01       	movw	r14, r24
    3b76:	9b 01       	movw	r18, r22
    3b78:	ac 01       	movw	r20, r24
    3b7a:	68 81       	ld	r22, Y
    3b7c:	79 81       	ldd	r23, Y+1	; 0x01
    3b7e:	8a 81       	ldd	r24, Y+2	; 0x02
    3b80:	9b 81       	ldd	r25, Y+3	; 0x03
    3b82:	0e 94 7c 2a 	call	0x54f8	; 0x54f8 <__divsf3>
    3b86:	68 83       	st	Y, r22
    3b88:	79 83       	std	Y+1, r23	; 0x01
    3b8a:	8a 83       	std	Y+2, r24	; 0x02
    3b8c:	9b 83       	std	Y+3, r25	; 0x03
    3b8e:	a7 01       	movw	r20, r14
    3b90:	96 01       	movw	r18, r12
    3b92:	6c 81       	ldd	r22, Y+4	; 0x04
    3b94:	7d 81       	ldd	r23, Y+5	; 0x05
    3b96:	8e 81       	ldd	r24, Y+6	; 0x06
    3b98:	9f 81       	ldd	r25, Y+7	; 0x07
    3b9a:	0e 94 7c 2a 	call	0x54f8	; 0x54f8 <__divsf3>
    3b9e:	6c 83       	std	Y+4, r22	; 0x04
    3ba0:	7d 83       	std	Y+5, r23	; 0x05
    3ba2:	8e 83       	std	Y+6, r24	; 0x06
    3ba4:	9f 83       	std	Y+7, r25	; 0x07
    3ba6:	a7 01       	movw	r20, r14
    3ba8:	96 01       	movw	r18, r12
    3baa:	68 85       	ldd	r22, Y+8	; 0x08
    3bac:	79 85       	ldd	r23, Y+9	; 0x09
    3bae:	8a 85       	ldd	r24, Y+10	; 0x0a
    3bb0:	9b 85       	ldd	r25, Y+11	; 0x0b
    3bb2:	0e 94 7c 2a 	call	0x54f8	; 0x54f8 <__divsf3>
    3bb6:	68 87       	std	Y+8, r22	; 0x08
    3bb8:	79 87       	std	Y+9, r23	; 0x09
    3bba:	8a 87       	std	Y+10, r24	; 0x0a
    3bbc:	9b 87       	std	Y+11, r25	; 0x0b
    3bbe:	df 91       	pop	r29
    3bc0:	cf 91       	pop	r28
    3bc2:	ff 90       	pop	r15
    3bc4:	ef 90       	pop	r14
    3bc6:	df 90       	pop	r13
    3bc8:	cf 90       	pop	r12
    3bca:	08 95       	ret

00003bcc <convert_unit_quaternion>:
    3bcc:	cf 92       	push	r12
    3bce:	df 92       	push	r13
    3bd0:	ef 92       	push	r14
    3bd2:	ff 92       	push	r15
    3bd4:	0f 93       	push	r16
    3bd6:	1f 93       	push	r17
    3bd8:	cf 93       	push	r28
    3bda:	df 93       	push	r29
    3bdc:	8c 01       	movw	r16, r24
    3bde:	b5 dd       	rcall	.-1174   	; 0x374a <quaternion_norm>
    3be0:	6b 01       	movw	r12, r22
    3be2:	7c 01       	movw	r14, r24
    3be4:	e8 01       	movw	r28, r16
    3be6:	10 e0       	ldi	r17, 0x00	; 0
    3be8:	a7 01       	movw	r20, r14
    3bea:	96 01       	movw	r18, r12
    3bec:	68 81       	ld	r22, Y
    3bee:	79 81       	ldd	r23, Y+1	; 0x01
    3bf0:	8a 81       	ldd	r24, Y+2	; 0x02
    3bf2:	9b 81       	ldd	r25, Y+3	; 0x03
    3bf4:	0e 94 7c 2a 	call	0x54f8	; 0x54f8 <__divsf3>
    3bf8:	69 93       	st	Y+, r22
    3bfa:	79 93       	st	Y+, r23
    3bfc:	89 93       	st	Y+, r24
    3bfe:	99 93       	st	Y+, r25
    3c00:	1f 5f       	subi	r17, 0xFF	; 255
    3c02:	14 30       	cpi	r17, 0x04	; 4
    3c04:	89 f7       	brne	.-30     	; 0x3be8 <convert_unit_quaternion+0x1c>
    3c06:	df 91       	pop	r29
    3c08:	cf 91       	pop	r28
    3c0a:	1f 91       	pop	r17
    3c0c:	0f 91       	pop	r16
    3c0e:	ff 90       	pop	r15
    3c10:	ef 90       	pop	r14
    3c12:	df 90       	pop	r13
    3c14:	cf 90       	pop	r12
    3c16:	08 95       	ret

00003c18 <read_GPS>:
}

void read_GPS(void){
  ///* Switch on the GPS interrupt
  
  UCSR0B |= _BV(RXCIE0);
    3c18:	57 9a       	sbi	0x0a, 7	; 10
    3c1a:	08 95       	ret

00003c1c <read_SS>:
  
  ///Configure the Sunsensor ADC IC
  //configure_SS();
  
  ///Poll the ADC for readings
  poll_SS();
    3c1c:	0c 94 50 28 	jmp	0x50a0	; 0x50a0 <poll_SS>

00003c20 <read_MM>:

void read_MM(void){
  
  //power_up_peripheral(PMAG);
  ///Poll the magnetometer for readings
  poll_MM();
    3c20:	c8 cc       	rjmp	.-1648   	; 0x35b2 <poll_MM>

00003c22 <copy_gps_reading>:
    3c22:	ef 92       	push	r14
    3c24:	ff 92       	push	r15
    3c26:	0f 93       	push	r16
    3c28:	1f 93       	push	r17
    3c2a:	cf 93       	push	r28
    3c2c:	df 93       	push	r29
    3c2e:	10 92 0f 05 	sts	0x050F, r1
    3c32:	10 92 0e 05 	sts	0x050E, r1
    3c36:	60 91 e1 04 	lds	r22, 0x04E1
    3c3a:	70 91 e2 04 	lds	r23, 0x04E2
    3c3e:	80 91 e3 04 	lds	r24, 0x04E3
    3c42:	90 91 e4 04 	lds	r25, 0x04E4
    3c46:	00 e7       	ldi	r16, 0x70	; 112
    3c48:	14 e0       	ldi	r17, 0x04	; 4
    3c4a:	0e 94 12 2b 	call	0x5624	; 0x5624 <__floatsisf>
    3c4e:	20 e0       	ldi	r18, 0x00	; 0
    3c50:	30 e0       	ldi	r19, 0x00	; 0
    3c52:	48 ec       	ldi	r20, 0xC8	; 200
    3c54:	52 e4       	ldi	r21, 0x42	; 66
    3c56:	0e 94 7c 2a 	call	0x54f8	; 0x54f8 <__divsf3>
    3c5a:	f8 01       	movw	r30, r16
    3c5c:	60 83       	st	Z, r22
    3c5e:	71 83       	std	Z+1, r23	; 0x01
    3c60:	82 83       	std	Z+2, r24	; 0x02
    3c62:	93 83       	std	Z+3, r25	; 0x03
    3c64:	60 91 e5 04 	lds	r22, 0x04E5
    3c68:	70 91 e6 04 	lds	r23, 0x04E6
    3c6c:	80 91 e7 04 	lds	r24, 0x04E7
    3c70:	90 91 e8 04 	lds	r25, 0x04E8
    3c74:	c4 e7       	ldi	r28, 0x74	; 116
    3c76:	d4 e0       	ldi	r29, 0x04	; 4
    3c78:	0e 94 12 2b 	call	0x5624	; 0x5624 <__floatsisf>
    3c7c:	20 e0       	ldi	r18, 0x00	; 0
    3c7e:	30 e0       	ldi	r19, 0x00	; 0
    3c80:	48 ec       	ldi	r20, 0xC8	; 200
    3c82:	52 e4       	ldi	r21, 0x42	; 66
    3c84:	0e 94 7c 2a 	call	0x54f8	; 0x54f8 <__divsf3>
    3c88:	68 83       	st	Y, r22
    3c8a:	79 83       	std	Y+1, r23	; 0x01
    3c8c:	8a 83       	std	Y+2, r24	; 0x02
    3c8e:	9b 83       	std	Y+3, r25	; 0x03
    3c90:	60 91 e9 04 	lds	r22, 0x04E9
    3c94:	70 91 ea 04 	lds	r23, 0x04EA
    3c98:	80 91 eb 04 	lds	r24, 0x04EB
    3c9c:	90 91 ec 04 	lds	r25, 0x04EC
    3ca0:	28 e7       	ldi	r18, 0x78	; 120
    3ca2:	e2 2e       	mov	r14, r18
    3ca4:	24 e0       	ldi	r18, 0x04	; 4
    3ca6:	f2 2e       	mov	r15, r18
    3ca8:	0e 94 12 2b 	call	0x5624	; 0x5624 <__floatsisf>
    3cac:	20 e0       	ldi	r18, 0x00	; 0
    3cae:	30 e0       	ldi	r19, 0x00	; 0
    3cb0:	48 ec       	ldi	r20, 0xC8	; 200
    3cb2:	52 e4       	ldi	r21, 0x42	; 66
    3cb4:	0e 94 7c 2a 	call	0x54f8	; 0x54f8 <__divsf3>
    3cb8:	f7 01       	movw	r30, r14
    3cba:	60 83       	st	Z, r22
    3cbc:	71 83       	std	Z+1, r23	; 0x01
    3cbe:	82 83       	std	Z+2, r24	; 0x02
    3cc0:	93 83       	std	Z+3, r25	; 0x03
    3cc2:	60 91 ed 04 	lds	r22, 0x04ED
    3cc6:	70 91 ee 04 	lds	r23, 0x04EE
    3cca:	80 91 ef 04 	lds	r24, 0x04EF
    3cce:	90 91 f0 04 	lds	r25, 0x04F0
    3cd2:	0e 94 12 2b 	call	0x5624	; 0x5624 <__floatsisf>
    3cd6:	60 93 64 04 	sts	0x0464, r22
    3cda:	70 93 65 04 	sts	0x0465, r23
    3cde:	80 93 66 04 	sts	0x0466, r24
    3ce2:	90 93 67 04 	sts	0x0467, r25
    3ce6:	60 91 f1 04 	lds	r22, 0x04F1
    3cea:	70 91 f2 04 	lds	r23, 0x04F2
    3cee:	80 91 f3 04 	lds	r24, 0x04F3
    3cf2:	90 91 f4 04 	lds	r25, 0x04F4
    3cf6:	0e 94 12 2b 	call	0x5624	; 0x5624 <__floatsisf>
    3cfa:	60 93 68 04 	sts	0x0468, r22
    3cfe:	70 93 69 04 	sts	0x0469, r23
    3d02:	80 93 6a 04 	sts	0x046A, r24
    3d06:	90 93 6b 04 	sts	0x046B, r25
    3d0a:	60 91 f5 04 	lds	r22, 0x04F5
    3d0e:	70 91 f6 04 	lds	r23, 0x04F6
    3d12:	80 91 f7 04 	lds	r24, 0x04F7
    3d16:	90 91 f8 04 	lds	r25, 0x04F8
    3d1a:	0e 94 12 2b 	call	0x5624	; 0x5624 <__floatsisf>
    3d1e:	60 93 6c 04 	sts	0x046C, r22
    3d22:	70 93 6d 04 	sts	0x046D, r23
    3d26:	80 93 6e 04 	sts	0x046E, r24
    3d2a:	90 93 6f 04 	sts	0x046F, r25
    3d2e:	0e 94 a0 09 	call	0x1340	; 0x1340 <get_seconds_since_equinox>
    3d32:	f8 01       	movw	r30, r16
    3d34:	80 81       	ld	r24, Z
    3d36:	91 81       	ldd	r25, Z+1	; 0x01
    3d38:	a2 81       	ldd	r26, Z+2	; 0x02
    3d3a:	b3 81       	ldd	r27, Z+3	; 0x03
    3d3c:	80 93 8c 04 	sts	0x048C, r24
    3d40:	90 93 8d 04 	sts	0x048D, r25
    3d44:	a0 93 8e 04 	sts	0x048E, r26
    3d48:	b0 93 8f 04 	sts	0x048F, r27
    3d4c:	88 81       	ld	r24, Y
    3d4e:	99 81       	ldd	r25, Y+1	; 0x01
    3d50:	aa 81       	ldd	r26, Y+2	; 0x02
    3d52:	bb 81       	ldd	r27, Y+3	; 0x03
    3d54:	80 93 90 04 	sts	0x0490, r24
    3d58:	90 93 91 04 	sts	0x0491, r25
    3d5c:	a0 93 92 04 	sts	0x0492, r26
    3d60:	b0 93 93 04 	sts	0x0493, r27
    3d64:	f7 01       	movw	r30, r14
    3d66:	80 81       	ld	r24, Z
    3d68:	91 81       	ldd	r25, Z+1	; 0x01
    3d6a:	a2 81       	ldd	r26, Z+2	; 0x02
    3d6c:	b3 81       	ldd	r27, Z+3	; 0x03
    3d6e:	80 93 94 04 	sts	0x0494, r24
    3d72:	90 93 95 04 	sts	0x0495, r25
    3d76:	a0 93 96 04 	sts	0x0496, r26
    3d7a:	b0 93 97 04 	sts	0x0497, r27
    3d7e:	68 e9       	ldi	r22, 0x98	; 152
    3d80:	74 e0       	ldi	r23, 0x04	; 4
    3d82:	c8 01       	movw	r24, r16
    3d84:	0e 94 46 0b 	call	0x168c	; 0x168c <ecef2eci>
    3d88:	60 e8       	ldi	r22, 0x80	; 128
    3d8a:	74 e0       	ldi	r23, 0x04	; 4
    3d8c:	84 e6       	ldi	r24, 0x64	; 100
    3d8e:	94 e0       	ldi	r25, 0x04	; 4
    3d90:	0e 94 46 0b 	call	0x168c	; 0x168c <ecef2eci>
    3d94:	60 91 f9 04 	lds	r22, 0x04F9
    3d98:	70 91 fa 04 	lds	r23, 0x04FA
    3d9c:	80 91 fb 04 	lds	r24, 0x04FB
    3da0:	90 91 fc 04 	lds	r25, 0x04FC
    3da4:	0e 94 12 2b 	call	0x5624	; 0x5624 <__floatsisf>
    3da8:	20 e8       	ldi	r18, 0x80	; 128
    3daa:	36 e9       	ldi	r19, 0x96	; 150
    3dac:	48 e1       	ldi	r20, 0x18	; 24
    3dae:	5b e4       	ldi	r21, 0x4B	; 75
    3db0:	0e 94 7c 2a 	call	0x54f8	; 0x54f8 <__divsf3>
    3db4:	25 e3       	ldi	r18, 0x35	; 53
    3db6:	3a ef       	ldi	r19, 0xFA	; 250
    3db8:	4e e8       	ldi	r20, 0x8E	; 142
    3dba:	5c e3       	ldi	r21, 0x3C	; 60
    3dbc:	0e 94 95 2c 	call	0x592a	; 0x592a <__mulsf3>
    3dc0:	60 93 58 05 	sts	0x0558, r22
    3dc4:	70 93 59 05 	sts	0x0559, r23
    3dc8:	80 93 5a 05 	sts	0x055A, r24
    3dcc:	90 93 5b 05 	sts	0x055B, r25
    3dd0:	60 91 fd 04 	lds	r22, 0x04FD
    3dd4:	70 91 fe 04 	lds	r23, 0x04FE
    3dd8:	80 91 ff 04 	lds	r24, 0x04FF
    3ddc:	90 91 00 05 	lds	r25, 0x0500
    3de0:	0e 94 12 2b 	call	0x5624	; 0x5624 <__floatsisf>
    3de4:	20 e8       	ldi	r18, 0x80	; 128
    3de6:	36 e9       	ldi	r19, 0x96	; 150
    3de8:	48 e1       	ldi	r20, 0x18	; 24
    3dea:	5b e4       	ldi	r21, 0x4B	; 75
    3dec:	0e 94 7c 2a 	call	0x54f8	; 0x54f8 <__divsf3>
    3df0:	25 e3       	ldi	r18, 0x35	; 53
    3df2:	3a ef       	ldi	r19, 0xFA	; 250
    3df4:	4e e8       	ldi	r20, 0x8E	; 142
    3df6:	5c e3       	ldi	r21, 0x3C	; 60
    3df8:	0e 94 95 2c 	call	0x592a	; 0x592a <__mulsf3>
    3dfc:	60 93 5c 05 	sts	0x055C, r22
    3e00:	70 93 5d 05 	sts	0x055D, r23
    3e04:	80 93 5e 05 	sts	0x055E, r24
    3e08:	90 93 5f 05 	sts	0x055F, r25
    3e0c:	10 92 13 01 	sts	0x0113, r1
    3e10:	df 91       	pop	r29
    3e12:	cf 91       	pop	r28
    3e14:	1f 91       	pop	r17
    3e16:	0f 91       	pop	r16
    3e18:	ff 90       	pop	r15
    3e1a:	ef 90       	pop	r14
    3e1c:	08 95       	ret

00003e1e <sgp_get_acceleration>:
    3e1e:	4f 92       	push	r4
    3e20:	5f 92       	push	r5
    3e22:	6f 92       	push	r6
    3e24:	7f 92       	push	r7
    3e26:	8f 92       	push	r8
    3e28:	9f 92       	push	r9
    3e2a:	af 92       	push	r10
    3e2c:	bf 92       	push	r11
    3e2e:	cf 92       	push	r12
    3e30:	df 92       	push	r13
    3e32:	ef 92       	push	r14
    3e34:	ff 92       	push	r15
    3e36:	0f 93       	push	r16
    3e38:	1f 93       	push	r17
    3e3a:	cf 93       	push	r28
    3e3c:	df 93       	push	r29
    3e3e:	cd b7       	in	r28, 0x3d	; 61
    3e40:	de b7       	in	r29, 0x3e	; 62
    3e42:	64 97       	sbiw	r28, 0x14	; 20
    3e44:	0f b6       	in	r0, 0x3f	; 63
    3e46:	f8 94       	cli
    3e48:	de bf       	out	0x3e, r29	; 62
    3e4a:	0f be       	out	0x3f, r0	; 63
    3e4c:	cd bf       	out	0x3d, r28	; 61
    3e4e:	8c 01       	movw	r16, r24
    3e50:	8c e8       	ldi	r24, 0x8C	; 140
    3e52:	94 e0       	ldi	r25, 0x04	; 4
    3e54:	33 dc       	rcall	.-1946   	; 0x36bc <vector_norm>
    3e56:	2b 01       	movw	r4, r22
    3e58:	3c 01       	movw	r6, r24
    3e5a:	9b 01       	movw	r18, r22
    3e5c:	ac 01       	movw	r20, r24
    3e5e:	0e 94 95 2c 	call	0x592a	; 0x592a <__mulsf3>
    3e62:	9b 01       	movw	r18, r22
    3e64:	ac 01       	movw	r20, r24
    3e66:	61 eb       	ldi	r22, 0xB1	; 177
    3e68:	7a e1       	ldi	r23, 0x1A	; 26
    3e6a:	86 e7       	ldi	r24, 0x76	; 118
    3e6c:	91 e5       	ldi	r25, 0x51	; 81
    3e6e:	0e 94 7c 2a 	call	0x54f8	; 0x54f8 <__divsf3>
    3e72:	6d 87       	std	Y+13, r22	; 0x0d
    3e74:	7e 87       	std	Y+14, r23	; 0x0e
    3e76:	8f 87       	std	Y+15, r24	; 0x0f
    3e78:	98 8b       	std	Y+16, r25	; 0x10
    3e7a:	20 e0       	ldi	r18, 0x00	; 0
    3e7c:	30 e0       	ldi	r19, 0x00	; 0
    3e7e:	40 e4       	ldi	r20, 0x40	; 64
    3e80:	50 e4       	ldi	r21, 0x40	; 64
    3e82:	c3 01       	movw	r24, r6
    3e84:	b2 01       	movw	r22, r4
    3e86:	0e 94 f8 2c 	call	0x59f0	; 0x59f0 <pow>
    3e8a:	6b 01       	movw	r12, r22
    3e8c:	7c 01       	movw	r14, r24
    3e8e:	20 e0       	ldi	r18, 0x00	; 0
    3e90:	30 e0       	ldi	r19, 0x00	; 0
    3e92:	40 e8       	ldi	r20, 0x80	; 128
    3e94:	50 e4       	ldi	r21, 0x40	; 64
    3e96:	c3 01       	movw	r24, r6
    3e98:	b2 01       	movw	r22, r4
    3e9a:	0e 94 f8 2c 	call	0x59f0	; 0x59f0 <pow>
    3e9e:	2b 01       	movw	r4, r22
    3ea0:	3c 01       	movw	r6, r24
    3ea2:	80 90 94 04 	lds	r8, 0x0494
    3ea6:	90 90 95 04 	lds	r9, 0x0495
    3eaa:	a0 90 96 04 	lds	r10, 0x0496
    3eae:	b0 90 97 04 	lds	r11, 0x0497
    3eb2:	a5 01       	movw	r20, r10
    3eb4:	94 01       	movw	r18, r8
    3eb6:	c5 01       	movw	r24, r10
    3eb8:	b4 01       	movw	r22, r8
    3eba:	0e 94 95 2c 	call	0x592a	; 0x592a <__mulsf3>
    3ebe:	28 e9       	ldi	r18, 0x98	; 152
    3ec0:	38 e0       	ldi	r19, 0x08	; 8
    3ec2:	45 e0       	ldi	r20, 0x05	; 5
    3ec4:	5c e3       	ldi	r21, 0x3C	; 60
    3ec6:	0e 94 95 2c 	call	0x592a	; 0x592a <__mulsf3>
    3eca:	2a ec       	ldi	r18, 0xCA	; 202
    3ecc:	3e ef       	ldi	r19, 0xFE	; 254
    3ece:	43 e1       	ldi	r20, 0x13	; 19
    3ed0:	56 e5       	ldi	r21, 0x56	; 86
    3ed2:	0e 94 95 2c 	call	0x592a	; 0x592a <__mulsf3>
    3ed6:	a3 01       	movw	r20, r6
    3ed8:	92 01       	movw	r18, r4
    3eda:	0e 94 7c 2a 	call	0x54f8	; 0x54f8 <__divsf3>
    3ede:	69 8b       	std	Y+17, r22	; 0x11
    3ee0:	7a 8b       	std	Y+18, r23	; 0x12
    3ee2:	8b 8b       	std	Y+19, r24	; 0x13
    3ee4:	9c 8b       	std	Y+20, r25	; 0x14
    3ee6:	20 e0       	ldi	r18, 0x00	; 0
    3ee8:	30 e0       	ldi	r19, 0x00	; 0
    3eea:	40 e8       	ldi	r20, 0x80	; 128
    3eec:	5f e3       	ldi	r21, 0x3F	; 63
    3eee:	6d 85       	ldd	r22, Y+13	; 0x0d
    3ef0:	7e 85       	ldd	r23, Y+14	; 0x0e
    3ef2:	8f 85       	ldd	r24, Y+15	; 0x0f
    3ef4:	98 89       	ldd	r25, Y+16	; 0x10
    3ef6:	0e 94 98 29 	call	0x5330	; 0x5330 <__addsf3>
    3efa:	29 89       	ldd	r18, Y+17	; 0x11
    3efc:	3a 89       	ldd	r19, Y+18	; 0x12
    3efe:	4b 89       	ldd	r20, Y+19	; 0x13
    3f00:	5c 89       	ldd	r21, Y+20	; 0x14
    3f02:	0e 94 97 29 	call	0x532e	; 0x532e <__subsf3>
    3f06:	2b 01       	movw	r4, r22
    3f08:	3c 01       	movw	r6, r24
    3f0a:	21 ef       	ldi	r18, 0xF1	; 241
    3f0c:	39 e4       	ldi	r19, 0x49	; 73
    3f0e:	45 eb       	ldi	r20, 0xB5	; 181
    3f10:	57 ed       	ldi	r21, 0xD7	; 215
    3f12:	60 91 8c 04 	lds	r22, 0x048C
    3f16:	70 91 8d 04 	lds	r23, 0x048D
    3f1a:	80 91 8e 04 	lds	r24, 0x048E
    3f1e:	90 91 8f 04 	lds	r25, 0x048F
    3f22:	0e 94 95 2c 	call	0x592a	; 0x592a <__mulsf3>
    3f26:	a3 01       	movw	r20, r6
    3f28:	92 01       	movw	r18, r4
    3f2a:	0e 94 95 2c 	call	0x592a	; 0x592a <__mulsf3>
    3f2e:	a7 01       	movw	r20, r14
    3f30:	96 01       	movw	r18, r12
    3f32:	0e 94 7c 2a 	call	0x54f8	; 0x54f8 <__divsf3>
    3f36:	69 83       	std	Y+1, r22	; 0x01
    3f38:	7a 83       	std	Y+2, r23	; 0x02
    3f3a:	8b 83       	std	Y+3, r24	; 0x03
    3f3c:	9c 83       	std	Y+4, r25	; 0x04
    3f3e:	21 ef       	ldi	r18, 0xF1	; 241
    3f40:	39 e4       	ldi	r19, 0x49	; 73
    3f42:	45 eb       	ldi	r20, 0xB5	; 181
    3f44:	57 ed       	ldi	r21, 0xD7	; 215
    3f46:	60 91 90 04 	lds	r22, 0x0490
    3f4a:	70 91 91 04 	lds	r23, 0x0491
    3f4e:	80 91 92 04 	lds	r24, 0x0492
    3f52:	90 91 93 04 	lds	r25, 0x0493
    3f56:	0e 94 95 2c 	call	0x592a	; 0x592a <__mulsf3>
    3f5a:	9b 01       	movw	r18, r22
    3f5c:	ac 01       	movw	r20, r24
    3f5e:	c3 01       	movw	r24, r6
    3f60:	b2 01       	movw	r22, r4
    3f62:	0e 94 95 2c 	call	0x592a	; 0x592a <__mulsf3>
    3f66:	a7 01       	movw	r20, r14
    3f68:	96 01       	movw	r18, r12
    3f6a:	0e 94 7c 2a 	call	0x54f8	; 0x54f8 <__divsf3>
    3f6e:	6d 83       	std	Y+5, r22	; 0x05
    3f70:	7e 83       	std	Y+6, r23	; 0x06
    3f72:	8f 83       	std	Y+7, r24	; 0x07
    3f74:	98 87       	std	Y+8, r25	; 0x08
    3f76:	21 ef       	ldi	r18, 0xF1	; 241
    3f78:	39 e4       	ldi	r19, 0x49	; 73
    3f7a:	45 eb       	ldi	r20, 0xB5	; 181
    3f7c:	57 ed       	ldi	r21, 0xD7	; 215
    3f7e:	c5 01       	movw	r24, r10
    3f80:	b4 01       	movw	r22, r8
    3f82:	0e 94 95 2c 	call	0x592a	; 0x592a <__mulsf3>
    3f86:	2b 01       	movw	r4, r22
    3f88:	3c 01       	movw	r6, r24
    3f8a:	20 e0       	ldi	r18, 0x00	; 0
    3f8c:	30 e0       	ldi	r19, 0x00	; 0
    3f8e:	40 e4       	ldi	r20, 0x40	; 64
    3f90:	50 e4       	ldi	r21, 0x40	; 64
    3f92:	6d 85       	ldd	r22, Y+13	; 0x0d
    3f94:	7e 85       	ldd	r23, Y+14	; 0x0e
    3f96:	8f 85       	ldd	r24, Y+15	; 0x0f
    3f98:	98 89       	ldd	r25, Y+16	; 0x10
    3f9a:	0e 94 95 2c 	call	0x592a	; 0x592a <__mulsf3>
    3f9e:	20 e0       	ldi	r18, 0x00	; 0
    3fa0:	30 e0       	ldi	r19, 0x00	; 0
    3fa2:	40 e8       	ldi	r20, 0x80	; 128
    3fa4:	5f e3       	ldi	r21, 0x3F	; 63
    3fa6:	0e 94 98 29 	call	0x5330	; 0x5330 <__addsf3>
    3faa:	29 89       	ldd	r18, Y+17	; 0x11
    3fac:	3a 89       	ldd	r19, Y+18	; 0x12
    3fae:	4b 89       	ldd	r20, Y+19	; 0x13
    3fb0:	5c 89       	ldd	r21, Y+20	; 0x14
    3fb2:	0e 94 97 29 	call	0x532e	; 0x532e <__subsf3>
    3fb6:	9b 01       	movw	r18, r22
    3fb8:	ac 01       	movw	r20, r24
    3fba:	c3 01       	movw	r24, r6
    3fbc:	b2 01       	movw	r22, r4
    3fbe:	0e 94 95 2c 	call	0x592a	; 0x592a <__mulsf3>
    3fc2:	a7 01       	movw	r20, r14
    3fc4:	96 01       	movw	r18, r12
    3fc6:	0e 94 7c 2a 	call	0x54f8	; 0x54f8 <__divsf3>
    3fca:	69 87       	std	Y+9, r22	; 0x09
    3fcc:	7a 87       	std	Y+10, r23	; 0x0a
    3fce:	8b 87       	std	Y+11, r24	; 0x0b
    3fd0:	9c 87       	std	Y+12, r25	; 0x0c
    3fd2:	b8 01       	movw	r22, r16
    3fd4:	ce 01       	movw	r24, r28
    3fd6:	01 96       	adiw	r24, 0x01	; 1
    3fd8:	0e 94 46 0b 	call	0x168c	; 0x168c <ecef2eci>
    3fdc:	64 96       	adiw	r28, 0x14	; 20
    3fde:	0f b6       	in	r0, 0x3f	; 63
    3fe0:	f8 94       	cli
    3fe2:	de bf       	out	0x3e, r29	; 62
    3fe4:	0f be       	out	0x3f, r0	; 63
    3fe6:	cd bf       	out	0x3d, r28	; 61
    3fe8:	df 91       	pop	r29
    3fea:	cf 91       	pop	r28
    3fec:	1f 91       	pop	r17
    3fee:	0f 91       	pop	r16
    3ff0:	ff 90       	pop	r15
    3ff2:	ef 90       	pop	r14
    3ff4:	df 90       	pop	r13
    3ff6:	cf 90       	pop	r12
    3ff8:	bf 90       	pop	r11
    3ffa:	af 90       	pop	r10
    3ffc:	9f 90       	pop	r9
    3ffe:	8f 90       	pop	r8
    4000:	7f 90       	pop	r7
    4002:	6f 90       	pop	r6
    4004:	5f 90       	pop	r5
    4006:	4f 90       	pop	r4
    4008:	08 95       	ret

0000400a <sgp_orbit_propagator>:
    400a:	9f 92       	push	r9
    400c:	af 92       	push	r10
    400e:	bf 92       	push	r11
    4010:	cf 92       	push	r12
    4012:	df 92       	push	r13
    4014:	ef 92       	push	r14
    4016:	ff 92       	push	r15
    4018:	0f 93       	push	r16
    401a:	1f 93       	push	r17
    401c:	cf 93       	push	r28
    401e:	df 93       	push	r29
    4020:	cd b7       	in	r28, 0x3d	; 61
    4022:	de b7       	in	r29, 0x3e	; 62
    4024:	68 97       	sbiw	r28, 0x18	; 24
    4026:	0f b6       	in	r0, 0x3f	; 63
    4028:	f8 94       	cli
    402a:	de bf       	out	0x3e, r29	; 62
    402c:	0f be       	out	0x3f, r0	; 63
    402e:	cd bf       	out	0x3d, r28	; 61
    4030:	4a e0       	ldi	r20, 0x0A	; 10
    4032:	94 2e       	mov	r9, r20
    4034:	ce 01       	movw	r24, r28
    4036:	49 96       	adiw	r24, 0x19	; 25
    4038:	5c 01       	movw	r10, r24
    403a:	ce 01       	movw	r24, r28
    403c:	0d 96       	adiw	r24, 0x0d	; 13
    403e:	ef de       	rcall	.-546    	; 0x3e1e <sgp_get_acceleration>
    4040:	be 01       	movw	r22, r28
    4042:	6f 5f       	subi	r22, 0xFF	; 255
    4044:	7f 4f       	sbci	r23, 0xFF	; 255
    4046:	80 e8       	ldi	r24, 0x80	; 128
    4048:	94 e0       	ldi	r25, 0x04	; 4
    404a:	0b db       	rcall	.-2538   	; 0x3662 <copy_vector>
    404c:	fe 01       	movw	r30, r28
    404e:	3d 96       	adiw	r30, 0x0d	; 13
    4050:	7f 01       	movw	r14, r30
    4052:	00 e8       	ldi	r16, 0x80	; 128
    4054:	14 e0       	ldi	r17, 0x04	; 4
    4056:	f7 01       	movw	r30, r14
    4058:	61 91       	ld	r22, Z+
    405a:	71 91       	ld	r23, Z+
    405c:	81 91       	ld	r24, Z+
    405e:	91 91       	ld	r25, Z+
    4060:	7f 01       	movw	r14, r30
    4062:	2d ec       	ldi	r18, 0xCD	; 205
    4064:	3c ec       	ldi	r19, 0xCC	; 204
    4066:	4c e4       	ldi	r20, 0x4C	; 76
    4068:	5e e3       	ldi	r21, 0x3E	; 62
    406a:	0e 94 95 2c 	call	0x592a	; 0x592a <__mulsf3>
    406e:	9b 01       	movw	r18, r22
    4070:	ac 01       	movw	r20, r24
    4072:	f8 01       	movw	r30, r16
    4074:	60 81       	ld	r22, Z
    4076:	71 81       	ldd	r23, Z+1	; 0x01
    4078:	82 81       	ldd	r24, Z+2	; 0x02
    407a:	93 81       	ldd	r25, Z+3	; 0x03
    407c:	0e 94 98 29 	call	0x5330	; 0x5330 <__addsf3>
    4080:	f8 01       	movw	r30, r16
    4082:	61 93       	st	Z+, r22
    4084:	71 93       	st	Z+, r23
    4086:	81 93       	st	Z+, r24
    4088:	91 93       	st	Z+, r25
    408a:	8f 01       	movw	r16, r30
    408c:	ea 14       	cp	r14, r10
    408e:	fb 04       	cpc	r15, r11
    4090:	11 f7       	brne	.-60     	; 0x4056 <sgp_orbit_propagator+0x4c>
    4092:	ce 01       	movw	r24, r28
    4094:	01 96       	adiw	r24, 0x01	; 1
    4096:	6c 01       	movw	r12, r24
    4098:	38 e9       	ldi	r19, 0x98	; 152
    409a:	e3 2e       	mov	r14, r19
    409c:	34 e0       	ldi	r19, 0x04	; 4
    409e:	f3 2e       	mov	r15, r19
    40a0:	00 e8       	ldi	r16, 0x80	; 128
    40a2:	14 e0       	ldi	r17, 0x04	; 4
    40a4:	f8 01       	movw	r30, r16
    40a6:	61 91       	ld	r22, Z+
    40a8:	71 91       	ld	r23, Z+
    40aa:	81 91       	ld	r24, Z+
    40ac:	91 91       	ld	r25, Z+
    40ae:	8f 01       	movw	r16, r30
    40b0:	f6 01       	movw	r30, r12
    40b2:	21 91       	ld	r18, Z+
    40b4:	31 91       	ld	r19, Z+
    40b6:	41 91       	ld	r20, Z+
    40b8:	51 91       	ld	r21, Z+
    40ba:	6f 01       	movw	r12, r30
    40bc:	0e 94 98 29 	call	0x5330	; 0x5330 <__addsf3>
    40c0:	20 e0       	ldi	r18, 0x00	; 0
    40c2:	30 e0       	ldi	r19, 0x00	; 0
    40c4:	40 e0       	ldi	r20, 0x00	; 0
    40c6:	5f e3       	ldi	r21, 0x3F	; 63
    40c8:	0e 94 95 2c 	call	0x592a	; 0x592a <__mulsf3>
    40cc:	2d ec       	ldi	r18, 0xCD	; 205
    40ce:	3c ec       	ldi	r19, 0xCC	; 204
    40d0:	4c e4       	ldi	r20, 0x4C	; 76
    40d2:	5e e3       	ldi	r21, 0x3E	; 62
    40d4:	0e 94 95 2c 	call	0x592a	; 0x592a <__mulsf3>
    40d8:	9b 01       	movw	r18, r22
    40da:	ac 01       	movw	r20, r24
    40dc:	f7 01       	movw	r30, r14
    40de:	60 81       	ld	r22, Z
    40e0:	71 81       	ldd	r23, Z+1	; 0x01
    40e2:	82 81       	ldd	r24, Z+2	; 0x02
    40e4:	93 81       	ldd	r25, Z+3	; 0x03
    40e6:	0e 94 98 29 	call	0x5330	; 0x5330 <__addsf3>
    40ea:	f7 01       	movw	r30, r14
    40ec:	61 93       	st	Z+, r22
    40ee:	71 93       	st	Z+, r23
    40f0:	81 93       	st	Z+, r24
    40f2:	91 93       	st	Z+, r25
    40f4:	7f 01       	movw	r14, r30
    40f6:	f4 e0       	ldi	r31, 0x04	; 4
    40f8:	0c 38       	cpi	r16, 0x8C	; 140
    40fa:	1f 07       	cpc	r17, r31
    40fc:	99 f6       	brne	.-90     	; 0x40a4 <sgp_orbit_propagator+0x9a>
    40fe:	9a 94       	dec	r9
    4100:	09 f0       	breq	.+2      	; 0x4104 <sgp_orbit_propagator+0xfa>
    4102:	9b cf       	rjmp	.-202    	; 0x403a <sgp_orbit_propagator+0x30>
    4104:	68 96       	adiw	r28, 0x18	; 24
    4106:	0f b6       	in	r0, 0x3f	; 63
    4108:	f8 94       	cli
    410a:	de bf       	out	0x3e, r29	; 62
    410c:	0f be       	out	0x3f, r0	; 63
    410e:	cd bf       	out	0x3d, r28	; 61
    4110:	df 91       	pop	r29
    4112:	cf 91       	pop	r28
    4114:	1f 91       	pop	r17
    4116:	0f 91       	pop	r16
    4118:	ff 90       	pop	r15
    411a:	ef 90       	pop	r14
    411c:	df 90       	pop	r13
    411e:	cf 90       	pop	r12
    4120:	bf 90       	pop	r11
    4122:	af 90       	pop	r10
    4124:	9f 90       	pop	r9
    4126:	08 95       	ret

00004128 <sun_vector_estimator>:
    4128:	4f 92       	push	r4
    412a:	5f 92       	push	r5
    412c:	6f 92       	push	r6
    412e:	7f 92       	push	r7
    4130:	8f 92       	push	r8
    4132:	9f 92       	push	r9
    4134:	af 92       	push	r10
    4136:	bf 92       	push	r11
    4138:	cf 92       	push	r12
    413a:	df 92       	push	r13
    413c:	ef 92       	push	r14
    413e:	ff 92       	push	r15
    4140:	0f 93       	push	r16
    4142:	1f 93       	push	r17
    4144:	cf 93       	push	r28
    4146:	df 93       	push	r29
    4148:	cd b7       	in	r28, 0x3d	; 61
    414a:	de b7       	in	r29, 0x3e	; 62
    414c:	2c 97       	sbiw	r28, 0x0c	; 12
    414e:	0f b6       	in	r0, 0x3f	; 63
    4150:	f8 94       	cli
    4152:	de bf       	out	0x3e, r29	; 62
    4154:	0f be       	out	0x3f, r0	; 63
    4156:	cd bf       	out	0x3d, r28	; 61
    4158:	8c 01       	movw	r16, r24
    415a:	20 91 d2 04 	lds	r18, 0x04D2
    415e:	30 91 d3 04 	lds	r19, 0x04D3
    4162:	40 91 d4 04 	lds	r20, 0x04D4
    4166:	50 91 d5 04 	lds	r21, 0x04D5
    416a:	60 91 d6 04 	lds	r22, 0x04D6
    416e:	70 91 d7 04 	lds	r23, 0x04D7
    4172:	80 91 d8 04 	lds	r24, 0x04D8
    4176:	90 91 d9 04 	lds	r25, 0x04D9
    417a:	0e 94 4d 2b 	call	0x569a	; 0x569a <__floatundisf>
    417e:	20 e0       	ldi	r18, 0x00	; 0
    4180:	30 ec       	ldi	r19, 0xC0	; 192
    4182:	48 ea       	ldi	r20, 0xA8	; 168
    4184:	57 e4       	ldi	r21, 0x47	; 71
    4186:	0e 94 7c 2a 	call	0x54f8	; 0x54f8 <__divsf3>
    418a:	2b ed       	ldi	r18, 0xDB	; 219
    418c:	3f e0       	ldi	r19, 0x0F	; 15
    418e:	49 ec       	ldi	r20, 0xC9	; 201
    4190:	50 e4       	ldi	r21, 0x40	; 64
    4192:	0e 94 95 2c 	call	0x592a	; 0x592a <__mulsf3>
    4196:	21 ed       	ldi	r18, 0xD1	; 209
    4198:	30 ea       	ldi	r19, 0xA0	; 160
    419a:	46 eb       	ldi	r20, 0xB6	; 182
    419c:	53 e4       	ldi	r21, 0x43	; 67
    419e:	0e 94 7c 2a 	call	0x54f8	; 0x54f8 <__divsf3>
    41a2:	4b 01       	movw	r8, r22
    41a4:	5c 01       	movw	r10, r24
    41a6:	0e 94 44 2d 	call	0x5a88	; 0x5a88 <sin>
    41aa:	20 e9       	ldi	r18, 0x90	; 144
    41ac:	3e e2       	ldi	r19, 0x2E	; 46
    41ae:	4c ec       	ldi	r20, 0xCC	; 204
    41b0:	5e e3       	ldi	r21, 0x3E	; 62
    41b2:	0e 94 95 2c 	call	0x592a	; 0x592a <__mulsf3>
    41b6:	0e 94 fc 29 	call	0x53f8	; 0x53f8 <asin>
    41ba:	6b 01       	movw	r12, r22
    41bc:	7c 01       	movw	r14, r24
    41be:	c5 01       	movw	r24, r10
    41c0:	b4 01       	movw	r22, r8
    41c2:	0e 94 79 2a 	call	0x54f2	; 0x54f2 <cos>
    41c6:	2b 01       	movw	r4, r22
    41c8:	3c 01       	movw	r6, r24
    41ca:	c7 01       	movw	r24, r14
    41cc:	b6 01       	movw	r22, r12
    41ce:	0e 94 79 2a 	call	0x54f2	; 0x54f2 <cos>
    41d2:	4b 01       	movw	r8, r22
    41d4:	5c 01       	movw	r10, r24
    41d6:	9b 01       	movw	r18, r22
    41d8:	ac 01       	movw	r20, r24
    41da:	c3 01       	movw	r24, r6
    41dc:	b2 01       	movw	r22, r4
    41de:	0e 94 7c 2a 	call	0x54f8	; 0x54f8 <__divsf3>
    41e2:	0e 94 89 29 	call	0x5312	; 0x5312 <acos>
    41e6:	2b 01       	movw	r4, r22
    41e8:	3c 01       	movw	r6, r24
    41ea:	20 e0       	ldi	r18, 0x00	; 0
    41ec:	30 e0       	ldi	r19, 0x00	; 0
    41ee:	a9 01       	movw	r20, r18
    41f0:	c7 01       	movw	r24, r14
    41f2:	b6 01       	movw	r22, r12
    41f4:	0e 94 8a 2c 	call	0x5914	; 0x5914 <__gesf2>
    41f8:	87 ff       	sbrs	r24, 7
    41fa:	0a c0       	rjmp	.+20     	; 0x4210 <sun_vector_estimator+0xe8>
    41fc:	a3 01       	movw	r20, r6
    41fe:	92 01       	movw	r18, r4
    4200:	6b ed       	ldi	r22, 0xDB	; 219
    4202:	7f e0       	ldi	r23, 0x0F	; 15
    4204:	89 ec       	ldi	r24, 0xC9	; 201
    4206:	90 e4       	ldi	r25, 0x40	; 64
    4208:	0e 94 97 29 	call	0x532e	; 0x532e <__subsf3>
    420c:	2b 01       	movw	r4, r22
    420e:	3c 01       	movw	r6, r24
    4210:	c3 01       	movw	r24, r6
    4212:	b2 01       	movw	r22, r4
    4214:	0e 94 79 2a 	call	0x54f2	; 0x54f2 <cos>
    4218:	9b 01       	movw	r18, r22
    421a:	ac 01       	movw	r20, r24
    421c:	c5 01       	movw	r24, r10
    421e:	b4 01       	movw	r22, r8
    4220:	0e 94 95 2c 	call	0x592a	; 0x592a <__mulsf3>
    4224:	69 83       	std	Y+1, r22	; 0x01
    4226:	7a 83       	std	Y+2, r23	; 0x02
    4228:	8b 83       	std	Y+3, r24	; 0x03
    422a:	9c 83       	std	Y+4, r25	; 0x04
    422c:	c3 01       	movw	r24, r6
    422e:	b2 01       	movw	r22, r4
    4230:	0e 94 44 2d 	call	0x5a88	; 0x5a88 <sin>
    4234:	9b 01       	movw	r18, r22
    4236:	ac 01       	movw	r20, r24
    4238:	c5 01       	movw	r24, r10
    423a:	b4 01       	movw	r22, r8
    423c:	0e 94 95 2c 	call	0x592a	; 0x592a <__mulsf3>
    4240:	6d 83       	std	Y+5, r22	; 0x05
    4242:	7e 83       	std	Y+6, r23	; 0x06
    4244:	8f 83       	std	Y+7, r24	; 0x07
    4246:	98 87       	std	Y+8, r25	; 0x08
    4248:	c7 01       	movw	r24, r14
    424a:	b6 01       	movw	r22, r12
    424c:	0e 94 44 2d 	call	0x5a88	; 0x5a88 <sin>
    4250:	69 87       	std	Y+9, r22	; 0x09
    4252:	7a 87       	std	Y+10, r23	; 0x0a
    4254:	8b 87       	std	Y+11, r24	; 0x0b
    4256:	9c 87       	std	Y+12, r25	; 0x0c
    4258:	2d ec       	ldi	r18, 0xCD	; 205
    425a:	3c ec       	ldi	r19, 0xCC	; 204
    425c:	4c ec       	ldi	r20, 0xCC	; 204
    425e:	5d e3       	ldi	r21, 0x3D	; 61
    4260:	60 91 7c 04 	lds	r22, 0x047C
    4264:	70 91 7d 04 	lds	r23, 0x047D
    4268:	80 91 7e 04 	lds	r24, 0x047E
    426c:	90 91 7f 04 	lds	r25, 0x047F
    4270:	0e 94 98 29 	call	0x5330	; 0x5330 <__addsf3>
    4274:	60 93 7c 04 	sts	0x047C, r22
    4278:	70 93 7d 04 	sts	0x047D, r23
    427c:	80 93 7e 04 	sts	0x047E, r24
    4280:	90 93 7f 04 	sts	0x047F, r25
    4284:	98 01       	movw	r18, r16
    4286:	ae 01       	movw	r20, r28
    4288:	4f 5f       	subi	r20, 0xFF	; 255
    428a:	5f 4f       	sbci	r21, 0xFF	; 255
    428c:	60 e8       	ldi	r22, 0x80	; 128
    428e:	74 e0       	ldi	r23, 0x04	; 4
    4290:	88 e9       	ldi	r24, 0x98	; 152
    4292:	94 e0       	ldi	r25, 0x04	; 4
    4294:	0e 94 57 0c 	call	0x18ae	; 0x18ae <eci2orbit>
    4298:	2c 96       	adiw	r28, 0x0c	; 12
    429a:	0f b6       	in	r0, 0x3f	; 63
    429c:	f8 94       	cli
    429e:	de bf       	out	0x3e, r29	; 62
    42a0:	0f be       	out	0x3f, r0	; 63
    42a2:	cd bf       	out	0x3d, r28	; 61
    42a4:	df 91       	pop	r29
    42a6:	cf 91       	pop	r28
    42a8:	1f 91       	pop	r17
    42aa:	0f 91       	pop	r16
    42ac:	ff 90       	pop	r15
    42ae:	ef 90       	pop	r14
    42b0:	df 90       	pop	r13
    42b2:	cf 90       	pop	r12
    42b4:	bf 90       	pop	r11
    42b6:	af 90       	pop	r10
    42b8:	9f 90       	pop	r9
    42ba:	8f 90       	pop	r8
    42bc:	7f 90       	pop	r7
    42be:	6f 90       	pop	r6
    42c0:	5f 90       	pop	r5
    42c2:	4f 90       	pop	r4
    42c4:	08 95       	ret

000042c6 <magnetic_field_estimator>:
    42c6:	af 92       	push	r10
    42c8:	bf 92       	push	r11
    42ca:	cf 92       	push	r12
    42cc:	df 92       	push	r13
    42ce:	ef 92       	push	r14
    42d0:	ff 92       	push	r15
    42d2:	0f 93       	push	r16
    42d4:	1f 93       	push	r17
    42d6:	cf 93       	push	r28
    42d8:	df 93       	push	r29
    42da:	cd b7       	in	r28, 0x3d	; 61
    42dc:	de b7       	in	r29, 0x3e	; 62
    42de:	e0 97       	sbiw	r28, 0x30	; 48
    42e0:	0f b6       	in	r0, 0x3f	; 63
    42e2:	f8 94       	cli
    42e4:	de bf       	out	0x3e, r29	; 62
    42e6:	0f be       	out	0x3f, r0	; 63
    42e8:	cd bf       	out	0x3d, r28	; 61
    42ea:	5c 01       	movw	r10, r24
    42ec:	20 91 ca 04 	lds	r18, 0x04CA
    42f0:	30 91 cb 04 	lds	r19, 0x04CB
    42f4:	40 91 cc 04 	lds	r20, 0x04CC
    42f8:	50 91 cd 04 	lds	r21, 0x04CD
    42fc:	60 91 ce 04 	lds	r22, 0x04CE
    4300:	70 91 cf 04 	lds	r23, 0x04CF
    4304:	80 91 d0 04 	lds	r24, 0x04D0
    4308:	90 91 d1 04 	lds	r25, 0x04D1
    430c:	0e 94 4d 2b 	call	0x569a	; 0x569a <__floatundisf>
    4310:	20 ec       	ldi	r18, 0xC0	; 192
    4312:	39 e9       	ldi	r19, 0x99	; 153
    4314:	40 ef       	ldi	r20, 0xF0	; 240
    4316:	5b e4       	ldi	r21, 0x4B	; 75
    4318:	0e 94 7c 2a 	call	0x54f8	; 0x54f8 <__divsf3>
    431c:	20 e0       	ldi	r18, 0x00	; 0
    431e:	30 ee       	ldi	r19, 0xE0	; 224
    4320:	4b ef       	ldi	r20, 0xFB	; 251
    4322:	54 e4       	ldi	r21, 0x44	; 68
    4324:	0e 94 98 29 	call	0x5330	; 0x5330 <__addsf3>
    4328:	6b 01       	movw	r12, r22
    432a:	7c 01       	movw	r14, r24
    432c:	be 01       	movw	r22, r28
    432e:	6b 5d       	subi	r22, 0xDB	; 219
    4330:	7f 4f       	sbci	r23, 0xFF	; 255
    4332:	88 e9       	ldi	r24, 0x98	; 152
    4334:	94 e0       	ldi	r25, 0x04	; 4
    4336:	0e 94 cd 0b 	call	0x179a	; 0x179a <eci2ecef>
    433a:	be 01       	movw	r22, r28
    433c:	67 5e       	subi	r22, 0xE7	; 231
    433e:	7f 4f       	sbci	r23, 0xFF	; 255
    4340:	ce 01       	movw	r24, r28
    4342:	85 96       	adiw	r24, 0x25	; 37
    4344:	0e 94 09 0d 	call	0x1a12	; 0x1a12 <ecef2lla>
    4348:	68 e5       	ldi	r22, 0x58	; 88
    434a:	75 e0       	ldi	r23, 0x05	; 5
    434c:	ce 01       	movw	r24, r28
    434e:	49 96       	adiw	r24, 0x19	; 25
    4350:	88 d9       	rcall	.-3312   	; 0x3662 <copy_vector>
    4352:	8e 01       	movw	r16, r28
    4354:	03 5f       	subi	r16, 0xF3	; 243
    4356:	1f 4f       	sbci	r17, 0xFF	; 255
    4358:	28 e0       	ldi	r18, 0x08	; 8
    435a:	b7 01       	movw	r22, r14
    435c:	a6 01       	movw	r20, r12
    435e:	ce 01       	movw	r24, r28
    4360:	49 96       	adiw	r24, 0x19	; 25
    4362:	0e 94 45 13 	call	0x268a	; 0x268a <igrf>
    4366:	ae 01       	movw	r20, r28
    4368:	4b 5d       	subi	r20, 0xDB	; 219
    436a:	5f 4f       	sbci	r21, 0xFF	; 255
    436c:	be 01       	movw	r22, r28
    436e:	67 5e       	subi	r22, 0xE7	; 231
    4370:	7f 4f       	sbci	r23, 0xFF	; 255
    4372:	c8 01       	movw	r24, r16
    4374:	0e 94 41 0e 	call	0x1c82	; 0x1c82 <ned2ecef>
    4378:	be 01       	movw	r22, r28
    437a:	6f 5f       	subi	r22, 0xFF	; 255
    437c:	7f 4f       	sbci	r23, 0xFF	; 255
    437e:	ce 01       	movw	r24, r28
    4380:	85 96       	adiw	r24, 0x25	; 37
    4382:	0e 94 46 0b 	call	0x168c	; 0x168c <ecef2eci>
    4386:	95 01       	movw	r18, r10
    4388:	ae 01       	movw	r20, r28
    438a:	4f 5f       	subi	r20, 0xFF	; 255
    438c:	5f 4f       	sbci	r21, 0xFF	; 255
    438e:	60 e8       	ldi	r22, 0x80	; 128
    4390:	74 e0       	ldi	r23, 0x04	; 4
    4392:	88 e9       	ldi	r24, 0x98	; 152
    4394:	94 e0       	ldi	r25, 0x04	; 4
    4396:	0e 94 57 0c 	call	0x18ae	; 0x18ae <eci2orbit>
    439a:	e0 96       	adiw	r28, 0x30	; 48
    439c:	0f b6       	in	r0, 0x3f	; 63
    439e:	f8 94       	cli
    43a0:	de bf       	out	0x3e, r29	; 62
    43a2:	0f be       	out	0x3f, r0	; 63
    43a4:	cd bf       	out	0x3d, r28	; 61
    43a6:	df 91       	pop	r29
    43a8:	cf 91       	pop	r28
    43aa:	1f 91       	pop	r17
    43ac:	0f 91       	pop	r16
    43ae:	ff 90       	pop	r15
    43b0:	ef 90       	pop	r14
    43b2:	df 90       	pop	r13
    43b4:	cf 90       	pop	r12
    43b6:	bf 90       	pop	r11
    43b8:	af 90       	pop	r10
    43ba:	08 95       	ret

000043bc <light_cal>:
    43bc:	1f 93       	push	r17
    43be:	cf 93       	push	r28
    43c0:	df 93       	push	r29
    43c2:	cc e1       	ldi	r28, 0x1C	; 28
    43c4:	d5 e0       	ldi	r29, 0x05	; 5
    43c6:	10 e0       	ldi	r17, 0x00	; 0
    43c8:	69 91       	ld	r22, Y+
    43ca:	79 91       	ld	r23, Y+
    43cc:	89 91       	ld	r24, Y+
    43ce:	99 91       	ld	r25, Y+
    43d0:	23 e3       	ldi	r18, 0x33	; 51
    43d2:	33 e3       	ldi	r19, 0x33	; 51
    43d4:	43 ed       	ldi	r20, 0xD3	; 211
    43d6:	5f e3       	ldi	r21, 0x3F	; 63
    43d8:	0e 94 75 2a 	call	0x54ea	; 0x54ea <__cmpsf2>
    43dc:	87 fd       	sbrc	r24, 7
    43de:	1f 5f       	subi	r17, 0xFF	; 255
    43e0:	85 e0       	ldi	r24, 0x05	; 5
    43e2:	c4 33       	cpi	r28, 0x34	; 52
    43e4:	d8 07       	cpc	r29, r24
    43e6:	81 f7       	brne	.-32     	; 0x43c8 <light_cal+0xc>
    43e8:	81 e0       	ldi	r24, 0x01	; 1
    43ea:	16 30       	cpi	r17, 0x06	; 6
    43ec:	21 f0       	breq	.+8      	; 0x43f6 <light_cal+0x3a>
    43ee:	df 91       	pop	r29
    43f0:	cf 91       	pop	r28
    43f2:	1f 91       	pop	r17
    43f4:	08 95       	ret
    43f6:	80 e0       	ldi	r24, 0x00	; 0
    43f8:	df 91       	pop	r29
    43fa:	cf 91       	pop	r28
    43fc:	1f 91       	pop	r17
    43fe:	08 95       	ret

00004400 <quest>:
    4400:	2f 92       	push	r2
    4402:	3f 92       	push	r3
    4404:	4f 92       	push	r4
    4406:	5f 92       	push	r5
    4408:	6f 92       	push	r6
    440a:	7f 92       	push	r7
    440c:	8f 92       	push	r8
    440e:	9f 92       	push	r9
    4410:	af 92       	push	r10
    4412:	bf 92       	push	r11
    4414:	cf 92       	push	r12
    4416:	df 92       	push	r13
    4418:	ef 92       	push	r14
    441a:	ff 92       	push	r15
    441c:	0f 93       	push	r16
    441e:	1f 93       	push	r17
    4420:	cf 93       	push	r28
    4422:	df 93       	push	r29
    4424:	cd b7       	in	r28, 0x3d	; 61
    4426:	de b7       	in	r29, 0x3e	; 62
    4428:	cc 57       	subi	r28, 0x7C	; 124
    442a:	d1 09       	sbc	r29, r1
    442c:	0f b6       	in	r0, 0x3f	; 63
    442e:	f8 94       	cli
    4430:	de bf       	out	0x3e, r29	; 62
    4432:	0f be       	out	0x3f, r0	; 63
    4434:	cd bf       	out	0x3d, r28	; 61
    4436:	3c 01       	movw	r6, r24
    4438:	8b 01       	movw	r16, r22
    443a:	e1 96       	adiw	r28, 0x31	; 49
    443c:	5f af       	std	Y+63, r21	; 0x3f
    443e:	4e af       	std	Y+62, r20	; 0x3e
    4440:	e1 97       	sbiw	r28, 0x31	; 49
    4442:	69 01       	movw	r12, r18
    4444:	8c e1       	ldi	r24, 0x1C	; 28
    4446:	e8 2e       	mov	r14, r24
    4448:	85 e0       	ldi	r24, 0x05	; 5
    444a:	f8 2e       	mov	r15, r24
    444c:	b1 2c       	mov	r11, r1
    444e:	f7 01       	movw	r30, r14
    4450:	61 91       	ld	r22, Z+
    4452:	71 91       	ld	r23, Z+
    4454:	81 91       	ld	r24, Z+
    4456:	91 91       	ld	r25, Z+
    4458:	7f 01       	movw	r14, r30
    445a:	23 e3       	ldi	r18, 0x33	; 51
    445c:	33 e3       	ldi	r19, 0x33	; 51
    445e:	43 ed       	ldi	r20, 0xD3	; 211
    4460:	5f e3       	ldi	r21, 0x3F	; 63
    4462:	0e 94 75 2a 	call	0x54ea	; 0x54ea <__cmpsf2>
    4466:	87 fd       	sbrc	r24, 7
    4468:	b3 94       	inc	r11
    446a:	f4 e3       	ldi	r31, 0x34	; 52
    446c:	ef 16       	cp	r14, r31
    446e:	f5 e0       	ldi	r31, 0x05	; 5
    4470:	ff 06       	cpc	r15, r31
    4472:	69 f7       	brne	.-38     	; 0x444e <quest+0x4e>
    4474:	26 e0       	ldi	r18, 0x06	; 6
    4476:	b2 16       	cp	r11, r18
    4478:	09 f4       	brne	.+2      	; 0x447c <quest+0x7c>
    447a:	63 c2       	rjmp	.+1222   	; 0x4942 <quest+0x542>
    447c:	f6 01       	movw	r30, r12
    447e:	80 81       	ld	r24, Z
    4480:	81 11       	cpse	r24, r1
    4482:	0d c0       	rjmp	.+26     	; 0x449e <quest+0x9e>
    4484:	80 91 a4 04 	lds	r24, 0x04A4
    4488:	90 91 a5 04 	lds	r25, 0x04A5
    448c:	02 96       	adiw	r24, 0x02	; 2
    448e:	90 93 a5 04 	sts	0x04A5, r25
    4492:	80 93 a4 04 	sts	0x04A4, r24
    4496:	8c 32       	cpi	r24, 0x2C	; 44
    4498:	91 40       	sbci	r25, 0x01	; 1
    449a:	09 f4       	brne	.+2      	; 0x449e <quest+0x9e>
    449c:	78 c2       	rjmp	.+1264   	; 0x498e <quest+0x58e>
    449e:	80 91 14 01 	lds	r24, 0x0114
    44a2:	81 11       	cpse	r24, r1
    44a4:	06 c0       	rjmp	.+12     	; 0x44b2 <quest+0xb2>
    44a6:	f6 01       	movw	r30, r12
    44a8:	10 82       	st	Z, r1
    44aa:	10 92 a5 04 	sts	0x04A5, r1
    44ae:	10 92 a4 04 	sts	0x04A4, r1
    44b2:	c0 90 1c 05 	lds	r12, 0x051C
    44b6:	d0 90 1d 05 	lds	r13, 0x051D
    44ba:	e0 90 1e 05 	lds	r14, 0x051E
    44be:	f0 90 1f 05 	lds	r15, 0x051F
    44c2:	80 90 20 05 	lds	r8, 0x0520
    44c6:	90 90 21 05 	lds	r9, 0x0521
    44ca:	a0 90 22 05 	lds	r10, 0x0522
    44ce:	b0 90 23 05 	lds	r11, 0x0523
    44d2:	a5 01       	movw	r20, r10
    44d4:	94 01       	movw	r18, r8
    44d6:	c7 01       	movw	r24, r14
    44d8:	b6 01       	movw	r22, r12
    44da:	0e 94 8a 2c 	call	0x5914	; 0x5914 <__gesf2>
    44de:	1e 01       	movw	r2, r28
    44e0:	f1 e6       	ldi	r31, 0x61	; 97
    44e2:	2f 0e       	add	r2, r31
    44e4:	31 1c       	adc	r3, r1
    44e6:	18 16       	cp	r1, r24
    44e8:	0c f4       	brge	.+2      	; 0x44ec <quest+0xec>
    44ea:	25 c2       	rjmp	.+1098   	; 0x4936 <quest+0x536>
    44ec:	b7 fa       	bst	r11, 7
    44ee:	b0 94       	com	r11
    44f0:	b7 f8       	bld	r11, 7
    44f2:	b0 94       	com	r11
    44f4:	f1 01       	movw	r30, r2
    44f6:	80 82       	st	Z, r8
    44f8:	91 82       	std	Z+1, r9	; 0x01
    44fa:	a2 82       	std	Z+2, r10	; 0x02
    44fc:	b3 82       	std	Z+3, r11	; 0x03
    44fe:	c0 90 24 05 	lds	r12, 0x0524
    4502:	d0 90 25 05 	lds	r13, 0x0525
    4506:	e0 90 26 05 	lds	r14, 0x0526
    450a:	f0 90 27 05 	lds	r15, 0x0527
    450e:	80 90 28 05 	lds	r8, 0x0528
    4512:	90 90 29 05 	lds	r9, 0x0529
    4516:	a0 90 2a 05 	lds	r10, 0x052A
    451a:	b0 90 2b 05 	lds	r11, 0x052B
    451e:	a5 01       	movw	r20, r10
    4520:	94 01       	movw	r18, r8
    4522:	c7 01       	movw	r24, r14
    4524:	b6 01       	movw	r22, r12
    4526:	0e 94 8a 2c 	call	0x5914	; 0x5914 <__gesf2>
    452a:	18 16       	cp	r1, r24
    452c:	0c f4       	brge	.+2      	; 0x4530 <quest+0x130>
    452e:	29 c2       	rjmp	.+1106   	; 0x4982 <quest+0x582>
    4530:	b7 fa       	bst	r11, 7
    4532:	b0 94       	com	r11
    4534:	b7 f8       	bld	r11, 7
    4536:	b0 94       	com	r11
    4538:	f1 01       	movw	r30, r2
    453a:	84 82       	std	Z+4, r8	; 0x04
    453c:	95 82       	std	Z+5, r9	; 0x05
    453e:	a6 82       	std	Z+6, r10	; 0x06
    4540:	b7 82       	std	Z+7, r11	; 0x07
    4542:	c0 90 2c 05 	lds	r12, 0x052C
    4546:	d0 90 2d 05 	lds	r13, 0x052D
    454a:	e0 90 2e 05 	lds	r14, 0x052E
    454e:	f0 90 2f 05 	lds	r15, 0x052F
    4552:	80 90 30 05 	lds	r8, 0x0530
    4556:	90 90 31 05 	lds	r9, 0x0531
    455a:	a0 90 32 05 	lds	r10, 0x0532
    455e:	b0 90 33 05 	lds	r11, 0x0533
    4562:	a5 01       	movw	r20, r10
    4564:	94 01       	movw	r18, r8
    4566:	c7 01       	movw	r24, r14
    4568:	b6 01       	movw	r22, r12
    456a:	0e 94 8a 2c 	call	0x5914	; 0x5914 <__gesf2>
    456e:	18 16       	cp	r1, r24
    4570:	0c f4       	brge	.+2      	; 0x4574 <quest+0x174>
    4572:	01 c2       	rjmp	.+1026   	; 0x4976 <quest+0x576>
    4574:	b7 fa       	bst	r11, 7
    4576:	b0 94       	com	r11
    4578:	b7 f8       	bld	r11, 7
    457a:	b0 94       	com	r11
    457c:	f1 01       	movw	r30, r2
    457e:	80 86       	std	Z+8, r8	; 0x08
    4580:	91 86       	std	Z+9, r9	; 0x09
    4582:	a2 86       	std	Z+10, r10	; 0x0a
    4584:	b3 86       	std	Z+11, r11	; 0x0b
    4586:	c1 01       	movw	r24, r2
    4588:	ec da       	rcall	.-2600   	; 0x3b62 <convert_unit_vector>
    458a:	80 91 34 05 	lds	r24, 0x0534
    458e:	90 91 35 05 	lds	r25, 0x0535
    4592:	a0 91 36 05 	lds	r26, 0x0536
    4596:	b0 91 37 05 	lds	r27, 0x0537
    459a:	69 96       	adiw	r28, 0x19	; 25
    459c:	8c af       	std	Y+60, r24	; 0x3c
    459e:	9d af       	std	Y+61, r25	; 0x3d
    45a0:	ae af       	std	Y+62, r26	; 0x3e
    45a2:	bf af       	std	Y+63, r27	; 0x3f
    45a4:	69 97       	sbiw	r28, 0x19	; 25
    45a6:	80 91 38 05 	lds	r24, 0x0538
    45aa:	90 91 39 05 	lds	r25, 0x0539
    45ae:	a0 91 3a 05 	lds	r26, 0x053A
    45b2:	b0 91 3b 05 	lds	r27, 0x053B
    45b6:	6d 96       	adiw	r28, 0x1d	; 29
    45b8:	8c af       	std	Y+60, r24	; 0x3c
    45ba:	9d af       	std	Y+61, r25	; 0x3d
    45bc:	ae af       	std	Y+62, r26	; 0x3e
    45be:	bf af       	std	Y+63, r27	; 0x3f
    45c0:	6d 97       	sbiw	r28, 0x1d	; 29
    45c2:	80 91 3c 05 	lds	r24, 0x053C
    45c6:	90 91 3d 05 	lds	r25, 0x053D
    45ca:	a0 91 3e 05 	lds	r26, 0x053E
    45ce:	b0 91 3f 05 	lds	r27, 0x053F
    45d2:	a1 96       	adiw	r28, 0x21	; 33
    45d4:	8c af       	std	Y+60, r24	; 0x3c
    45d6:	9d af       	std	Y+61, r25	; 0x3d
    45d8:	ae af       	std	Y+62, r26	; 0x3e
    45da:	bf af       	std	Y+63, r27	; 0x3f
    45dc:	a1 97       	sbiw	r28, 0x21	; 33
    45de:	ae 01       	movw	r20, r28
    45e0:	47 5b       	subi	r20, 0xB7	; 183
    45e2:	5f 4f       	sbci	r21, 0xFF	; 255
    45e4:	b1 01       	movw	r22, r2
    45e6:	ce 01       	movw	r24, r28
    45e8:	8b 5a       	subi	r24, 0xAB	; 171
    45ea:	9f 4f       	sbci	r25, 0xFF	; 255
    45ec:	e3 d9       	rcall	.-3130   	; 0x39b4 <vector_cross_product>
    45ee:	ce 01       	movw	r24, r28
    45f0:	87 5b       	subi	r24, 0xB7	; 183
    45f2:	9f 4f       	sbci	r25, 0xFF	; 255
    45f4:	b6 da       	rcall	.-2708   	; 0x3b62 <convert_unit_vector>
    45f6:	ce 01       	movw	r24, r28
    45f8:	cd 96       	adiw	r24, 0x3d	; 61
    45fa:	af 96       	adiw	r28, 0x2f	; 47
    45fc:	9f af       	std	Y+63, r25	; 0x3f
    45fe:	8e af       	std	Y+62, r24	; 0x3e
    4600:	af 97       	sbiw	r28, 0x2f	; 47
    4602:	ac 01       	movw	r20, r24
    4604:	b8 01       	movw	r22, r16
    4606:	c3 01       	movw	r24, r6
    4608:	d5 d9       	rcall	.-3158   	; 0x39b4 <vector_cross_product>
    460a:	ce 01       	movw	r24, r28
    460c:	cd 96       	adiw	r24, 0x3d	; 61
    460e:	a9 da       	rcall	.-2734   	; 0x3b62 <convert_unit_vector>
    4610:	be 01       	movw	r22, r28
    4612:	63 5c       	subi	r22, 0xC3	; 195
    4614:	7f 4f       	sbci	r23, 0xFF	; 255
    4616:	ce 01       	movw	r24, r28
    4618:	87 5b       	subi	r24, 0xB7	; 183
    461a:	9f 4f       	sbci	r25, 0xFF	; 255
    461c:	ff d8       	rcall	.-3586   	; 0x381c <vector_dot_product>
    461e:	6b 01       	movw	r12, r22
    4620:	7c 01       	movw	r14, r24
    4622:	b3 01       	movw	r22, r6
    4624:	ce 01       	movw	r24, r28
    4626:	8b 5a       	subi	r24, 0xAB	; 171
    4628:	9f 4f       	sbci	r25, 0xFF	; 255
    462a:	f8 d8       	rcall	.-3600   	; 0x381c <vector_dot_product>
    462c:	4b 01       	movw	r8, r22
    462e:	5c 01       	movw	r10, r24
    4630:	b8 01       	movw	r22, r16
    4632:	c1 01       	movw	r24, r2
    4634:	f3 d8       	rcall	.-3610   	; 0x381c <vector_dot_product>
    4636:	e5 96       	adiw	r28, 0x35	; 53
    4638:	6c af       	std	Y+60, r22	; 0x3c
    463a:	7d af       	std	Y+61, r23	; 0x3d
    463c:	8e af       	std	Y+62, r24	; 0x3e
    463e:	9f af       	std	Y+63, r25	; 0x3f
    4640:	e5 97       	sbiw	r28, 0x35	; 53
    4642:	20 e0       	ldi	r18, 0x00	; 0
    4644:	30 e0       	ldi	r19, 0x00	; 0
    4646:	40 e8       	ldi	r20, 0x80	; 128
    4648:	5f e3       	ldi	r21, 0x3F	; 63
    464a:	c7 01       	movw	r24, r14
    464c:	b6 01       	movw	r22, r12
    464e:	70 d6       	rcall	.+3296   	; 0x5330 <__addsf3>
    4650:	6b 01       	movw	r12, r22
    4652:	7c 01       	movw	r14, r24
    4654:	26 e6       	ldi	r18, 0x66	; 102
    4656:	36 e6       	ldi	r19, 0x66	; 102
    4658:	46 e6       	ldi	r20, 0x66	; 102
    465a:	5f e3       	ldi	r21, 0x3F	; 63
    465c:	c5 01       	movw	r24, r10
    465e:	b4 01       	movw	r22, r8
    4660:	0e 94 95 2c 	call	0x592a	; 0x592a <__mulsf3>
    4664:	4b 01       	movw	r8, r22
    4666:	5c 01       	movw	r10, r24
    4668:	20 ed       	ldi	r18, 0xD0	; 208
    466a:	3c ec       	ldi	r19, 0xCC	; 204
    466c:	4c ec       	ldi	r20, 0xCC	; 204
    466e:	5d e3       	ldi	r21, 0x3D	; 61
    4670:	e5 96       	adiw	r28, 0x35	; 53
    4672:	6c ad       	ldd	r22, Y+60	; 0x3c
    4674:	7d ad       	ldd	r23, Y+61	; 0x3d
    4676:	8e ad       	ldd	r24, Y+62	; 0x3e
    4678:	9f ad       	ldd	r25, Y+63	; 0x3f
    467a:	e5 97       	sbiw	r28, 0x35	; 53
    467c:	0e 94 95 2c 	call	0x592a	; 0x592a <__mulsf3>
    4680:	9b 01       	movw	r18, r22
    4682:	ac 01       	movw	r20, r24
    4684:	c5 01       	movw	r24, r10
    4686:	b4 01       	movw	r22, r8
    4688:	53 d6       	rcall	.+3238   	; 0x5330 <__addsf3>
    468a:	9b 01       	movw	r18, r22
    468c:	ac 01       	movw	r20, r24
    468e:	c7 01       	movw	r24, r14
    4690:	b6 01       	movw	r22, r12
    4692:	0e 94 95 2c 	call	0x592a	; 0x592a <__mulsf3>
    4696:	6b 01       	movw	r12, r22
    4698:	7c 01       	movw	r14, r24
    469a:	ae 01       	movw	r20, r28
    469c:	47 5e       	subi	r20, 0xE7	; 231
    469e:	5f 4f       	sbci	r21, 0xFF	; 255
    46a0:	b3 01       	movw	r22, r6
    46a2:	ce 01       	movw	r24, r28
    46a4:	8b 5a       	subi	r24, 0xAB	; 171
    46a6:	9f 4f       	sbci	r25, 0xFF	; 255
    46a8:	85 d9       	rcall	.-3318   	; 0x39b4 <vector_cross_product>
    46aa:	ae 01       	movw	r20, r28
    46ac:	43 5f       	subi	r20, 0xF3	; 243
    46ae:	5f 4f       	sbci	r21, 0xFF	; 255
    46b0:	b8 01       	movw	r22, r16
    46b2:	c1 01       	movw	r24, r2
    46b4:	7f d9       	rcall	.-3330   	; 0x39b4 <vector_cross_product>
    46b6:	8e 01       	movw	r16, r28
    46b8:	07 5e       	subi	r16, 0xE7	; 231
    46ba:	1f 4f       	sbci	r17, 0xFF	; 255
    46bc:	fe 01       	movw	r30, r28
    46be:	3d 96       	adiw	r30, 0x0d	; 13
    46c0:	5f 01       	movw	r10, r30
    46c2:	4e 01       	movw	r8, r28
    46c4:	f5 e2       	ldi	r31, 0x25	; 37
    46c6:	8f 0e       	add	r8, r31
    46c8:	91 1c       	adc	r9, r1
    46ca:	f8 01       	movw	r30, r16
    46cc:	61 91       	ld	r22, Z+
    46ce:	71 91       	ld	r23, Z+
    46d0:	81 91       	ld	r24, Z+
    46d2:	91 91       	ld	r25, Z+
    46d4:	8f 01       	movw	r16, r30
    46d6:	26 e6       	ldi	r18, 0x66	; 102
    46d8:	36 e6       	ldi	r19, 0x66	; 102
    46da:	46 e6       	ldi	r20, 0x66	; 102
    46dc:	5f e3       	ldi	r21, 0x3F	; 63
    46de:	0e 94 95 2c 	call	0x592a	; 0x592a <__mulsf3>
    46e2:	2b 01       	movw	r4, r22
    46e4:	3c 01       	movw	r6, r24
    46e6:	20 ed       	ldi	r18, 0xD0	; 208
    46e8:	3c ec       	ldi	r19, 0xCC	; 204
    46ea:	4c ec       	ldi	r20, 0xCC	; 204
    46ec:	5d e3       	ldi	r21, 0x3D	; 61
    46ee:	f5 01       	movw	r30, r10
    46f0:	60 81       	ld	r22, Z
    46f2:	71 81       	ldd	r23, Z+1	; 0x01
    46f4:	82 81       	ldd	r24, Z+2	; 0x02
    46f6:	93 81       	ldd	r25, Z+3	; 0x03
    46f8:	0e 94 95 2c 	call	0x592a	; 0x592a <__mulsf3>
    46fc:	9b 01       	movw	r18, r22
    46fe:	ac 01       	movw	r20, r24
    4700:	c3 01       	movw	r24, r6
    4702:	b2 01       	movw	r22, r4
    4704:	15 d6       	rcall	.+3114   	; 0x5330 <__addsf3>
    4706:	f5 01       	movw	r30, r10
    4708:	61 93       	st	Z+, r22
    470a:	71 93       	st	Z+, r23
    470c:	81 93       	st	Z+, r24
    470e:	91 93       	st	Z+, r25
    4710:	5f 01       	movw	r10, r30
    4712:	08 15       	cp	r16, r8
    4714:	19 05       	cpc	r17, r9
    4716:	c9 f6       	brne	.-78     	; 0x46ca <quest+0x2ca>
    4718:	ae 01       	movw	r20, r28
    471a:	4f 5c       	subi	r20, 0xCF	; 207
    471c:	5f 4f       	sbci	r21, 0xFF	; 255
    471e:	be 01       	movw	r22, r28
    4720:	63 5c       	subi	r22, 0xC3	; 195
    4722:	7f 4f       	sbci	r23, 0xFF	; 255
    4724:	ce 01       	movw	r24, r28
    4726:	87 5b       	subi	r24, 0xB7	; 183
    4728:	9f 4f       	sbci	r25, 0xFF	; 255
    472a:	44 d9       	rcall	.-3448   	; 0x39b4 <vector_cross_product>
    472c:	be 01       	movw	r22, r28
    472e:	63 5f       	subi	r22, 0xF3	; 243
    4730:	7f 4f       	sbci	r23, 0xFF	; 255
    4732:	ce 01       	movw	r24, r28
    4734:	c1 96       	adiw	r24, 0x31	; 49
    4736:	72 d8       	rcall	.-3868   	; 0x381c <vector_dot_product>
    4738:	a7 01       	movw	r20, r14
    473a:	96 01       	movw	r18, r12
    473c:	f9 d5       	rcall	.+3058   	; 0x5330 <__addsf3>
    473e:	6b 01       	movw	r12, r22
    4740:	7c 01       	movw	r14, r24
    4742:	a8 01       	movw	r20, r16
    4744:	be 01       	movw	r22, r28
    4746:	63 5c       	subi	r22, 0xC3	; 195
    4748:	7f 4f       	sbci	r23, 0xFF	; 255
    474a:	ce 01       	movw	r24, r28
    474c:	87 5b       	subi	r24, 0xB7	; 183
    474e:	9f 4f       	sbci	r25, 0xFF	; 255
    4750:	a9 d8       	rcall	.-3758   	; 0x38a4 <add_vectors>
    4752:	be 01       	movw	r22, r28
    4754:	63 5f       	subi	r22, 0xF3	; 243
    4756:	7f 4f       	sbci	r23, 0xFF	; 255
    4758:	c8 01       	movw	r24, r16
    475a:	60 d8       	rcall	.-3904   	; 0x381c <vector_dot_product>
    475c:	2b 01       	movw	r4, r22
    475e:	3c 01       	movw	r6, r24
    4760:	a7 01       	movw	r20, r14
    4762:	96 01       	movw	r18, r12
    4764:	c7 01       	movw	r24, r14
    4766:	b6 01       	movw	r22, r12
    4768:	0e 94 95 2c 	call	0x592a	; 0x592a <__mulsf3>
    476c:	4b 01       	movw	r8, r22
    476e:	5c 01       	movw	r10, r24
    4770:	a3 01       	movw	r20, r6
    4772:	92 01       	movw	r18, r4
    4774:	c3 01       	movw	r24, r6
    4776:	b2 01       	movw	r22, r4
    4778:	0e 94 95 2c 	call	0x592a	; 0x592a <__mulsf3>
    477c:	9b 01       	movw	r18, r22
    477e:	ac 01       	movw	r20, r24
    4780:	c5 01       	movw	r24, r10
    4782:	b4 01       	movw	r22, r8
    4784:	d5 d5       	rcall	.+2986   	; 0x5330 <__addsf3>
    4786:	0e 94 4e 2d 	call	0x5a9c	; 0x5a9c <sqrt>
    478a:	4b 01       	movw	r8, r22
    478c:	5c 01       	movw	r10, r24
    478e:	20 e0       	ldi	r18, 0x00	; 0
    4790:	30 e0       	ldi	r19, 0x00	; 0
    4792:	a9 01       	movw	r20, r18
    4794:	c7 01       	movw	r24, r14
    4796:	b6 01       	movw	r22, r12
    4798:	0e 94 8a 2c 	call	0x5914	; 0x5914 <__gesf2>
    479c:	a7 01       	movw	r20, r14
    479e:	96 01       	movw	r18, r12
    47a0:	18 16       	cp	r1, r24
    47a2:	0c f0       	brlt	.+2      	; 0x47a6 <quest+0x3a6>
    47a4:	f8 c0       	rjmp	.+496    	; 0x4996 <quest+0x596>
    47a6:	c5 01       	movw	r24, r10
    47a8:	b4 01       	movw	r22, r8
    47aa:	c2 d5       	rcall	.+2948   	; 0x5330 <__addsf3>
    47ac:	6b 01       	movw	r12, r22
    47ae:	7c 01       	movw	r14, r24
    47b0:	a5 01       	movw	r20, r10
    47b2:	94 01       	movw	r18, r8
    47b4:	0e 94 95 2c 	call	0x592a	; 0x592a <__mulsf3>
    47b8:	4b 01       	movw	r8, r22
    47ba:	5c 01       	movw	r10, r24
    47bc:	be 01       	movw	r22, r28
    47be:	63 5c       	subi	r22, 0xC3	; 195
    47c0:	7f 4f       	sbci	r23, 0xFF	; 255
    47c2:	ce 01       	movw	r24, r28
    47c4:	87 5b       	subi	r24, 0xB7	; 183
    47c6:	9f 4f       	sbci	r25, 0xFF	; 255
    47c8:	29 d8       	rcall	.-4014   	; 0x381c <vector_dot_product>
    47ca:	20 e0       	ldi	r18, 0x00	; 0
    47cc:	30 e0       	ldi	r19, 0x00	; 0
    47ce:	40 e8       	ldi	r20, 0x80	; 128
    47d0:	5f e3       	ldi	r21, 0x3F	; 63
    47d2:	ae d5       	rcall	.+2908   	; 0x5330 <__addsf3>
    47d4:	9b 01       	movw	r18, r22
    47d6:	ac 01       	movw	r20, r24
    47d8:	c5 01       	movw	r24, r10
    47da:	b4 01       	movw	r22, r8
    47dc:	0e 94 95 2c 	call	0x592a	; 0x592a <__mulsf3>
    47e0:	0e 94 4e 2d 	call	0x5a9c	; 0x5a9c <sqrt>
    47e4:	9b 01       	movw	r18, r22
    47e6:	ac 01       	movw	r20, r24
    47e8:	a3 d5       	rcall	.+2886   	; 0x5330 <__addsf3>
    47ea:	9b 01       	movw	r18, r22
    47ec:	ac 01       	movw	r20, r24
    47ee:	60 e0       	ldi	r22, 0x00	; 0
    47f0:	70 e0       	ldi	r23, 0x00	; 0
    47f2:	80 e8       	ldi	r24, 0x80	; 128
    47f4:	9f e3       	ldi	r25, 0x3F	; 63
    47f6:	80 d6       	rcall	.+3328   	; 0x54f8 <__divsf3>
    47f8:	ed 96       	adiw	r28, 0x3d	; 61
    47fa:	6c af       	std	Y+60, r22	; 0x3c
    47fc:	7d af       	std	Y+61, r23	; 0x3d
    47fe:	8e af       	std	Y+62, r24	; 0x3e
    4800:	9f af       	std	Y+63, r25	; 0x3f
    4802:	ed 97       	sbiw	r28, 0x3d	; 61
    4804:	ce 01       	movw	r24, r28
    4806:	c1 96       	adiw	r24, 0x31	; 49
    4808:	1c 01       	movw	r2, r24
    480a:	fe 01       	movw	r30, r28
    480c:	31 96       	adiw	r30, 0x01	; 1
    480e:	e3 96       	adiw	r28, 0x33	; 51
    4810:	ff af       	std	Y+63, r31	; 0x3f
    4812:	ee af       	std	Y+62, r30	; 0x3e
    4814:	e3 97       	sbiw	r28, 0x33	; 51
    4816:	e9 96       	adiw	r28, 0x39	; 57
    4818:	4c ae       	std	Y+60, r4	; 0x3c
    481a:	5d ae       	std	Y+61, r5	; 0x3d
    481c:	6e ae       	std	Y+62, r6	; 0x3e
    481e:	7f ae       	std	Y+63, r7	; 0x3f
    4820:	e9 97       	sbiw	r28, 0x39	; 57
    4822:	f1 01       	movw	r30, r2
    4824:	21 91       	ld	r18, Z+
    4826:	31 91       	ld	r19, Z+
    4828:	41 91       	ld	r20, Z+
    482a:	51 91       	ld	r21, Z+
    482c:	1f 01       	movw	r2, r30
    482e:	f8 01       	movw	r30, r16
    4830:	41 90       	ld	r4, Z+
    4832:	51 90       	ld	r5, Z+
    4834:	61 90       	ld	r6, Z+
    4836:	71 90       	ld	r7, Z+
    4838:	8f 01       	movw	r16, r30
    483a:	c7 01       	movw	r24, r14
    483c:	b6 01       	movw	r22, r12
    483e:	0e 94 95 2c 	call	0x592a	; 0x592a <__mulsf3>
    4842:	4b 01       	movw	r8, r22
    4844:	5c 01       	movw	r10, r24
    4846:	e9 96       	adiw	r28, 0x39	; 57
    4848:	2c ad       	ldd	r18, Y+60	; 0x3c
    484a:	3d ad       	ldd	r19, Y+61	; 0x3d
    484c:	4e ad       	ldd	r20, Y+62	; 0x3e
    484e:	5f ad       	ldd	r21, Y+63	; 0x3f
    4850:	e9 97       	sbiw	r28, 0x39	; 57
    4852:	c3 01       	movw	r24, r6
    4854:	b2 01       	movw	r22, r4
    4856:	0e 94 95 2c 	call	0x592a	; 0x592a <__mulsf3>
    485a:	9b 01       	movw	r18, r22
    485c:	ac 01       	movw	r20, r24
    485e:	c5 01       	movw	r24, r10
    4860:	b4 01       	movw	r22, r8
    4862:	66 d5       	rcall	.+2764   	; 0x5330 <__addsf3>
    4864:	e3 96       	adiw	r28, 0x33	; 51
    4866:	ee ad       	ldd	r30, Y+62	; 0x3e
    4868:	ff ad       	ldd	r31, Y+63	; 0x3f
    486a:	e3 97       	sbiw	r28, 0x33	; 51
    486c:	61 93       	st	Z+, r22
    486e:	71 93       	st	Z+, r23
    4870:	81 93       	st	Z+, r24
    4872:	91 93       	st	Z+, r25
    4874:	e3 96       	adiw	r28, 0x33	; 51
    4876:	ff af       	std	Y+63, r31	; 0x3f
    4878:	ee af       	std	Y+62, r30	; 0x3e
    487a:	e3 97       	sbiw	r28, 0x33	; 51
    487c:	af 96       	adiw	r28, 0x2f	; 47
    487e:	8e ad       	ldd	r24, Y+62	; 0x3e
    4880:	9f ad       	ldd	r25, Y+63	; 0x3f
    4882:	af 97       	sbiw	r28, 0x2f	; 47
    4884:	28 16       	cp	r2, r24
    4886:	39 06       	cpc	r3, r25
    4888:	61 f6       	brne	.-104    	; 0x4822 <quest+0x422>
    488a:	b1 01       	movw	r22, r2
    488c:	ce 01       	movw	r24, r28
    488e:	87 5b       	subi	r24, 0xB7	; 183
    4890:	9f 4f       	sbci	r25, 0xFF	; 255
    4892:	0e 94 0e 1c 	call	0x381c	; 0x381c <vector_dot_product>
    4896:	20 e0       	ldi	r18, 0x00	; 0
    4898:	30 e0       	ldi	r19, 0x00	; 0
    489a:	40 e8       	ldi	r20, 0x80	; 128
    489c:	5f e3       	ldi	r21, 0x3F	; 63
    489e:	48 d5       	rcall	.+2704   	; 0x5330 <__addsf3>
    48a0:	9b 01       	movw	r18, r22
    48a2:	ac 01       	movw	r20, r24
    48a4:	c7 01       	movw	r24, r14
    48a6:	b6 01       	movw	r22, r12
    48a8:	0e 94 95 2c 	call	0x592a	; 0x592a <__mulsf3>
    48ac:	09 81       	ldd	r16, Y+1	; 0x01
    48ae:	1a 81       	ldd	r17, Y+2	; 0x02
    48b0:	2b 81       	ldd	r18, Y+3	; 0x03
    48b2:	3c 81       	ldd	r19, Y+4	; 0x04
    48b4:	e1 96       	adiw	r28, 0x31	; 49
    48b6:	ee ad       	ldd	r30, Y+62	; 0x3e
    48b8:	ff ad       	ldd	r31, Y+63	; 0x3f
    48ba:	e1 97       	sbiw	r28, 0x31	; 49
    48bc:	00 83       	st	Z, r16
    48be:	11 83       	std	Z+1, r17	; 0x01
    48c0:	22 83       	std	Z+2, r18	; 0x02
    48c2:	33 83       	std	Z+3, r19	; 0x03
    48c4:	0d 81       	ldd	r16, Y+5	; 0x05
    48c6:	1e 81       	ldd	r17, Y+6	; 0x06
    48c8:	2f 81       	ldd	r18, Y+7	; 0x07
    48ca:	38 85       	ldd	r19, Y+8	; 0x08
    48cc:	04 83       	std	Z+4, r16	; 0x04
    48ce:	15 83       	std	Z+5, r17	; 0x05
    48d0:	26 83       	std	Z+6, r18	; 0x06
    48d2:	37 83       	std	Z+7, r19	; 0x07
    48d4:	09 85       	ldd	r16, Y+9	; 0x09
    48d6:	1a 85       	ldd	r17, Y+10	; 0x0a
    48d8:	2b 85       	ldd	r18, Y+11	; 0x0b
    48da:	3c 85       	ldd	r19, Y+12	; 0x0c
    48dc:	00 87       	std	Z+8, r16	; 0x08
    48de:	11 87       	std	Z+9, r17	; 0x09
    48e0:	22 87       	std	Z+10, r18	; 0x0a
    48e2:	33 87       	std	Z+11, r19	; 0x0b
    48e4:	64 87       	std	Z+12, r22	; 0x0c
    48e6:	75 87       	std	Z+13, r23	; 0x0d
    48e8:	86 87       	std	Z+14, r24	; 0x0e
    48ea:	97 87       	std	Z+15, r25	; 0x0f
    48ec:	ed 96       	adiw	r28, 0x3d	; 61
    48ee:	4c ad       	ldd	r20, Y+60	; 0x3c
    48f0:	5d ad       	ldd	r21, Y+61	; 0x3d
    48f2:	6e ad       	ldd	r22, Y+62	; 0x3e
    48f4:	7f ad       	ldd	r23, Y+63	; 0x3f
    48f6:	ed 97       	sbiw	r28, 0x3d	; 61
    48f8:	cf 01       	movw	r24, r30
    48fa:	11 d9       	rcall	.-3550   	; 0x3b1e <scalar_into_quaternion>
    48fc:	81 e0       	ldi	r24, 0x01	; 1
    48fe:	80 93 14 01 	sts	0x0114, r24
    4902:	c4 58       	subi	r28, 0x84	; 132
    4904:	df 4f       	sbci	r29, 0xFF	; 255
    4906:	0f b6       	in	r0, 0x3f	; 63
    4908:	f8 94       	cli
    490a:	de bf       	out	0x3e, r29	; 62
    490c:	0f be       	out	0x3f, r0	; 63
    490e:	cd bf       	out	0x3d, r28	; 61
    4910:	df 91       	pop	r29
    4912:	cf 91       	pop	r28
    4914:	1f 91       	pop	r17
    4916:	0f 91       	pop	r16
    4918:	ff 90       	pop	r15
    491a:	ef 90       	pop	r14
    491c:	df 90       	pop	r13
    491e:	cf 90       	pop	r12
    4920:	bf 90       	pop	r11
    4922:	af 90       	pop	r10
    4924:	9f 90       	pop	r9
    4926:	8f 90       	pop	r8
    4928:	7f 90       	pop	r7
    492a:	6f 90       	pop	r6
    492c:	5f 90       	pop	r5
    492e:	4f 90       	pop	r4
    4930:	3f 90       	pop	r3
    4932:	2f 90       	pop	r2
    4934:	08 95       	ret
    4936:	f1 01       	movw	r30, r2
    4938:	c0 82       	st	Z, r12
    493a:	d1 82       	std	Z+1, r13	; 0x01
    493c:	e2 82       	std	Z+2, r14	; 0x02
    493e:	f3 82       	std	Z+3, r15	; 0x03
    4940:	de cd       	rjmp	.-1092   	; 0x44fe <quest+0xfe>
    4942:	e1 96       	adiw	r28, 0x31	; 49
    4944:	ee ad       	ldd	r30, Y+62	; 0x3e
    4946:	ff ad       	ldd	r31, Y+63	; 0x3f
    4948:	e1 97       	sbiw	r28, 0x31	; 49
    494a:	10 82       	st	Z, r1
    494c:	11 82       	std	Z+1, r1	; 0x01
    494e:	12 82       	std	Z+2, r1	; 0x02
    4950:	13 82       	std	Z+3, r1	; 0x03
    4952:	14 82       	std	Z+4, r1	; 0x04
    4954:	15 82       	std	Z+5, r1	; 0x05
    4956:	16 82       	std	Z+6, r1	; 0x06
    4958:	17 82       	std	Z+7, r1	; 0x07
    495a:	10 86       	std	Z+8, r1	; 0x08
    495c:	11 86       	std	Z+9, r1	; 0x09
    495e:	12 86       	std	Z+10, r1	; 0x0a
    4960:	13 86       	std	Z+11, r1	; 0x0b
    4962:	80 e0       	ldi	r24, 0x00	; 0
    4964:	90 e0       	ldi	r25, 0x00	; 0
    4966:	a0 e8       	ldi	r26, 0x80	; 128
    4968:	bf e3       	ldi	r27, 0x3F	; 63
    496a:	84 87       	std	Z+12, r24	; 0x0c
    496c:	95 87       	std	Z+13, r25	; 0x0d
    496e:	a6 87       	std	Z+14, r26	; 0x0e
    4970:	b7 87       	std	Z+15, r27	; 0x0f
    4972:	80 e0       	ldi	r24, 0x00	; 0
    4974:	c4 cf       	rjmp	.-120    	; 0x48fe <quest+0x4fe>
    4976:	f1 01       	movw	r30, r2
    4978:	c0 86       	std	Z+8, r12	; 0x08
    497a:	d1 86       	std	Z+9, r13	; 0x09
    497c:	e2 86       	std	Z+10, r14	; 0x0a
    497e:	f3 86       	std	Z+11, r15	; 0x0b
    4980:	02 ce       	rjmp	.-1020   	; 0x4586 <quest+0x186>
    4982:	f1 01       	movw	r30, r2
    4984:	c4 82       	std	Z+4, r12	; 0x04
    4986:	d5 82       	std	Z+5, r13	; 0x05
    4988:	e6 82       	std	Z+6, r14	; 0x06
    498a:	f7 82       	std	Z+7, r15	; 0x07
    498c:	da cd       	rjmp	.-1100   	; 0x4542 <quest+0x142>
    498e:	81 e0       	ldi	r24, 0x01	; 1
    4990:	f6 01       	movw	r30, r12
    4992:	80 83       	st	Z, r24
    4994:	84 cd       	rjmp	.-1272   	; 0x449e <quest+0x9e>
    4996:	c5 01       	movw	r24, r10
    4998:	b4 01       	movw	r22, r8
    499a:	c9 d4       	rcall	.+2450   	; 0x532e <__subsf3>
    499c:	e9 96       	adiw	r28, 0x39	; 57
    499e:	6c af       	std	Y+60, r22	; 0x3c
    49a0:	7d af       	std	Y+61, r23	; 0x3d
    49a2:	8e af       	std	Y+62, r24	; 0x3e
    49a4:	9f af       	std	Y+63, r25	; 0x3f
    49a6:	e9 97       	sbiw	r28, 0x39	; 57
    49a8:	a5 01       	movw	r20, r10
    49aa:	94 01       	movw	r18, r8
    49ac:	be d7       	rcall	.+3964   	; 0x592a <__mulsf3>
    49ae:	6b 01       	movw	r12, r22
    49b0:	7c 01       	movw	r14, r24
    49b2:	be 01       	movw	r22, r28
    49b4:	63 5c       	subi	r22, 0xC3	; 195
    49b6:	7f 4f       	sbci	r23, 0xFF	; 255
    49b8:	ce 01       	movw	r24, r28
    49ba:	87 5b       	subi	r24, 0xB7	; 183
    49bc:	9f 4f       	sbci	r25, 0xFF	; 255
    49be:	0e 94 0e 1c 	call	0x381c	; 0x381c <vector_dot_product>
    49c2:	20 e0       	ldi	r18, 0x00	; 0
    49c4:	30 e0       	ldi	r19, 0x00	; 0
    49c6:	40 e8       	ldi	r20, 0x80	; 128
    49c8:	5f e3       	ldi	r21, 0x3F	; 63
    49ca:	b2 d4       	rcall	.+2404   	; 0x5330 <__addsf3>
    49cc:	9b 01       	movw	r18, r22
    49ce:	ac 01       	movw	r20, r24
    49d0:	c7 01       	movw	r24, r14
    49d2:	b6 01       	movw	r22, r12
    49d4:	aa d7       	rcall	.+3924   	; 0x592a <__mulsf3>
    49d6:	0e 94 4e 2d 	call	0x5a9c	; 0x5a9c <sqrt>
    49da:	9b 01       	movw	r18, r22
    49dc:	ac 01       	movw	r20, r24
    49de:	a8 d4       	rcall	.+2384   	; 0x5330 <__addsf3>
    49e0:	9b 01       	movw	r18, r22
    49e2:	ac 01       	movw	r20, r24
    49e4:	60 e0       	ldi	r22, 0x00	; 0
    49e6:	70 e0       	ldi	r23, 0x00	; 0
    49e8:	80 e8       	ldi	r24, 0x80	; 128
    49ea:	9f e3       	ldi	r25, 0x3F	; 63
    49ec:	85 d5       	rcall	.+2826   	; 0x54f8 <__divsf3>
    49ee:	ed 96       	adiw	r28, 0x3d	; 61
    49f0:	6c af       	std	Y+60, r22	; 0x3c
    49f2:	7d af       	std	Y+61, r23	; 0x3d
    49f4:	8e af       	std	Y+62, r24	; 0x3e
    49f6:	9f af       	std	Y+63, r25	; 0x3f
    49f8:	ed 97       	sbiw	r28, 0x3d	; 61
    49fa:	fe 01       	movw	r30, r28
    49fc:	f1 96       	adiw	r30, 0x31	; 49
    49fe:	1f 01       	movw	r2, r30
    4a00:	ce 01       	movw	r24, r28
    4a02:	01 96       	adiw	r24, 0x01	; 1
    4a04:	e3 96       	adiw	r28, 0x33	; 51
    4a06:	9f af       	std	Y+63, r25	; 0x3f
    4a08:	8e af       	std	Y+62, r24	; 0x3e
    4a0a:	e3 97       	sbiw	r28, 0x33	; 51
    4a0c:	f1 01       	movw	r30, r2
    4a0e:	61 91       	ld	r22, Z+
    4a10:	71 91       	ld	r23, Z+
    4a12:	81 91       	ld	r24, Z+
    4a14:	91 91       	ld	r25, Z+
    4a16:	1f 01       	movw	r2, r30
    4a18:	f8 01       	movw	r30, r16
    4a1a:	81 90       	ld	r8, Z+
    4a1c:	91 90       	ld	r9, Z+
    4a1e:	a1 90       	ld	r10, Z+
    4a20:	b1 90       	ld	r11, Z+
    4a22:	8f 01       	movw	r16, r30
    4a24:	a3 01       	movw	r20, r6
    4a26:	92 01       	movw	r18, r4
    4a28:	80 d7       	rcall	.+3840   	; 0x592a <__mulsf3>
    4a2a:	6b 01       	movw	r12, r22
    4a2c:	7c 01       	movw	r14, r24
    4a2e:	a5 01       	movw	r20, r10
    4a30:	94 01       	movw	r18, r8
    4a32:	e9 96       	adiw	r28, 0x39	; 57
    4a34:	6c ad       	ldd	r22, Y+60	; 0x3c
    4a36:	7d ad       	ldd	r23, Y+61	; 0x3d
    4a38:	8e ad       	ldd	r24, Y+62	; 0x3e
    4a3a:	9f ad       	ldd	r25, Y+63	; 0x3f
    4a3c:	e9 97       	sbiw	r28, 0x39	; 57
    4a3e:	75 d7       	rcall	.+3818   	; 0x592a <__mulsf3>
    4a40:	9b 01       	movw	r18, r22
    4a42:	ac 01       	movw	r20, r24
    4a44:	c7 01       	movw	r24, r14
    4a46:	b6 01       	movw	r22, r12
    4a48:	73 d4       	rcall	.+2278   	; 0x5330 <__addsf3>
    4a4a:	e3 96       	adiw	r28, 0x33	; 51
    4a4c:	ee ad       	ldd	r30, Y+62	; 0x3e
    4a4e:	ff ad       	ldd	r31, Y+63	; 0x3f
    4a50:	e3 97       	sbiw	r28, 0x33	; 51
    4a52:	61 93       	st	Z+, r22
    4a54:	71 93       	st	Z+, r23
    4a56:	81 93       	st	Z+, r24
    4a58:	91 93       	st	Z+, r25
    4a5a:	e3 96       	adiw	r28, 0x33	; 51
    4a5c:	ff af       	std	Y+63, r31	; 0x3f
    4a5e:	ee af       	std	Y+62, r30	; 0x3e
    4a60:	e3 97       	sbiw	r28, 0x33	; 51
    4a62:	af 96       	adiw	r28, 0x2f	; 47
    4a64:	8e ad       	ldd	r24, Y+62	; 0x3e
    4a66:	9f ad       	ldd	r25, Y+63	; 0x3f
    4a68:	af 97       	sbiw	r28, 0x2f	; 47
    4a6a:	28 16       	cp	r2, r24
    4a6c:	39 06       	cpc	r3, r25
    4a6e:	71 f6       	brne	.-100    	; 0x4a0c <quest+0x60c>
    4a70:	b1 01       	movw	r22, r2
    4a72:	ce 01       	movw	r24, r28
    4a74:	87 5b       	subi	r24, 0xB7	; 183
    4a76:	9f 4f       	sbci	r25, 0xFF	; 255
    4a78:	0e 94 0e 1c 	call	0x381c	; 0x381c <vector_dot_product>
    4a7c:	20 e0       	ldi	r18, 0x00	; 0
    4a7e:	30 e0       	ldi	r19, 0x00	; 0
    4a80:	40 e8       	ldi	r20, 0x80	; 128
    4a82:	5f e3       	ldi	r21, 0x3F	; 63
    4a84:	55 d4       	rcall	.+2218   	; 0x5330 <__addsf3>
    4a86:	a3 01       	movw	r20, r6
    4a88:	92 01       	movw	r18, r4
    4a8a:	4f d7       	rcall	.+3742   	; 0x592a <__mulsf3>
    4a8c:	0f cf       	rjmp	.-482    	; 0x48ac <quest+0x4ac>

00004a8e <omega_estimation>:
    4a8e:	2f 92       	push	r2
    4a90:	3f 92       	push	r3
    4a92:	4f 92       	push	r4
    4a94:	5f 92       	push	r5
    4a96:	6f 92       	push	r6
    4a98:	7f 92       	push	r7
    4a9a:	8f 92       	push	r8
    4a9c:	9f 92       	push	r9
    4a9e:	af 92       	push	r10
    4aa0:	bf 92       	push	r11
    4aa2:	cf 92       	push	r12
    4aa4:	df 92       	push	r13
    4aa6:	ef 92       	push	r14
    4aa8:	ff 92       	push	r15
    4aaa:	0f 93       	push	r16
    4aac:	1f 93       	push	r17
    4aae:	cf 93       	push	r28
    4ab0:	df 93       	push	r29
    4ab2:	cd b7       	in	r28, 0x3d	; 61
    4ab4:	de b7       	in	r29, 0x3e	; 62
    4ab6:	c0 5d       	subi	r28, 0xD0	; 208
    4ab8:	d1 09       	sbc	r29, r1
    4aba:	0f b6       	in	r0, 0x3f	; 63
    4abc:	f8 94       	cli
    4abe:	de bf       	out	0x3e, r29	; 62
    4ac0:	0f be       	out	0x3f, r0	; 63
    4ac2:	cd bf       	out	0x3d, r28	; 61
    4ac4:	c3 53       	subi	r28, 0x33	; 51
    4ac6:	df 4f       	sbci	r29, 0xFF	; 255
    4ac8:	88 83       	st	Y, r24
    4aca:	cd 5c       	subi	r28, 0xCD	; 205
    4acc:	d0 40       	sbci	r29, 0x00	; 0
    4ace:	c2 53       	subi	r28, 0x32	; 50
    4ad0:	df 4f       	sbci	r29, 0xFF	; 255
    4ad2:	98 83       	st	Y, r25
    4ad4:	ce 5c       	subi	r28, 0xCE	; 206
    4ad6:	d0 40       	sbci	r29, 0x00	; 0
    4ad8:	c1 53       	subi	r28, 0x31	; 49
    4ada:	df 4f       	sbci	r29, 0xFF	; 255
    4adc:	68 83       	st	Y, r22
    4ade:	cf 5c       	subi	r28, 0xCF	; 207
    4ae0:	d0 40       	sbci	r29, 0x00	; 0
    4ae2:	c0 53       	subi	r28, 0x30	; 48
    4ae4:	df 4f       	sbci	r29, 0xFF	; 255
    4ae6:	78 83       	st	Y, r23
    4ae8:	c0 5d       	subi	r28, 0xD0	; 208
    4aea:	d0 40       	sbci	r29, 0x00	; 0
    4aec:	7c 01       	movw	r14, r24
    4aee:	02 eb       	ldi	r16, 0xB2	; 178
    4af0:	14 e0       	ldi	r17, 0x04	; 4
    4af2:	9e 01       	movw	r18, r28
    4af4:	23 59       	subi	r18, 0x93	; 147
    4af6:	3f 4f       	sbci	r19, 0xFF	; 255
    4af8:	69 01       	movw	r12, r18
    4afa:	ae 01       	movw	r20, r28
    4afc:	43 58       	subi	r20, 0x83	; 131
    4afe:	5f 4f       	sbci	r21, 0xFF	; 255
    4b00:	1a 01       	movw	r2, r20
    4b02:	d7 01       	movw	r26, r14
    4b04:	8d 90       	ld	r8, X+
    4b06:	9d 90       	ld	r9, X+
    4b08:	ad 90       	ld	r10, X+
    4b0a:	bd 90       	ld	r11, X+
    4b0c:	7d 01       	movw	r14, r26
    4b0e:	f8 01       	movw	r30, r16
    4b10:	41 90       	ld	r4, Z+
    4b12:	51 90       	ld	r5, Z+
    4b14:	61 90       	ld	r6, Z+
    4b16:	71 90       	ld	r7, Z+
    4b18:	8f 01       	movw	r16, r30
    4b1a:	a3 01       	movw	r20, r6
    4b1c:	92 01       	movw	r18, r4
    4b1e:	c5 01       	movw	r24, r10
    4b20:	b4 01       	movw	r22, r8
    4b22:	05 d4       	rcall	.+2058   	; 0x532e <__subsf3>
    4b24:	20 e0       	ldi	r18, 0x00	; 0
    4b26:	30 e0       	ldi	r19, 0x00	; 0
    4b28:	40 e0       	ldi	r20, 0x00	; 0
    4b2a:	5f e3       	ldi	r21, 0x3F	; 63
    4b2c:	fe d6       	rcall	.+3580   	; 0x592a <__mulsf3>
    4b2e:	d1 01       	movw	r26, r2
    4b30:	6d 93       	st	X+, r22
    4b32:	7d 93       	st	X+, r23
    4b34:	8d 93       	st	X+, r24
    4b36:	9d 93       	st	X+, r25
    4b38:	1d 01       	movw	r2, r26
    4b3a:	a3 01       	movw	r20, r6
    4b3c:	92 01       	movw	r18, r4
    4b3e:	c5 01       	movw	r24, r10
    4b40:	b4 01       	movw	r22, r8
    4b42:	f6 d3       	rcall	.+2028   	; 0x5330 <__addsf3>
    4b44:	20 e0       	ldi	r18, 0x00	; 0
    4b46:	30 e0       	ldi	r19, 0x00	; 0
    4b48:	40 e0       	ldi	r20, 0x00	; 0
    4b4a:	5f e3       	ldi	r21, 0x3F	; 63
    4b4c:	ee d6       	rcall	.+3548   	; 0x592a <__mulsf3>
    4b4e:	f6 01       	movw	r30, r12
    4b50:	61 93       	st	Z+, r22
    4b52:	71 93       	st	Z+, r23
    4b54:	81 93       	st	Z+, r24
    4b56:	91 93       	st	Z+, r25
    4b58:	6f 01       	movw	r12, r30
    4b5a:	f4 e0       	ldi	r31, 0x04	; 4
    4b5c:	02 3c       	cpi	r16, 0xC2	; 194
    4b5e:	1f 07       	cpc	r17, r31
    4b60:	81 f6       	brne	.-96     	; 0x4b02 <omega_estimation+0x74>
    4b62:	9e 01       	movw	r18, r28
    4b64:	27 56       	subi	r18, 0x67	; 103
    4b66:	3f 4f       	sbci	r19, 0xFF	; 255
    4b68:	ce 01       	movw	r24, r28
    4b6a:	8b 55       	subi	r24, 0x5B	; 91
    4b6c:	9f 4f       	sbci	r25, 0xFF	; 255
    4b6e:	4d e7       	ldi	r20, 0x7D	; 125
    4b70:	50 e0       	ldi	r21, 0x00	; 0
    4b72:	4c 0f       	add	r20, r28
    4b74:	5d 1f       	adc	r21, r29
    4b76:	44 5f       	subi	r20, 0xF4	; 244
    4b78:	5f 4f       	sbci	r21, 0xFF	; 255
    4b7a:	de 01       	movw	r26, r28
    4b7c:	a3 59       	subi	r26, 0x93	; 147
    4b7e:	bf 4f       	sbci	r27, 0xFF	; 255
    4b80:	fe 01       	movw	r30, r28
    4b82:	e3 58       	subi	r30, 0x83	; 131
    4b84:	ff 4f       	sbci	r31, 0xFF	; 255
    4b86:	7c 01       	movw	r14, r24
    4b88:	b9 01       	movw	r22, r18
    4b8a:	cd 01       	movw	r24, r26
    4b8c:	01 91       	ld	r16, Z+
    4b8e:	11 91       	ld	r17, Z+
    4b90:	21 91       	ld	r18, Z+
    4b92:	31 91       	ld	r19, Z+
    4b94:	db 01       	movw	r26, r22
    4b96:	0d 93       	st	X+, r16
    4b98:	1d 93       	st	X+, r17
    4b9a:	2d 93       	st	X+, r18
    4b9c:	3d 93       	st	X+, r19
    4b9e:	bd 01       	movw	r22, r26
    4ba0:	dc 01       	movw	r26, r24
    4ba2:	0d 91       	ld	r16, X+
    4ba4:	1d 91       	ld	r17, X+
    4ba6:	2d 91       	ld	r18, X+
    4ba8:	3d 91       	ld	r19, X+
    4baa:	cd 01       	movw	r24, r26
    4bac:	d7 01       	movw	r26, r14
    4bae:	0d 93       	st	X+, r16
    4bb0:	1d 93       	st	X+, r17
    4bb2:	2d 93       	st	X+, r18
    4bb4:	3d 93       	st	X+, r19
    4bb6:	7d 01       	movw	r14, r26
    4bb8:	e4 17       	cp	r30, r20
    4bba:	f5 07       	cpc	r31, r21
    4bbc:	39 f7       	brne	.-50     	; 0x4b8c <omega_estimation+0xfe>
    4bbe:	ed 96       	adiw	r28, 0x3d	; 61
    4bc0:	2c ad       	ldd	r18, Y+60	; 0x3c
    4bc2:	3d ad       	ldd	r19, Y+61	; 0x3d
    4bc4:	4e ad       	ldd	r20, Y+62	; 0x3e
    4bc6:	5f ad       	ldd	r21, Y+63	; 0x3f
    4bc8:	ed 97       	sbiw	r28, 0x3d	; 61
    4bca:	c9 54       	subi	r28, 0x49	; 73
    4bcc:	df 4f       	sbci	r29, 0xFF	; 255
    4bce:	28 83       	st	Y, r18
    4bd0:	39 83       	std	Y+1, r19	; 0x01
    4bd2:	4a 83       	std	Y+2, r20	; 0x02
    4bd4:	5b 83       	std	Y+3, r21	; 0x03
    4bd6:	c7 5b       	subi	r28, 0xB7	; 183
    4bd8:	d0 40       	sbci	r29, 0x00	; 0
    4bda:	1d a2       	std	Y+37, r1	; 0x25
    4bdc:	1e a2       	std	Y+38, r1	; 0x26
    4bde:	1f a2       	std	Y+39, r1	; 0x27
    4be0:	18 a6       	std	Y+40, r1	; 0x28
    4be2:	c3 55       	subi	r28, 0x53	; 83
    4be4:	df 4f       	sbci	r29, 0xFF	; 255
    4be6:	88 80       	ld	r8, Y
    4be8:	99 80       	ldd	r9, Y+1	; 0x01
    4bea:	aa 80       	ldd	r10, Y+2	; 0x02
    4bec:	bb 80       	ldd	r11, Y+3	; 0x03
    4bee:	cd 5a       	subi	r28, 0xAD	; 173
    4bf0:	d0 40       	sbci	r29, 0x00	; 0
    4bf2:	20 e0       	ldi	r18, 0x00	; 0
    4bf4:	30 e0       	ldi	r19, 0x00	; 0
    4bf6:	40 e0       	ldi	r20, 0x00	; 0
    4bf8:	50 ec       	ldi	r21, 0xC0	; 192
    4bfa:	c5 01       	movw	r24, r10
    4bfc:	b4 01       	movw	r22, r8
    4bfe:	95 d6       	rcall	.+3370   	; 0x592a <__mulsf3>
    4c00:	69 a7       	std	Y+41, r22	; 0x29
    4c02:	7a a7       	std	Y+42, r23	; 0x2a
    4c04:	8b a7       	std	Y+43, r24	; 0x2b
    4c06:	9c a7       	std	Y+44, r25	; 0x2c
    4c08:	c7 55       	subi	r28, 0x57	; 87
    4c0a:	df 4f       	sbci	r29, 0xFF	; 255
    4c0c:	c8 80       	ld	r12, Y
    4c0e:	d9 80       	ldd	r13, Y+1	; 0x01
    4c10:	ea 80       	ldd	r14, Y+2	; 0x02
    4c12:	fb 80       	ldd	r15, Y+3	; 0x03
    4c14:	c9 5a       	subi	r28, 0xA9	; 169
    4c16:	d0 40       	sbci	r29, 0x00	; 0
    4c18:	a7 01       	movw	r20, r14
    4c1a:	96 01       	movw	r18, r12
    4c1c:	c7 01       	movw	r24, r14
    4c1e:	b6 01       	movw	r22, r12
    4c20:	87 d3       	rcall	.+1806   	; 0x5330 <__addsf3>
    4c22:	6d a7       	std	Y+45, r22	; 0x2d
    4c24:	7e a7       	std	Y+46, r23	; 0x2e
    4c26:	8f a7       	std	Y+47, r24	; 0x2f
    4c28:	98 ab       	std	Y+48, r25	; 0x30
    4c2a:	a5 01       	movw	r20, r10
    4c2c:	94 01       	movw	r18, r8
    4c2e:	c5 01       	movw	r24, r10
    4c30:	b4 01       	movw	r22, r8
    4c32:	7e d3       	rcall	.+1788   	; 0x5330 <__addsf3>
    4c34:	69 ab       	std	Y+49, r22	; 0x31
    4c36:	7a ab       	std	Y+50, r23	; 0x32
    4c38:	8b ab       	std	Y+51, r24	; 0x33
    4c3a:	9c ab       	std	Y+52, r25	; 0x34
    4c3c:	1d aa       	std	Y+53, r1	; 0x35
    4c3e:	1e aa       	std	Y+54, r1	; 0x36
    4c40:	1f aa       	std	Y+55, r1	; 0x37
    4c42:	18 ae       	std	Y+56, r1	; 0x38
    4c44:	ae 01       	movw	r20, r28
    4c46:	4b 55       	subi	r20, 0x5B	; 91
    4c48:	5f 4f       	sbci	r21, 0xFF	; 255
    4c4a:	fa 01       	movw	r30, r20
    4c4c:	81 91       	ld	r24, Z+
    4c4e:	91 91       	ld	r25, Z+
    4c50:	a1 91       	ld	r26, Z+
    4c52:	b1 91       	ld	r27, Z+
    4c54:	cb 53       	subi	r28, 0x3B	; 59
    4c56:	df 4f       	sbci	r29, 0xFF	; 255
    4c58:	f9 83       	std	Y+1, r31	; 0x01
    4c5a:	e8 83       	st	Y, r30
    4c5c:	c5 5c       	subi	r28, 0xC5	; 197
    4c5e:	d0 40       	sbci	r29, 0x00	; 0
    4c60:	cf 53       	subi	r28, 0x3F	; 63
    4c62:	df 4f       	sbci	r29, 0xFF	; 255
    4c64:	88 83       	st	Y, r24
    4c66:	99 83       	std	Y+1, r25	; 0x01
    4c68:	aa 83       	std	Y+2, r26	; 0x02
    4c6a:	bb 83       	std	Y+3, r27	; 0x03
    4c6c:	c1 5c       	subi	r28, 0xC1	; 193
    4c6e:	d0 40       	sbci	r29, 0x00	; 0
    4c70:	20 e0       	ldi	r18, 0x00	; 0
    4c72:	30 e0       	ldi	r19, 0x00	; 0
    4c74:	40 e0       	ldi	r20, 0x00	; 0
    4c76:	50 ec       	ldi	r21, 0xC0	; 192
    4c78:	bc 01       	movw	r22, r24
    4c7a:	cd 01       	movw	r24, r26
    4c7c:	56 d6       	rcall	.+3244   	; 0x592a <__mulsf3>
    4c7e:	69 af       	std	Y+57, r22	; 0x39
    4c80:	7a af       	std	Y+58, r23	; 0x3a
    4c82:	8b af       	std	Y+59, r24	; 0x3b
    4c84:	9c af       	std	Y+60, r25	; 0x3c
    4c86:	20 e0       	ldi	r18, 0x00	; 0
    4c88:	30 e0       	ldi	r19, 0x00	; 0
    4c8a:	40 e0       	ldi	r20, 0x00	; 0
    4c8c:	50 ec       	ldi	r21, 0xC0	; 192
    4c8e:	c7 01       	movw	r24, r14
    4c90:	b6 01       	movw	r22, r12
    4c92:	4b d6       	rcall	.+3222   	; 0x592a <__mulsf3>
    4c94:	21 96       	adiw	r28, 0x01	; 1
    4c96:	6c af       	std	Y+60, r22	; 0x3c
    4c98:	7d af       	std	Y+61, r23	; 0x3d
    4c9a:	8e af       	std	Y+62, r24	; 0x3e
    4c9c:	9f af       	std	Y+63, r25	; 0x3f
    4c9e:	21 97       	sbiw	r28, 0x01	; 1
    4ca0:	cf 53       	subi	r28, 0x3F	; 63
    4ca2:	df 4f       	sbci	r29, 0xFF	; 255
    4ca4:	28 81       	ld	r18, Y
    4ca6:	39 81       	ldd	r19, Y+1	; 0x01
    4ca8:	4a 81       	ldd	r20, Y+2	; 0x02
    4caa:	5b 81       	ldd	r21, Y+3	; 0x03
    4cac:	c1 5c       	subi	r28, 0xC1	; 193
    4cae:	d0 40       	sbci	r29, 0x00	; 0
    4cb0:	ca 01       	movw	r24, r20
    4cb2:	b9 01       	movw	r22, r18
    4cb4:	3d d3       	rcall	.+1658   	; 0x5330 <__addsf3>
    4cb6:	25 96       	adiw	r28, 0x05	; 5
    4cb8:	6c af       	std	Y+60, r22	; 0x3c
    4cba:	7d af       	std	Y+61, r23	; 0x3d
    4cbc:	8e af       	std	Y+62, r24	; 0x3e
    4cbe:	9f af       	std	Y+63, r25	; 0x3f
    4cc0:	25 97       	sbiw	r28, 0x05	; 5
    4cc2:	29 96       	adiw	r28, 0x09	; 9
    4cc4:	1c ae       	std	Y+60, r1	; 0x3c
    4cc6:	1d ae       	std	Y+61, r1	; 0x3d
    4cc8:	1e ae       	std	Y+62, r1	; 0x3e
    4cca:	1f ae       	std	Y+63, r1	; 0x3f
    4ccc:	29 97       	sbiw	r28, 0x09	; 9
    4cce:	c9 54       	subi	r28, 0x49	; 73
    4cd0:	df 4f       	sbci	r29, 0xFF	; 255
    4cd2:	28 81       	ld	r18, Y
    4cd4:	39 81       	ldd	r19, Y+1	; 0x01
    4cd6:	4a 81       	ldd	r20, Y+2	; 0x02
    4cd8:	5b 81       	ldd	r21, Y+3	; 0x03
    4cda:	c7 5b       	subi	r28, 0xB7	; 183
    4cdc:	d0 40       	sbci	r29, 0x00	; 0
    4cde:	ca 01       	movw	r24, r20
    4ce0:	b9 01       	movw	r22, r18
    4ce2:	26 d3       	rcall	.+1612   	; 0x5330 <__addsf3>
    4ce4:	2b 01       	movw	r4, r22
    4ce6:	3c 01       	movw	r6, r24
    4ce8:	69 83       	std	Y+1, r22	; 0x01
    4cea:	7a 83       	std	Y+2, r23	; 0x02
    4cec:	8b 83       	std	Y+3, r24	; 0x03
    4cee:	9c 83       	std	Y+4, r25	; 0x04
    4cf0:	1d 82       	std	Y+5, r1	; 0x05
    4cf2:	1e 82       	std	Y+6, r1	; 0x06
    4cf4:	1f 82       	std	Y+7, r1	; 0x07
    4cf6:	18 86       	std	Y+8, r1	; 0x08
    4cf8:	19 86       	std	Y+9, r1	; 0x09
    4cfa:	1a 86       	std	Y+10, r1	; 0x0a
    4cfc:	1b 86       	std	Y+11, r1	; 0x0b
    4cfe:	1c 86       	std	Y+12, r1	; 0x0c
    4d00:	1d 86       	std	Y+13, r1	; 0x0d
    4d02:	1e 86       	std	Y+14, r1	; 0x0e
    4d04:	1f 86       	std	Y+15, r1	; 0x0f
    4d06:	18 8a       	std	Y+16, r1	; 0x10
    4d08:	69 8b       	std	Y+17, r22	; 0x11
    4d0a:	7a 8b       	std	Y+18, r23	; 0x12
    4d0c:	8b 8b       	std	Y+19, r24	; 0x13
    4d0e:	9c 8b       	std	Y+20, r25	; 0x14
    4d10:	1d 8a       	std	Y+21, r1	; 0x15
    4d12:	1e 8a       	std	Y+22, r1	; 0x16
    4d14:	1f 8a       	std	Y+23, r1	; 0x17
    4d16:	18 8e       	std	Y+24, r1	; 0x18
    4d18:	19 8e       	std	Y+25, r1	; 0x19
    4d1a:	1a 8e       	std	Y+26, r1	; 0x1a
    4d1c:	1b 8e       	std	Y+27, r1	; 0x1b
    4d1e:	1c 8e       	std	Y+28, r1	; 0x1c
    4d20:	1d 8e       	std	Y+29, r1	; 0x1d
    4d22:	1e 8e       	std	Y+30, r1	; 0x1e
    4d24:	1f 8e       	std	Y+31, r1	; 0x1f
    4d26:	18 a2       	std	Y+32, r1	; 0x20
    4d28:	69 a3       	std	Y+33, r22	; 0x21
    4d2a:	7a a3       	std	Y+34, r23	; 0x22
    4d2c:	8b a3       	std	Y+35, r24	; 0x23
    4d2e:	9c a3       	std	Y+36, r25	; 0x24
    4d30:	9e 01       	movw	r18, r28
    4d32:	2f 5f       	subi	r18, 0xFF	; 255
    4d34:	3f 4f       	sbci	r19, 0xFF	; 255
    4d36:	c5 54       	subi	r28, 0x45	; 69
    4d38:	df 4f       	sbci	r29, 0xFF	; 255
    4d3a:	39 83       	std	Y+1, r19	; 0x01
    4d3c:	28 83       	st	Y, r18
    4d3e:	cb 5b       	subi	r28, 0xBB	; 187
    4d40:	d0 40       	sbci	r29, 0x00	; 0
    4d42:	ae 01       	movw	r20, r28
    4d44:	4b 5d       	subi	r20, 0xDB	; 219
    4d46:	5f 4f       	sbci	r21, 0xFF	; 255
    4d48:	c3 54       	subi	r28, 0x43	; 67
    4d4a:	df 4f       	sbci	r29, 0xFF	; 255
    4d4c:	59 83       	std	Y+1, r21	; 0x01
    4d4e:	48 83       	st	Y, r20
    4d50:	cd 5b       	subi	r28, 0xBD	; 189
    4d52:	d0 40       	sbci	r29, 0x00	; 0
    4d54:	ce 01       	movw	r24, r28
    4d56:	87 5b       	subi	r24, 0xB7	; 183
    4d58:	9f 4f       	sbci	r25, 0xFF	; 255
    4d5a:	c1 54       	subi	r28, 0x41	; 65
    4d5c:	df 4f       	sbci	r29, 0xFF	; 255
    4d5e:	99 83       	std	Y+1, r25	; 0x01
    4d60:	88 83       	st	Y, r24
    4d62:	cf 5b       	subi	r28, 0xBF	; 191
    4d64:	d0 40       	sbci	r29, 0x00	; 0
    4d66:	cb 53       	subi	r28, 0x3B	; 59
    4d68:	df 4f       	sbci	r29, 0xFF	; 255
    4d6a:	a8 81       	ld	r26, Y
    4d6c:	b9 81       	ldd	r27, Y+1	; 0x01
    4d6e:	c5 5c       	subi	r28, 0xC5	; 197
    4d70:	d0 40       	sbci	r29, 0x00	; 0
    4d72:	c5 53       	subi	r28, 0x35	; 53
    4d74:	df 4f       	sbci	r29, 0xFF	; 255
    4d76:	b9 83       	std	Y+1, r27	; 0x01
    4d78:	a8 83       	st	Y, r26
    4d7a:	cb 5c       	subi	r28, 0xCB	; 203
    4d7c:	d0 40       	sbci	r29, 0x00	; 0
    4d7e:	cf 53       	subi	r28, 0x3F	; 63
    4d80:	df 4f       	sbci	r29, 0xFF	; 255
    4d82:	68 81       	ld	r22, Y
    4d84:	79 81       	ldd	r23, Y+1	; 0x01
    4d86:	8a 81       	ldd	r24, Y+2	; 0x02
    4d88:	9b 81       	ldd	r25, Y+3	; 0x03
    4d8a:	c1 5c       	subi	r28, 0xC1	; 193
    4d8c:	d0 40       	sbci	r29, 0x00	; 0
    4d8e:	23 e0       	ldi	r18, 0x03	; 3
    4d90:	22 2e       	mov	r2, r18
    4d92:	81 2c       	mov	r8, r1
    4d94:	91 2c       	mov	r9, r1
    4d96:	54 01       	movw	r10, r8
    4d98:	02 2d       	mov	r16, r2
    4d9a:	c9 53       	subi	r28, 0x39	; 57
    4d9c:	df 4f       	sbci	r29, 0xFF	; 255
    4d9e:	48 82       	st	Y, r4
    4da0:	59 82       	std	Y+1, r5	; 0x01
    4da2:	6a 82       	std	Y+2, r6	; 0x02
    4da4:	7b 82       	std	Y+3, r7	; 0x03
    4da6:	c7 5c       	subi	r28, 0xC7	; 199
    4da8:	d0 40       	sbci	r29, 0x00	; 0
    4daa:	9b 01       	movw	r18, r22
    4dac:	ac 01       	movw	r20, r24
    4dae:	c0 d2       	rcall	.+1408   	; 0x5330 <__addsf3>
    4db0:	2b 01       	movw	r4, r22
    4db2:	3c 01       	movw	r6, r24
    4db4:	cb 53       	subi	r28, 0x3B	; 59
    4db6:	df 4f       	sbci	r29, 0xFF	; 255
    4db8:	28 81       	ld	r18, Y
    4dba:	39 81       	ldd	r19, Y+1	; 0x01
    4dbc:	c5 5c       	subi	r28, 0xC5	; 197
    4dbe:	d0 40       	sbci	r29, 0x00	; 0
    4dc0:	cd 54       	subi	r28, 0x4D	; 77
    4dc2:	df 4f       	sbci	r29, 0xFF	; 255
    4dc4:	39 83       	std	Y+1, r19	; 0x01
    4dc6:	28 83       	st	Y, r18
    4dc8:	c3 5b       	subi	r28, 0xB3	; 179
    4dca:	d0 40       	sbci	r29, 0x00	; 0
    4dcc:	c3 54       	subi	r28, 0x43	; 67
    4dce:	df 4f       	sbci	r29, 0xFF	; 255
    4dd0:	48 81       	ld	r20, Y
    4dd2:	59 81       	ldd	r21, Y+1	; 0x01
    4dd4:	cd 5b       	subi	r28, 0xBD	; 189
    4dd6:	d0 40       	sbci	r29, 0x00	; 0
    4dd8:	4c 5f       	subi	r20, 0xFC	; 252
    4dda:	5f 4f       	sbci	r21, 0xFF	; 255
    4ddc:	cb 54       	subi	r28, 0x4B	; 75
    4dde:	df 4f       	sbci	r29, 0xFF	; 255
    4de0:	59 83       	std	Y+1, r21	; 0x01
    4de2:	48 83       	st	Y, r20
    4de4:	c5 5b       	subi	r28, 0xB5	; 181
    4de6:	d0 40       	sbci	r29, 0x00	; 0
    4de8:	c5 54       	subi	r28, 0x45	; 69
    4dea:	df 4f       	sbci	r29, 0xFF	; 255
    4dec:	88 81       	ld	r24, Y
    4dee:	99 81       	ldd	r25, Y+1	; 0x01
    4df0:	cb 5b       	subi	r28, 0xBB	; 187
    4df2:	d0 40       	sbci	r29, 0x00	; 0
    4df4:	04 96       	adiw	r24, 0x04	; 4
    4df6:	cf 54       	subi	r28, 0x4F	; 79
    4df8:	df 4f       	sbci	r29, 0xFF	; 255
    4dfa:	99 83       	std	Y+1, r25	; 0x01
    4dfc:	88 83       	st	Y, r24
    4dfe:	c1 5b       	subi	r28, 0xB1	; 177
    4e00:	d0 40       	sbci	r29, 0x00	; 0
    4e02:	c1 54       	subi	r28, 0x41	; 65
    4e04:	df 4f       	sbci	r29, 0xFF	; 255
    4e06:	28 80       	ld	r2, Y
    4e08:	39 80       	ldd	r3, Y+1	; 0x01
    4e0a:	cf 5b       	subi	r28, 0xBF	; 191
    4e0c:	d0 40       	sbci	r29, 0x00	; 0
    4e0e:	cf 53       	subi	r28, 0x3F	; 63
    4e10:	df 4f       	sbci	r29, 0xFF	; 255
    4e12:	c8 80       	ld	r12, Y
    4e14:	d9 80       	ldd	r13, Y+1	; 0x01
    4e16:	ea 80       	ldd	r14, Y+2	; 0x02
    4e18:	fb 80       	ldd	r15, Y+3	; 0x03
    4e1a:	c1 5c       	subi	r28, 0xC1	; 193
    4e1c:	d0 40       	sbci	r29, 0x00	; 0
    4e1e:	13 e0       	ldi	r17, 0x03	; 3
    4e20:	c9 53       	subi	r28, 0x39	; 57
    4e22:	df 4f       	sbci	r29, 0xFF	; 255
    4e24:	68 81       	ld	r22, Y
    4e26:	79 81       	ldd	r23, Y+1	; 0x01
    4e28:	8a 81       	ldd	r24, Y+2	; 0x02
    4e2a:	9b 81       	ldd	r25, Y+3	; 0x03
    4e2c:	c7 5c       	subi	r28, 0xC7	; 199
    4e2e:	d0 40       	sbci	r29, 0x00	; 0
    4e30:	a5 01       	movw	r20, r10
    4e32:	94 01       	movw	r18, r8
    4e34:	7c d2       	rcall	.+1272   	; 0x532e <__subsf3>
    4e36:	4b 01       	movw	r8, r22
    4e38:	5c 01       	movw	r10, r24
    4e3a:	a7 01       	movw	r20, r14
    4e3c:	96 01       	movw	r18, r12
    4e3e:	c3 01       	movw	r24, r6
    4e40:	b2 01       	movw	r22, r4
    4e42:	73 d5       	rcall	.+2790   	; 0x592a <__mulsf3>
    4e44:	c9 54       	subi	r28, 0x49	; 73
    4e46:	df 4f       	sbci	r29, 0xFF	; 255
    4e48:	28 81       	ld	r18, Y
    4e4a:	39 81       	ldd	r19, Y+1	; 0x01
    4e4c:	4a 81       	ldd	r20, Y+2	; 0x02
    4e4e:	5b 81       	ldd	r21, Y+3	; 0x03
    4e50:	c7 5b       	subi	r28, 0xB7	; 183
    4e52:	d0 40       	sbci	r29, 0x00	; 0
    4e54:	51 d3       	rcall	.+1698   	; 0x54f8 <__divsf3>
    4e56:	9b 01       	movw	r18, r22
    4e58:	ac 01       	movw	r20, r24
    4e5a:	c5 01       	movw	r24, r10
    4e5c:	b4 01       	movw	r22, r8
    4e5e:	68 d2       	rcall	.+1232   	; 0x5330 <__addsf3>
    4e60:	d1 01       	movw	r26, r2
    4e62:	6d 93       	st	X+, r22
    4e64:	7d 93       	st	X+, r23
    4e66:	8d 93       	st	X+, r24
    4e68:	9c 93       	st	X, r25
    4e6a:	13 97       	sbiw	r26, 0x03	; 3
    4e6c:	11 50       	subi	r17, 0x01	; 1
    4e6e:	bc e0       	ldi	r27, 0x0C	; 12
    4e70:	2b 0e       	add	r2, r27
    4e72:	31 1c       	adc	r3, r1
    4e74:	11 23       	and	r17, r17
    4e76:	89 f1       	breq	.+98     	; 0x4eda <omega_estimation+0x44c>
    4e78:	cf 54       	subi	r28, 0x4F	; 79
    4e7a:	df 4f       	sbci	r29, 0xFF	; 255
    4e7c:	e8 81       	ld	r30, Y
    4e7e:	f9 81       	ldd	r31, Y+1	; 0x01
    4e80:	c1 5b       	subi	r28, 0xB1	; 177
    4e82:	d0 40       	sbci	r29, 0x00	; 0
    4e84:	61 91       	ld	r22, Z+
    4e86:	71 91       	ld	r23, Z+
    4e88:	81 91       	ld	r24, Z+
    4e8a:	91 91       	ld	r25, Z+
    4e8c:	cf 54       	subi	r28, 0x4F	; 79
    4e8e:	df 4f       	sbci	r29, 0xFF	; 255
    4e90:	f9 83       	std	Y+1, r31	; 0x01
    4e92:	e8 83       	st	Y, r30
    4e94:	c1 5b       	subi	r28, 0xB1	; 177
    4e96:	d0 40       	sbci	r29, 0x00	; 0
    4e98:	cb 54       	subi	r28, 0x4B	; 75
    4e9a:	df 4f       	sbci	r29, 0xFF	; 255
    4e9c:	a8 81       	ld	r26, Y
    4e9e:	b9 81       	ldd	r27, Y+1	; 0x01
    4ea0:	c5 5b       	subi	r28, 0xB5	; 181
    4ea2:	d0 40       	sbci	r29, 0x00	; 0
    4ea4:	2d 91       	ld	r18, X+
    4ea6:	3d 91       	ld	r19, X+
    4ea8:	4d 91       	ld	r20, X+
    4eaa:	5d 91       	ld	r21, X+
    4eac:	cb 54       	subi	r28, 0x4B	; 75
    4eae:	df 4f       	sbci	r29, 0xFF	; 255
    4eb0:	b9 83       	std	Y+1, r27	; 0x01
    4eb2:	a8 83       	st	Y, r26
    4eb4:	c5 5b       	subi	r28, 0xB5	; 181
    4eb6:	d0 40       	sbci	r29, 0x00	; 0
    4eb8:	cd 54       	subi	r28, 0x4D	; 77
    4eba:	df 4f       	sbci	r29, 0xFF	; 255
    4ebc:	e8 81       	ld	r30, Y
    4ebe:	f9 81       	ldd	r31, Y+1	; 0x01
    4ec0:	c3 5b       	subi	r28, 0xB3	; 179
    4ec2:	d0 40       	sbci	r29, 0x00	; 0
    4ec4:	c1 90       	ld	r12, Z+
    4ec6:	d1 90       	ld	r13, Z+
    4ec8:	e1 90       	ld	r14, Z+
    4eca:	f1 90       	ld	r15, Z+
    4ecc:	cd 54       	subi	r28, 0x4D	; 77
    4ece:	df 4f       	sbci	r29, 0xFF	; 255
    4ed0:	f9 83       	std	Y+1, r31	; 0x01
    4ed2:	e8 83       	st	Y, r30
    4ed4:	c3 5b       	subi	r28, 0xB3	; 179
    4ed6:	d0 40       	sbci	r29, 0x00	; 0
    4ed8:	ad cf       	rjmp	.-166    	; 0x4e34 <omega_estimation+0x3a6>
    4eda:	01 50       	subi	r16, 0x01	; 1
    4edc:	c5 54       	subi	r28, 0x45	; 69
    4ede:	df 4f       	sbci	r29, 0xFF	; 255
    4ee0:	e8 81       	ld	r30, Y
    4ee2:	f9 81       	ldd	r31, Y+1	; 0x01
    4ee4:	cb 5b       	subi	r28, 0xBB	; 187
    4ee6:	d0 40       	sbci	r29, 0x00	; 0
    4ee8:	3c 96       	adiw	r30, 0x0c	; 12
    4eea:	c5 54       	subi	r28, 0x45	; 69
    4eec:	df 4f       	sbci	r29, 0xFF	; 255
    4eee:	f9 83       	std	Y+1, r31	; 0x01
    4ef0:	e8 83       	st	Y, r30
    4ef2:	cb 5b       	subi	r28, 0xBB	; 187
    4ef4:	d0 40       	sbci	r29, 0x00	; 0
    4ef6:	c3 54       	subi	r28, 0x43	; 67
    4ef8:	df 4f       	sbci	r29, 0xFF	; 255
    4efa:	28 81       	ld	r18, Y
    4efc:	39 81       	ldd	r19, Y+1	; 0x01
    4efe:	cd 5b       	subi	r28, 0xBD	; 189
    4f00:	d0 40       	sbci	r29, 0x00	; 0
    4f02:	24 5f       	subi	r18, 0xF4	; 244
    4f04:	3f 4f       	sbci	r19, 0xFF	; 255
    4f06:	c3 54       	subi	r28, 0x43	; 67
    4f08:	df 4f       	sbci	r29, 0xFF	; 255
    4f0a:	39 83       	std	Y+1, r19	; 0x01
    4f0c:	28 83       	st	Y, r18
    4f0e:	cd 5b       	subi	r28, 0xBD	; 189
    4f10:	d0 40       	sbci	r29, 0x00	; 0
    4f12:	c1 54       	subi	r28, 0x41	; 65
    4f14:	df 4f       	sbci	r29, 0xFF	; 255
    4f16:	48 81       	ld	r20, Y
    4f18:	59 81       	ldd	r21, Y+1	; 0x01
    4f1a:	cf 5b       	subi	r28, 0xBF	; 191
    4f1c:	d0 40       	sbci	r29, 0x00	; 0
    4f1e:	4c 5f       	subi	r20, 0xFC	; 252
    4f20:	5f 4f       	sbci	r21, 0xFF	; 255
    4f22:	c1 54       	subi	r28, 0x41	; 65
    4f24:	df 4f       	sbci	r29, 0xFF	; 255
    4f26:	59 83       	std	Y+1, r21	; 0x01
    4f28:	48 83       	st	Y, r20
    4f2a:	cf 5b       	subi	r28, 0xBF	; 191
    4f2c:	d0 40       	sbci	r29, 0x00	; 0
    4f2e:	00 23       	and	r16, r16
    4f30:	39 f1       	breq	.+78     	; 0x4f80 <omega_estimation+0x4f2>
    4f32:	c5 53       	subi	r28, 0x35	; 53
    4f34:	df 4f       	sbci	r29, 0xFF	; 255
    4f36:	a8 81       	ld	r26, Y
    4f38:	b9 81       	ldd	r27, Y+1	; 0x01
    4f3a:	cb 5c       	subi	r28, 0xCB	; 203
    4f3c:	d0 40       	sbci	r29, 0x00	; 0
    4f3e:	6d 91       	ld	r22, X+
    4f40:	7d 91       	ld	r23, X+
    4f42:	8d 91       	ld	r24, X+
    4f44:	9d 91       	ld	r25, X+
    4f46:	c5 53       	subi	r28, 0x35	; 53
    4f48:	df 4f       	sbci	r29, 0xFF	; 255
    4f4a:	b9 83       	std	Y+1, r27	; 0x01
    4f4c:	a8 83       	st	Y, r26
    4f4e:	cb 5c       	subi	r28, 0xCB	; 203
    4f50:	d0 40       	sbci	r29, 0x00	; 0
    4f52:	20 81       	ld	r18, Z
    4f54:	31 81       	ldd	r19, Z+1	; 0x01
    4f56:	42 81       	ldd	r20, Z+2	; 0x02
    4f58:	53 81       	ldd	r21, Z+3	; 0x03
    4f5a:	c9 53       	subi	r28, 0x39	; 57
    4f5c:	df 4f       	sbci	r29, 0xFF	; 255
    4f5e:	28 83       	st	Y, r18
    4f60:	39 83       	std	Y+1, r19	; 0x01
    4f62:	4a 83       	std	Y+2, r20	; 0x02
    4f64:	5b 83       	std	Y+3, r21	; 0x03
    4f66:	c7 5c       	subi	r28, 0xC7	; 199
    4f68:	d0 40       	sbci	r29, 0x00	; 0
    4f6a:	c3 54       	subi	r28, 0x43	; 67
    4f6c:	df 4f       	sbci	r29, 0xFF	; 255
    4f6e:	e8 81       	ld	r30, Y
    4f70:	f9 81       	ldd	r31, Y+1	; 0x01
    4f72:	cd 5b       	subi	r28, 0xBD	; 189
    4f74:	d0 40       	sbci	r29, 0x00	; 0
    4f76:	80 80       	ld	r8, Z
    4f78:	91 80       	ldd	r9, Z+1	; 0x01
    4f7a:	a2 80       	ldd	r10, Z+2	; 0x02
    4f7c:	b3 80       	ldd	r11, Z+3	; 0x03
    4f7e:	15 cf       	rjmp	.-470    	; 0x4daa <omega_estimation+0x31c>
    4f80:	ae 01       	movw	r20, r28
    4f82:	43 57       	subi	r20, 0x73	; 115
    4f84:	5f 4f       	sbci	r21, 0xFF	; 255
    4f86:	be 01       	movw	r22, r28
    4f88:	67 5b       	subi	r22, 0xB7	; 183
    4f8a:	7f 4f       	sbci	r23, 0xFF	; 255
    4f8c:	ce 01       	movw	r24, r28
    4f8e:	87 56       	subi	r24, 0x67	; 103
    4f90:	9f 4f       	sbci	r25, 0xFF	; 255
    4f92:	0e 94 7b 1c 	call	0x38f6	; 0x38f6 <vector_into_matrix>
    4f96:	8e 01       	movw	r16, r28
    4f98:	03 57       	subi	r16, 0x73	; 115
    4f9a:	1f 4f       	sbci	r17, 0xFF	; 255
    4f9c:	96 ea       	ldi	r25, 0xA6	; 166
    4f9e:	c9 2e       	mov	r12, r25
    4fa0:	94 e0       	ldi	r25, 0x04	; 4
    4fa2:	d9 2e       	mov	r13, r25
    4fa4:	c1 53       	subi	r28, 0x31	; 49
    4fa6:	df 4f       	sbci	r29, 0xFF	; 255
    4fa8:	e8 80       	ld	r14, Y
    4faa:	cf 5c       	subi	r28, 0xCF	; 207
    4fac:	d0 40       	sbci	r29, 0x00	; 0
    4fae:	c0 53       	subi	r28, 0x30	; 48
    4fb0:	df 4f       	sbci	r29, 0xFF	; 255
    4fb2:	f8 80       	ld	r15, Y
    4fb4:	c0 5d       	subi	r28, 0xD0	; 208
    4fb6:	d0 40       	sbci	r29, 0x00	; 0
    4fb8:	18 01       	movw	r2, r16
    4fba:	9c e0       	ldi	r25, 0x0C	; 12
    4fbc:	29 0e       	add	r2, r25
    4fbe:	31 1c       	adc	r3, r1
    4fc0:	d8 01       	movw	r26, r16
    4fc2:	6d 91       	ld	r22, X+
    4fc4:	7d 91       	ld	r23, X+
    4fc6:	8d 91       	ld	r24, X+
    4fc8:	9d 91       	ld	r25, X+
    4fca:	8d 01       	movw	r16, r26
    4fcc:	f6 01       	movw	r30, r12
    4fce:	41 90       	ld	r4, Z+
    4fd0:	51 90       	ld	r5, Z+
    4fd2:	61 90       	ld	r6, Z+
    4fd4:	71 90       	ld	r7, Z+
    4fd6:	6f 01       	movw	r12, r30
    4fd8:	28 e0       	ldi	r18, 0x08	; 8
    4fda:	31 e2       	ldi	r19, 0x21	; 33
    4fdc:	44 e0       	ldi	r20, 0x04	; 4
    4fde:	5d e3       	ldi	r21, 0x3D	; 61
    4fe0:	a4 d4       	rcall	.+2376   	; 0x592a <__mulsf3>
    4fe2:	4b 01       	movw	r8, r22
    4fe4:	5c 01       	movw	r10, r24
    4fe6:	20 ef       	ldi	r18, 0xF0	; 240
    4fe8:	3d eb       	ldi	r19, 0xBD	; 189
    4fea:	47 e7       	ldi	r20, 0x77	; 119
    4fec:	5f e3       	ldi	r21, 0x3F	; 63
    4fee:	c3 01       	movw	r24, r6
    4ff0:	b2 01       	movw	r22, r4
    4ff2:	9b d4       	rcall	.+2358   	; 0x592a <__mulsf3>
    4ff4:	9b 01       	movw	r18, r22
    4ff6:	ac 01       	movw	r20, r24
    4ff8:	c5 01       	movw	r24, r10
    4ffa:	b4 01       	movw	r22, r8
    4ffc:	99 d1       	rcall	.+818    	; 0x5330 <__addsf3>
    4ffe:	d7 01       	movw	r26, r14
    5000:	6d 93       	st	X+, r22
    5002:	7d 93       	st	X+, r23
    5004:	8d 93       	st	X+, r24
    5006:	9d 93       	st	X+, r25
    5008:	7d 01       	movw	r14, r26
    500a:	02 15       	cp	r16, r2
    500c:	13 05       	cpc	r17, r3
    500e:	c1 f6       	brne	.-80     	; 0x4fc0 <omega_estimation+0x532>
    5010:	62 eb       	ldi	r22, 0xB2	; 178
    5012:	74 e0       	ldi	r23, 0x04	; 4
    5014:	c3 53       	subi	r28, 0x33	; 51
    5016:	df 4f       	sbci	r29, 0xFF	; 255
    5018:	88 81       	ld	r24, Y
    501a:	cd 5c       	subi	r28, 0xCD	; 205
    501c:	d0 40       	sbci	r29, 0x00	; 0
    501e:	c2 53       	subi	r28, 0x32	; 50
    5020:	df 4f       	sbci	r29, 0xFF	; 255
    5022:	98 81       	ld	r25, Y
    5024:	ce 5c       	subi	r28, 0xCE	; 206
    5026:	d0 40       	sbci	r29, 0x00	; 0
    5028:	0e 94 50 1b 	call	0x36a0	; 0x36a0 <copy_quaternion>
    502c:	66 ea       	ldi	r22, 0xA6	; 166
    502e:	74 e0       	ldi	r23, 0x04	; 4
    5030:	c1 53       	subi	r28, 0x31	; 49
    5032:	df 4f       	sbci	r29, 0xFF	; 255
    5034:	88 81       	ld	r24, Y
    5036:	cf 5c       	subi	r28, 0xCF	; 207
    5038:	d0 40       	sbci	r29, 0x00	; 0
    503a:	c0 53       	subi	r28, 0x30	; 48
    503c:	df 4f       	sbci	r29, 0xFF	; 255
    503e:	98 81       	ld	r25, Y
    5040:	c0 5d       	subi	r28, 0xD0	; 208
    5042:	d0 40       	sbci	r29, 0x00	; 0
    5044:	0e 94 31 1b 	call	0x3662	; 0x3662 <copy_vector>
    5048:	c0 53       	subi	r28, 0x30	; 48
    504a:	df 4f       	sbci	r29, 0xFF	; 255
    504c:	0f b6       	in	r0, 0x3f	; 63
    504e:	f8 94       	cli
    5050:	de bf       	out	0x3e, r29	; 62
    5052:	0f be       	out	0x3f, r0	; 63
    5054:	cd bf       	out	0x3d, r28	; 61
    5056:	df 91       	pop	r29
    5058:	cf 91       	pop	r28
    505a:	1f 91       	pop	r17
    505c:	0f 91       	pop	r16
    505e:	ff 90       	pop	r15
    5060:	ef 90       	pop	r14
    5062:	df 90       	pop	r13
    5064:	cf 90       	pop	r12
    5066:	bf 90       	pop	r11
    5068:	af 90       	pop	r10
    506a:	9f 90       	pop	r9
    506c:	8f 90       	pop	r8
    506e:	7f 90       	pop	r7
    5070:	6f 90       	pop	r6
    5072:	5f 90       	pop	r5
    5074:	4f 90       	pop	r4
    5076:	3f 90       	pop	r3
    5078:	2f 90       	pop	r2
    507a:	08 95       	ret

0000507c <init_SPI>:

void SPI_send(char* str, uint16_t size) 
{
  uint16_t i = 0;
  ///In while loop:
  while(i<size)
    507c:	17 ba       	out	0x17, r1	; 23
    507e:	86 e0       	ldi	r24, 0x06	; 6
    5080:	87 bb       	out	0x17, r24	; 23
    5082:	87 b3       	in	r24, 0x17	; 23
    5084:	81 63       	ori	r24, 0x31	; 49
    5086:	87 bb       	out	0x17, r24	; 23
    5088:	88 b3       	in	r24, 0x18	; 24
    508a:	80 63       	ori	r24, 0x30	; 48
    508c:	88 bb       	out	0x18, r24	; 24
    508e:	c0 98       	cbi	0x18, 0	; 24
    5090:	8f e5       	ldi	r24, 0x5F	; 95
    5092:	8d b9       	out	0x0d, r24	; 13
    5094:	08 95       	ret

00005096 <SPI_transfer>:
}


uint8_t SPI_transfer(uint8_t transmit_byte)
{
  SPDR = transmit_byte;
    5096:	8f b9       	out	0x0f, r24	; 15
  ///Wait for Transmission to complete
  while(!(SPSR & (1<<SPIF)));
    5098:	77 9b       	sbis	0x0e, 7	; 14
    509a:	fe cf       	rjmp	.-4      	; 0x5098 <SPI_transfer+0x2>
  ///return received Byte
  return SPDR;
    509c:	8f b1       	in	r24, 0x0f	; 15
}
    509e:	08 95       	ret

000050a0 <poll_SS>:
	val=(val<<8)+vall;
	return val;
}

void poll_SS(void)
{
    50a0:	7f 92       	push	r7
    50a2:	8f 92       	push	r8
    50a4:	9f 92       	push	r9
    50a6:	af 92       	push	r10
    50a8:	bf 92       	push	r11
    50aa:	cf 92       	push	r12
    50ac:	df 92       	push	r13
    50ae:	ef 92       	push	r14
    50b0:	ff 92       	push	r15
    50b2:	0f 93       	push	r16
    50b4:	1f 93       	push	r17
    50b6:	cf 93       	push	r28
    50b8:	df 93       	push	r29
    50ba:	cd b7       	in	r28, 0x3d	; 61
    50bc:	de b7       	in	r29, 0x3e	; 62
    50be:	2c 97       	sbiw	r28, 0x0c	; 12
    50c0:	0f b6       	in	r0, 0x3f	; 63
    50c2:	f8 94       	cli
    50c4:	de bf       	out	0x3e, r29	; 62
    50c6:	0f be       	out	0x3f, r0	; 63
    50c8:	cd bf       	out	0x3d, r28	; 61
	uint8_t valh6;
	uint8_t vall6;

	uint16_t val[6];//First sunsensor combined 16 bit value
	int8_t data_r;
  PORTB |= (1<<PB0);//Set Slave select of Slave OBC to 1
    50ca:	c0 9a       	sbi	0x18, 0	; 24
  PORTB &= ~(1<<PB5);// Set slave select of ADC to 0
    50cc:	c5 98       	cbi	0x18, 5	; 24
    50ce:	8f ec       	ldi	r24, 0xCF	; 207
    50d0:	97 e0       	ldi	r25, 0x07	; 7
    50d2:	01 97       	sbiw	r24, 0x01	; 1
    50d4:	f1 f7       	brne	.-4      	; 0x50d2 <poll_SS+0x32>
    50d6:	00 c0       	rjmp	.+0      	; 0x50d8 <poll_SS+0x38>
    50d8:	00 00       	nop
  //SPCR |=(1<<SPE);
  _delay_ms(1);
  data_r=SPI_transfer(0xFF); //Dummy transaction. Tell ADC that data transmission should begin now.
    50da:	8f ef       	ldi	r24, 0xFF	; 255
    50dc:	dc df       	rcall	.-72     	; 0x5096 <SPI_transfer>
    50de:	ef ec       	ldi	r30, 0xCF	; 207
    50e0:	f7 e0       	ldi	r31, 0x07	; 7
    50e2:	31 97       	sbiw	r30, 0x01	; 1
    50e4:	f1 f7       	brne	.-4      	; 0x50e2 <poll_SS+0x42>
    50e6:	00 c0       	rjmp	.+0      	; 0x50e8 <poll_SS+0x48>
    50e8:	00 00       	nop
  _delay_ms(1);
  //transmit_UART0(data_r);
  PORTA = 0xFF;
    50ea:	8f ef       	ldi	r24, 0xFF	; 255
    50ec:	8b bb       	out	0x1b, r24	; 27
  vall1=SPI_transfer(0xFF);//First data byte
    50ee:	d3 df       	rcall	.-90     	; 0x5096 <SPI_transfer>
    50f0:	18 2f       	mov	r17, r24
    50f2:	8f ec       	ldi	r24, 0xCF	; 207
    50f4:	97 e0       	ldi	r25, 0x07	; 7
    50f6:	01 97       	sbiw	r24, 0x01	; 1
    50f8:	f1 f7       	brne	.-4      	; 0x50f6 <poll_SS+0x56>
    50fa:	00 c0       	rjmp	.+0      	; 0x50fc <poll_SS+0x5c>
    50fc:	00 00       	nop
  _delay_ms(1);
  valh1=SPI_transfer(0xFF);
    50fe:	8f ef       	ldi	r24, 0xFF	; 255
    5100:	ca df       	rcall	.-108    	; 0x5096 <SPI_transfer>
    5102:	78 2e       	mov	r7, r24
    5104:	ef ec       	ldi	r30, 0xCF	; 207
    5106:	f7 e0       	ldi	r31, 0x07	; 7
    5108:	31 97       	sbiw	r30, 0x01	; 1
    510a:	f1 f7       	brne	.-4      	; 0x5108 <poll_SS+0x68>
    510c:	00 c0       	rjmp	.+0      	; 0x510e <poll_SS+0x6e>
    510e:	00 00       	nop
  _delay_ms(1);


  vall2=SPI_transfer(0xFF);
    5110:	8f ef       	ldi	r24, 0xFF	; 255
    5112:	c1 df       	rcall	.-126    	; 0x5096 <SPI_transfer>
    5114:	88 2e       	mov	r8, r24
    5116:	8f ec       	ldi	r24, 0xCF	; 207
    5118:	97 e0       	ldi	r25, 0x07	; 7
    511a:	01 97       	sbiw	r24, 0x01	; 1
    511c:	f1 f7       	brne	.-4      	; 0x511a <poll_SS+0x7a>
    511e:	00 c0       	rjmp	.+0      	; 0x5120 <poll_SS+0x80>
    5120:	00 00       	nop
  _delay_ms(1);
  valh2=SPI_transfer(0xFF);
    5122:	8f ef       	ldi	r24, 0xFF	; 255
    5124:	b8 df       	rcall	.-144    	; 0x5096 <SPI_transfer>
    5126:	08 2f       	mov	r16, r24
    5128:	ef ec       	ldi	r30, 0xCF	; 207
    512a:	f7 e0       	ldi	r31, 0x07	; 7
    512c:	31 97       	sbiw	r30, 0x01	; 1
    512e:	f1 f7       	brne	.-4      	; 0x512c <poll_SS+0x8c>
    5130:	00 c0       	rjmp	.+0      	; 0x5132 <poll_SS+0x92>
    5132:	00 00       	nop
  _delay_ms(1);




  vall3=SPI_transfer(0xFF);
    5134:	8f ef       	ldi	r24, 0xFF	; 255
    5136:	af df       	rcall	.-162    	; 0x5096 <SPI_transfer>
    5138:	a8 2e       	mov	r10, r24
    513a:	8f ec       	ldi	r24, 0xCF	; 207
    513c:	97 e0       	ldi	r25, 0x07	; 7
    513e:	01 97       	sbiw	r24, 0x01	; 1
    5140:	f1 f7       	brne	.-4      	; 0x513e <poll_SS+0x9e>
    5142:	00 c0       	rjmp	.+0      	; 0x5144 <poll_SS+0xa4>
    5144:	00 00       	nop
  _delay_ms(1);
  valh3=SPI_transfer(0xFF);
    5146:	8f ef       	ldi	r24, 0xFF	; 255
    5148:	a6 df       	rcall	.-180    	; 0x5096 <SPI_transfer>
    514a:	98 2e       	mov	r9, r24
    514c:	ef ec       	ldi	r30, 0xCF	; 207
    514e:	f7 e0       	ldi	r31, 0x07	; 7
    5150:	31 97       	sbiw	r30, 0x01	; 1
    5152:	f1 f7       	brne	.-4      	; 0x5150 <poll_SS+0xb0>
    5154:	00 c0       	rjmp	.+0      	; 0x5156 <poll_SS+0xb6>
    5156:	00 00       	nop
  _delay_ms(1);



  vall4=SPI_transfer(0xFF);
    5158:	8f ef       	ldi	r24, 0xFF	; 255
    515a:	9d df       	rcall	.-198    	; 0x5096 <SPI_transfer>
    515c:	c8 2e       	mov	r12, r24
    515e:	8f ec       	ldi	r24, 0xCF	; 207
    5160:	97 e0       	ldi	r25, 0x07	; 7
    5162:	01 97       	sbiw	r24, 0x01	; 1
    5164:	f1 f7       	brne	.-4      	; 0x5162 <poll_SS+0xc2>
    5166:	00 c0       	rjmp	.+0      	; 0x5168 <poll_SS+0xc8>
    5168:	00 00       	nop
  _delay_ms(1);
  valh4=SPI_transfer(0xFF);
    516a:	8f ef       	ldi	r24, 0xFF	; 255
    516c:	94 df       	rcall	.-216    	; 0x5096 <SPI_transfer>
    516e:	b8 2e       	mov	r11, r24
    5170:	ef ec       	ldi	r30, 0xCF	; 207
    5172:	f7 e0       	ldi	r31, 0x07	; 7
    5174:	31 97       	sbiw	r30, 0x01	; 1
    5176:	f1 f7       	brne	.-4      	; 0x5174 <poll_SS+0xd4>
    5178:	00 c0       	rjmp	.+0      	; 0x517a <poll_SS+0xda>
    517a:	00 00       	nop
  _delay_ms(1);



  vall5=SPI_transfer(0xFF);
    517c:	8f ef       	ldi	r24, 0xFF	; 255
    517e:	8b df       	rcall	.-234    	; 0x5096 <SPI_transfer>
    5180:	e8 2e       	mov	r14, r24
    5182:	8f ec       	ldi	r24, 0xCF	; 207
    5184:	97 e0       	ldi	r25, 0x07	; 7
    5186:	01 97       	sbiw	r24, 0x01	; 1
    5188:	f1 f7       	brne	.-4      	; 0x5186 <poll_SS+0xe6>
    518a:	00 c0       	rjmp	.+0      	; 0x518c <poll_SS+0xec>
    518c:	00 00       	nop
  _delay_ms(1);
  valh5=SPI_transfer(0xFF);
    518e:	8f ef       	ldi	r24, 0xFF	; 255
    5190:	82 df       	rcall	.-252    	; 0x5096 <SPI_transfer>
    5192:	d8 2e       	mov	r13, r24
    5194:	ef ec       	ldi	r30, 0xCF	; 207
    5196:	f7 e0       	ldi	r31, 0x07	; 7
    5198:	31 97       	sbiw	r30, 0x01	; 1
    519a:	f1 f7       	brne	.-4      	; 0x5198 <poll_SS+0xf8>
    519c:	00 c0       	rjmp	.+0      	; 0x519e <poll_SS+0xfe>
    519e:	00 00       	nop
  _delay_ms(1);



  vall6=SPI_transfer(0xFF);
    51a0:	8f ef       	ldi	r24, 0xFF	; 255
    51a2:	79 df       	rcall	.-270    	; 0x5096 <SPI_transfer>
    51a4:	f8 2e       	mov	r15, r24
    51a6:	8f ec       	ldi	r24, 0xCF	; 207
    51a8:	97 e0       	ldi	r25, 0x07	; 7
    51aa:	01 97       	sbiw	r24, 0x01	; 1
    51ac:	f1 f7       	brne	.-4      	; 0x51aa <poll_SS+0x10a>
    51ae:	00 c0       	rjmp	.+0      	; 0x51b0 <poll_SS+0x110>
    51b0:	00 00       	nop
  _delay_ms(1);
  valh6=SPI_transfer(0xFF);
    51b2:	8f ef       	ldi	r24, 0xFF	; 255
    51b4:	70 df       	rcall	.-288    	; 0x5096 <SPI_transfer>
    51b6:	ef ec       	ldi	r30, 0xCF	; 207
    51b8:	f7 e0       	ldi	r31, 0x07	; 7
    51ba:	31 97       	sbiw	r30, 0x01	; 1
    51bc:	f1 f7       	brne	.-4      	; 0x51ba <poll_SS+0x11a>
    51be:	00 c0       	rjmp	.+0      	; 0x51c0 <poll_SS+0x120>
    51c0:	00 00       	nop
}

uint16_t convert(uint8_t vall, uint8_t valh) //to convert 2 8 bit integer values to one 16 bit value
{
	
	uint16_t val= valh;
    51c2:	67 2d       	mov	r22, r7
    51c4:	70 e0       	ldi	r23, 0x00	; 0
	val=(val<<8)+vall;
    51c6:	76 2f       	mov	r23, r22
    51c8:	66 27       	eor	r22, r22
    51ca:	61 0f       	add	r22, r17
    51cc:	71 1d       	adc	r23, r1

  vall6=SPI_transfer(0xFF);
  _delay_ms(1);
  valh6=SPI_transfer(0xFF);
  _delay_ms(1);
  val[0]=convert(vall1,valh1);
    51ce:	7a 83       	std	Y+2, r23	; 0x02
    51d0:	69 83       	std	Y+1, r22	; 0x01
}

uint16_t convert(uint8_t vall, uint8_t valh) //to convert 2 8 bit integer values to one 16 bit value
{
	
	uint16_t val= valh;
    51d2:	10 e0       	ldi	r17, 0x00	; 0
	val=(val<<8)+vall;
    51d4:	10 2f       	mov	r17, r16
    51d6:	00 27       	eor	r16, r16
    51d8:	08 0d       	add	r16, r8
    51da:	11 1d       	adc	r17, r1
  vall6=SPI_transfer(0xFF);
  _delay_ms(1);
  valh6=SPI_transfer(0xFF);
  _delay_ms(1);
  val[0]=convert(vall1,valh1);
  val[1]=convert(vall2,valh2);
    51dc:	1c 83       	std	Y+4, r17	; 0x04
    51de:	0b 83       	std	Y+3, r16	; 0x03
}

uint16_t convert(uint8_t vall, uint8_t valh) //to convert 2 8 bit integer values to one 16 bit value
{
	
	uint16_t val= valh;
    51e0:	a9 2d       	mov	r26, r9
    51e2:	b0 e0       	ldi	r27, 0x00	; 0
	val=(val<<8)+vall;
    51e4:	ba 2f       	mov	r27, r26
    51e6:	aa 27       	eor	r26, r26
    51e8:	aa 0d       	add	r26, r10
    51ea:	b1 1d       	adc	r27, r1
  _delay_ms(1);
  valh6=SPI_transfer(0xFF);
  _delay_ms(1);
  val[0]=convert(vall1,valh1);
  val[1]=convert(vall2,valh2);
  val[2]=convert(vall3,valh3);
    51ec:	be 83       	std	Y+6, r27	; 0x06
    51ee:	ad 83       	std	Y+5, r26	; 0x05
}

uint16_t convert(uint8_t vall, uint8_t valh) //to convert 2 8 bit integer values to one 16 bit value
{
	
	uint16_t val= valh;
    51f0:	eb 2d       	mov	r30, r11
    51f2:	f0 e0       	ldi	r31, 0x00	; 0
	val=(val<<8)+vall;
    51f4:	fe 2f       	mov	r31, r30
    51f6:	ee 27       	eor	r30, r30
    51f8:	ec 0d       	add	r30, r12
    51fa:	f1 1d       	adc	r31, r1
  valh6=SPI_transfer(0xFF);
  _delay_ms(1);
  val[0]=convert(vall1,valh1);
  val[1]=convert(vall2,valh2);
  val[2]=convert(vall3,valh3);
  val[3]=convert(vall4,valh4);
    51fc:	f8 87       	std	Y+8, r31	; 0x08
    51fe:	ef 83       	std	Y+7, r30	; 0x07
}

uint16_t convert(uint8_t vall, uint8_t valh) //to convert 2 8 bit integer values to one 16 bit value
{
	
	uint16_t val= valh;
    5200:	4d 2d       	mov	r20, r13
    5202:	50 e0       	ldi	r21, 0x00	; 0
	val=(val<<8)+vall;
    5204:	54 2f       	mov	r21, r20
    5206:	44 27       	eor	r20, r20
    5208:	4e 0d       	add	r20, r14
    520a:	51 1d       	adc	r21, r1
  _delay_ms(1);
  val[0]=convert(vall1,valh1);
  val[1]=convert(vall2,valh2);
  val[2]=convert(vall3,valh3);
  val[3]=convert(vall4,valh4);
  val[4]=convert(vall5,valh5);
    520c:	5a 87       	std	Y+10, r21	; 0x0a
    520e:	49 87       	std	Y+9, r20	; 0x09
}

uint16_t convert(uint8_t vall, uint8_t valh) //to convert 2 8 bit integer values to one 16 bit value
{
	
	uint16_t val= valh;
    5210:	28 2f       	mov	r18, r24
    5212:	30 e0       	ldi	r19, 0x00	; 0
	val=(val<<8)+vall;
    5214:	32 2f       	mov	r19, r18
    5216:	22 27       	eor	r18, r18
    5218:	2f 0d       	add	r18, r15
    521a:	31 1d       	adc	r19, r1
  val[0]=convert(vall1,valh1);
  val[1]=convert(vall2,valh2);
  val[2]=convert(vall3,valh3);
  val[3]=convert(vall4,valh4);
  val[4]=convert(vall5,valh5);
  val[5]=convert(vall6,valh6);
    521c:	3c 87       	std	Y+12, r19	; 0x0c
    521e:	2b 87       	std	Y+11, r18	; 0x0b
    5220:	7e 01       	movw	r14, r28
    5222:	f3 e0       	ldi	r31, 0x03	; 3
    5224:	ef 0e       	add	r14, r31
    5226:	f1 1c       	adc	r15, r1

  for (int i=0;i<6;i=i+1)
    5228:	00 e0       	ldi	r16, 0x00	; 0
    522a:	10 e0       	ldi	r17, 0x00	; 0
    522c:	04 c0       	rjmp	.+8      	; 0x5236 <poll_SS+0x196>
    522e:	f7 01       	movw	r30, r14
    5230:	61 91       	ld	r22, Z+
    5232:	71 91       	ld	r23, Z+
    5234:	7f 01       	movw	r14, r30
  {
	  Current_state.ss.read[i] = (float)(val[i]*(3.3/1024));
    5236:	80 e0       	ldi	r24, 0x00	; 0
    5238:	90 e0       	ldi	r25, 0x00	; 0
    523a:	f2 d1       	rcall	.+996    	; 0x5620 <__floatunsisf>
    523c:	23 e3       	ldi	r18, 0x33	; 51
    523e:	33 e3       	ldi	r19, 0x33	; 51
    5240:	43 e5       	ldi	r20, 0x53	; 83
    5242:	5b e3       	ldi	r21, 0x3B	; 59
    5244:	72 d3       	rcall	.+1764   	; 0x592a <__mulsf3>
    5246:	f8 01       	movw	r30, r16
    5248:	ee 0f       	add	r30, r30
    524a:	ff 1f       	adc	r31, r31
    524c:	ee 0f       	add	r30, r30
    524e:	ff 1f       	adc	r31, r31
    5250:	e3 51       	subi	r30, 0x13	; 19
    5252:	fb 4f       	sbci	r31, 0xFB	; 251
    5254:	67 a7       	std	Z+47, r22	; 0x2f
    5256:	70 ab       	std	Z+48, r23	; 0x30
    5258:	81 ab       	std	Z+49, r24	; 0x31
    525a:	92 ab       	std	Z+50, r25	; 0x32
  val[2]=convert(vall3,valh3);
  val[3]=convert(vall4,valh4);
  val[4]=convert(vall5,valh5);
  val[5]=convert(vall6,valh6);

  for (int i=0;i<6;i=i+1)
    525c:	0f 5f       	subi	r16, 0xFF	; 255
    525e:	1f 4f       	sbci	r17, 0xFF	; 255
    5260:	06 30       	cpi	r16, 0x06	; 6
    5262:	11 05       	cpc	r17, r1
    5264:	21 f7       	brne	.-56     	; 0x522e <poll_SS+0x18e>
  {
	  Current_state.ss.read[i] = (float)(val[i]*(3.3/1024));
  }
  
  uint8_t sen;
  transmit_UART0('A');
    5266:	81 e4       	ldi	r24, 0x41	; 65
    5268:	90 e0       	ldi	r25, 0x00	; 0
    526a:	4f d0       	rcall	.+158    	; 0x530a <transmit_UART0>
  for(int i=0;i<6;i=i+1)
    526c:	00 e0       	ldi	r16, 0x00	; 0
    526e:	10 e0       	ldi	r17, 0x00	; 0
  {
	  sen = (Current_state.ss.read[i]*255/3.3);
    5270:	f8 01       	movw	r30, r16
    5272:	ee 0f       	add	r30, r30
    5274:	ff 1f       	adc	r31, r31
    5276:	ee 0f       	add	r30, r30
    5278:	ff 1f       	adc	r31, r31
    527a:	e3 51       	subi	r30, 0x13	; 19
    527c:	fb 4f       	sbci	r31, 0xFB	; 251
    527e:	67 a5       	ldd	r22, Z+47	; 0x2f
    5280:	70 a9       	ldd	r23, Z+48	; 0x30
    5282:	81 a9       	ldd	r24, Z+49	; 0x31
    5284:	92 a9       	ldd	r25, Z+50	; 0x32
    5286:	20 e0       	ldi	r18, 0x00	; 0
    5288:	30 e0       	ldi	r19, 0x00	; 0
    528a:	4f e7       	ldi	r20, 0x7F	; 127
    528c:	53 e4       	ldi	r21, 0x43	; 67
    528e:	4d d3       	rcall	.+1690   	; 0x592a <__mulsf3>
    5290:	23 e3       	ldi	r18, 0x33	; 51
    5292:	33 e3       	ldi	r19, 0x33	; 51
    5294:	43 e5       	ldi	r20, 0x53	; 83
    5296:	50 e4       	ldi	r21, 0x40	; 64
    5298:	2f d1       	rcall	.+606    	; 0x54f8 <__divsf3>
    529a:	96 d1       	rcall	.+812    	; 0x55c8 <__fixunssfsi>
	  transmit_UART0(sen);
    529c:	86 2f       	mov	r24, r22
    529e:	90 e0       	ldi	r25, 0x00	; 0
    52a0:	34 d0       	rcall	.+104    	; 0x530a <transmit_UART0>
	  Current_state.ss.read[i] = (float)(val[i]*(3.3/1024));
  }
  
  uint8_t sen;
  transmit_UART0('A');
  for(int i=0;i<6;i=i+1)
    52a2:	0f 5f       	subi	r16, 0xFF	; 255
    52a4:	1f 4f       	sbci	r17, 0xFF	; 255
    52a6:	06 30       	cpi	r16, 0x06	; 6
    52a8:	11 05       	cpc	r17, r1
    52aa:	11 f7       	brne	.-60     	; 0x5270 <poll_SS+0x1d0>
  {
	  sen = (Current_state.ss.read[i]*255/3.3);
	  transmit_UART0(sen);
  }
 
  PORTB |= (1<<PB5);
    52ac:	c5 9a       	sbi	0x18, 5	; 24
    52ae:	ff ef       	ldi	r31, 0xFF	; 255
    52b0:	29 e6       	ldi	r18, 0x69	; 105
    52b2:	88 e1       	ldi	r24, 0x18	; 24
    52b4:	f1 50       	subi	r31, 0x01	; 1
    52b6:	20 40       	sbci	r18, 0x00	; 0
    52b8:	80 40       	sbci	r24, 0x00	; 0
    52ba:	e1 f7       	brne	.-8      	; 0x52b4 <poll_SS+0x214>
    52bc:	00 c0       	rjmp	.+0      	; 0x52be <poll_SS+0x21e>
    52be:	00 00       	nop
  _delay_ms(1000);
  ///Power Down PD low
  //cbi(PORTB, PB6);
//return;  
}
    52c0:	2c 96       	adiw	r28, 0x0c	; 12
    52c2:	0f b6       	in	r0, 0x3f	; 63
    52c4:	f8 94       	cli
    52c6:	de bf       	out	0x3e, r29	; 62
    52c8:	0f be       	out	0x3f, r0	; 63
    52ca:	cd bf       	out	0x3d, r28	; 61
    52cc:	df 91       	pop	r29
    52ce:	cf 91       	pop	r28
    52d0:	1f 91       	pop	r17
    52d2:	0f 91       	pop	r16
    52d4:	ff 90       	pop	r15
    52d6:	ef 90       	pop	r14
    52d8:	df 90       	pop	r13
    52da:	cf 90       	pop	r12
    52dc:	bf 90       	pop	r11
    52de:	af 90       	pop	r10
    52e0:	9f 90       	pop	r9
    52e2:	8f 90       	pop	r8
    52e4:	7f 90       	pop	r7
    52e6:	08 95       	ret

000052e8 <init_UART0>:
    52e8:	1b b8       	out	0x0b, r1	; 11
    52ea:	1a b8       	out	0x0a, r1	; 10
    52ec:	e5 e9       	ldi	r30, 0x95	; 149
    52ee:	f0 e0       	ldi	r31, 0x00	; 0
    52f0:	10 82       	st	Z, r1
    52f2:	59 9a       	sbi	0x0b, 1	; 11
    52f4:	8a b1       	in	r24, 0x0a	; 10
    52f6:	88 61       	ori	r24, 0x18	; 24
    52f8:	8a b9       	out	0x0a, r24	; 10
    52fa:	80 81       	ld	r24, Z
    52fc:	8e 60       	ori	r24, 0x0E	; 14
    52fe:	80 83       	st	Z, r24
    5300:	87 e6       	ldi	r24, 0x67	; 103
    5302:	89 b9       	out	0x09, r24	; 9
    5304:	10 92 90 00 	sts	0x0090, r1
    5308:	08 95       	ret

0000530a <transmit_UART0>:
    530a:	5d 9b       	sbis	0x0b, 5	; 11
    530c:	fe cf       	rjmp	.-4      	; 0x530a <transmit_UART0>
    530e:	8c b9       	out	0x0c, r24	; 12
    5310:	08 95       	ret

00005312 <acos>:
    5312:	9f 93       	push	r25
    5314:	9f 77       	andi	r25, 0x7F	; 127
    5316:	ff d1       	rcall	.+1022   	; 0x5716 <__fp_arccos>
    5318:	0f 90       	pop	r0
    531a:	00 20       	and	r0, r0
    531c:	3a f4       	brpl	.+14     	; 0x532c <acos+0x1a>
    531e:	90 58       	subi	r25, 0x80	; 128
    5320:	a2 ea       	ldi	r26, 0xA2	; 162
    5322:	2a ed       	ldi	r18, 0xDA	; 218
    5324:	3f e0       	ldi	r19, 0x0F	; 15
    5326:	49 e4       	ldi	r20, 0x49	; 73
    5328:	50 e4       	ldi	r21, 0x40	; 64
    532a:	13 d0       	rcall	.+38     	; 0x5352 <__addsf3x>
    532c:	a8 c2       	rjmp	.+1360   	; 0x587e <__fp_round>

0000532e <__subsf3>:
    532e:	50 58       	subi	r21, 0x80	; 128

00005330 <__addsf3>:
    5330:	bb 27       	eor	r27, r27
    5332:	aa 27       	eor	r26, r26
    5334:	0e d0       	rcall	.+28     	; 0x5352 <__addsf3x>
    5336:	a3 c2       	rjmp	.+1350   	; 0x587e <__fp_round>
    5338:	6c d2       	rcall	.+1240   	; 0x5812 <__fp_pscA>
    533a:	30 f0       	brcs	.+12     	; 0x5348 <__addsf3+0x18>
    533c:	71 d2       	rcall	.+1250   	; 0x5820 <__fp_pscB>
    533e:	20 f0       	brcs	.+8      	; 0x5348 <__addsf3+0x18>
    5340:	31 f4       	brne	.+12     	; 0x534e <__addsf3+0x1e>
    5342:	9f 3f       	cpi	r25, 0xFF	; 255
    5344:	11 f4       	brne	.+4      	; 0x534a <__addsf3+0x1a>
    5346:	1e f4       	brtc	.+6      	; 0x534e <__addsf3+0x1e>
    5348:	2b c2       	rjmp	.+1110   	; 0x57a0 <__fp_nan>
    534a:	0e f4       	brtc	.+2      	; 0x534e <__addsf3+0x1e>
    534c:	e0 95       	com	r30
    534e:	e7 fb       	bst	r30, 7
    5350:	21 c2       	rjmp	.+1090   	; 0x5794 <__fp_inf>

00005352 <__addsf3x>:
    5352:	e9 2f       	mov	r30, r25
    5354:	b6 d2       	rcall	.+1388   	; 0x58c2 <__fp_split3>
    5356:	80 f3       	brcs	.-32     	; 0x5338 <__addsf3+0x8>
    5358:	ba 17       	cp	r27, r26
    535a:	62 07       	cpc	r22, r18
    535c:	73 07       	cpc	r23, r19
    535e:	84 07       	cpc	r24, r20
    5360:	95 07       	cpc	r25, r21
    5362:	18 f0       	brcs	.+6      	; 0x536a <__addsf3x+0x18>
    5364:	71 f4       	brne	.+28     	; 0x5382 <__addsf3x+0x30>
    5366:	9e f5       	brtc	.+102    	; 0x53ce <__addsf3x+0x7c>
    5368:	ce c2       	rjmp	.+1436   	; 0x5906 <__fp_zero>
    536a:	0e f4       	brtc	.+2      	; 0x536e <__addsf3x+0x1c>
    536c:	e0 95       	com	r30
    536e:	0b 2e       	mov	r0, r27
    5370:	ba 2f       	mov	r27, r26
    5372:	a0 2d       	mov	r26, r0
    5374:	0b 01       	movw	r0, r22
    5376:	b9 01       	movw	r22, r18
    5378:	90 01       	movw	r18, r0
    537a:	0c 01       	movw	r0, r24
    537c:	ca 01       	movw	r24, r20
    537e:	a0 01       	movw	r20, r0
    5380:	11 24       	eor	r1, r1
    5382:	ff 27       	eor	r31, r31
    5384:	59 1b       	sub	r21, r25
    5386:	99 f0       	breq	.+38     	; 0x53ae <__addsf3x+0x5c>
    5388:	59 3f       	cpi	r21, 0xF9	; 249
    538a:	50 f4       	brcc	.+20     	; 0x53a0 <__addsf3x+0x4e>
    538c:	50 3e       	cpi	r21, 0xE0	; 224
    538e:	68 f1       	brcs	.+90     	; 0x53ea <__addsf3x+0x98>
    5390:	1a 16       	cp	r1, r26
    5392:	f0 40       	sbci	r31, 0x00	; 0
    5394:	a2 2f       	mov	r26, r18
    5396:	23 2f       	mov	r18, r19
    5398:	34 2f       	mov	r19, r20
    539a:	44 27       	eor	r20, r20
    539c:	58 5f       	subi	r21, 0xF8	; 248
    539e:	f3 cf       	rjmp	.-26     	; 0x5386 <__addsf3x+0x34>
    53a0:	46 95       	lsr	r20
    53a2:	37 95       	ror	r19
    53a4:	27 95       	ror	r18
    53a6:	a7 95       	ror	r26
    53a8:	f0 40       	sbci	r31, 0x00	; 0
    53aa:	53 95       	inc	r21
    53ac:	c9 f7       	brne	.-14     	; 0x53a0 <__addsf3x+0x4e>
    53ae:	7e f4       	brtc	.+30     	; 0x53ce <__addsf3x+0x7c>
    53b0:	1f 16       	cp	r1, r31
    53b2:	ba 0b       	sbc	r27, r26
    53b4:	62 0b       	sbc	r22, r18
    53b6:	73 0b       	sbc	r23, r19
    53b8:	84 0b       	sbc	r24, r20
    53ba:	ba f0       	brmi	.+46     	; 0x53ea <__addsf3x+0x98>
    53bc:	91 50       	subi	r25, 0x01	; 1
    53be:	a1 f0       	breq	.+40     	; 0x53e8 <__addsf3x+0x96>
    53c0:	ff 0f       	add	r31, r31
    53c2:	bb 1f       	adc	r27, r27
    53c4:	66 1f       	adc	r22, r22
    53c6:	77 1f       	adc	r23, r23
    53c8:	88 1f       	adc	r24, r24
    53ca:	c2 f7       	brpl	.-16     	; 0x53bc <__addsf3x+0x6a>
    53cc:	0e c0       	rjmp	.+28     	; 0x53ea <__addsf3x+0x98>
    53ce:	ba 0f       	add	r27, r26
    53d0:	62 1f       	adc	r22, r18
    53d2:	73 1f       	adc	r23, r19
    53d4:	84 1f       	adc	r24, r20
    53d6:	48 f4       	brcc	.+18     	; 0x53ea <__addsf3x+0x98>
    53d8:	87 95       	ror	r24
    53da:	77 95       	ror	r23
    53dc:	67 95       	ror	r22
    53de:	b7 95       	ror	r27
    53e0:	f7 95       	ror	r31
    53e2:	9e 3f       	cpi	r25, 0xFE	; 254
    53e4:	08 f0       	brcs	.+2      	; 0x53e8 <__addsf3x+0x96>
    53e6:	b3 cf       	rjmp	.-154    	; 0x534e <__addsf3+0x1e>
    53e8:	93 95       	inc	r25
    53ea:	88 0f       	add	r24, r24
    53ec:	08 f0       	brcs	.+2      	; 0x53f0 <__addsf3x+0x9e>
    53ee:	99 27       	eor	r25, r25
    53f0:	ee 0f       	add	r30, r30
    53f2:	97 95       	ror	r25
    53f4:	87 95       	ror	r24
    53f6:	08 95       	ret

000053f8 <asin>:
    53f8:	9f 93       	push	r25
    53fa:	9f 77       	andi	r25, 0x7F	; 127
    53fc:	ee e3       	ldi	r30, 0x3E	; 62
    53fe:	89 37       	cpi	r24, 0x79	; 121
    5400:	9e 07       	cpc	r25, r30
    5402:	20 f4       	brcc	.+8      	; 0x540c <asin+0x14>
    5404:	ec e8       	ldi	r30, 0x8C	; 140
    5406:	f0 e0       	ldi	r31, 0x00	; 0
    5408:	f3 d1       	rcall	.+998    	; 0x57f0 <__fp_powsodd>
    540a:	09 c0       	rjmp	.+18     	; 0x541e <asin+0x26>
    540c:	84 d1       	rcall	.+776    	; 0x5716 <__fp_arccos>
    540e:	90 58       	subi	r25, 0x80	; 128
    5410:	a2 ea       	ldi	r26, 0xA2	; 162
    5412:	2a ed       	ldi	r18, 0xDA	; 218
    5414:	3f e0       	ldi	r19, 0x0F	; 15
    5416:	49 ec       	ldi	r20, 0xC9	; 201
    5418:	5f e3       	ldi	r21, 0x3F	; 63
    541a:	9b df       	rcall	.-202    	; 0x5352 <__addsf3x>
    541c:	30 d2       	rcall	.+1120   	; 0x587e <__fp_round>
    541e:	0f 90       	pop	r0
    5420:	07 fc       	sbrc	r0, 7
    5422:	90 58       	subi	r25, 0x80	; 128
    5424:	08 95       	ret
    5426:	f5 d1       	rcall	.+1002   	; 0x5812 <__fp_pscA>
    5428:	58 f0       	brcs	.+22     	; 0x5440 <asin+0x48>
    542a:	80 e8       	ldi	r24, 0x80	; 128
    542c:	91 e0       	ldi	r25, 0x01	; 1
    542e:	09 f4       	brne	.+2      	; 0x5432 <asin+0x3a>
    5430:	9e ef       	ldi	r25, 0xFE	; 254
    5432:	f6 d1       	rcall	.+1004   	; 0x5820 <__fp_pscB>
    5434:	28 f0       	brcs	.+10     	; 0x5440 <asin+0x48>
    5436:	40 e8       	ldi	r20, 0x80	; 128
    5438:	51 e0       	ldi	r21, 0x01	; 1
    543a:	59 f4       	brne	.+22     	; 0x5452 <atan2+0xe>
    543c:	5e ef       	ldi	r21, 0xFE	; 254
    543e:	09 c0       	rjmp	.+18     	; 0x5452 <atan2+0xe>
    5440:	af c1       	rjmp	.+862    	; 0x57a0 <__fp_nan>
    5442:	61 c2       	rjmp	.+1218   	; 0x5906 <__fp_zero>

00005444 <atan2>:
    5444:	e9 2f       	mov	r30, r25
    5446:	e0 78       	andi	r30, 0x80	; 128
    5448:	3c d2       	rcall	.+1144   	; 0x58c2 <__fp_split3>
    544a:	68 f3       	brcs	.-38     	; 0x5426 <asin+0x2e>
    544c:	09 2e       	mov	r0, r25
    544e:	05 2a       	or	r0, r21
    5450:	c1 f3       	breq	.-16     	; 0x5442 <asin+0x4a>
    5452:	26 17       	cp	r18, r22
    5454:	37 07       	cpc	r19, r23
    5456:	48 07       	cpc	r20, r24
    5458:	59 07       	cpc	r21, r25
    545a:	38 f0       	brcs	.+14     	; 0x546a <atan2+0x26>
    545c:	0e 2e       	mov	r0, r30
    545e:	07 f8       	bld	r0, 7
    5460:	e0 25       	eor	r30, r0
    5462:	69 f0       	breq	.+26     	; 0x547e <atan2+0x3a>
    5464:	e0 25       	eor	r30, r0
    5466:	e0 64       	ori	r30, 0x40	; 64
    5468:	0a c0       	rjmp	.+20     	; 0x547e <atan2+0x3a>
    546a:	ef 63       	ori	r30, 0x3F	; 63
    546c:	07 f8       	bld	r0, 7
    546e:	00 94       	com	r0
    5470:	07 fa       	bst	r0, 7
    5472:	db 01       	movw	r26, r22
    5474:	b9 01       	movw	r22, r18
    5476:	9d 01       	movw	r18, r26
    5478:	dc 01       	movw	r26, r24
    547a:	ca 01       	movw	r24, r20
    547c:	ad 01       	movw	r20, r26
    547e:	ef 93       	push	r30
    5480:	4a d0       	rcall	.+148    	; 0x5516 <__divsf3_pse>
    5482:	fd d1       	rcall	.+1018   	; 0x587e <__fp_round>
    5484:	0a d0       	rcall	.+20     	; 0x549a <atan>
    5486:	5f 91       	pop	r21
    5488:	55 23       	and	r21, r21
    548a:	31 f0       	breq	.+12     	; 0x5498 <atan2+0x54>
    548c:	2b ed       	ldi	r18, 0xDB	; 219
    548e:	3f e0       	ldi	r19, 0x0F	; 15
    5490:	49 e4       	ldi	r20, 0x49	; 73
    5492:	50 fd       	sbrc	r21, 0
    5494:	49 ec       	ldi	r20, 0xC9	; 201
    5496:	4c cf       	rjmp	.-360    	; 0x5330 <__addsf3>
    5498:	08 95       	ret

0000549a <atan>:
    549a:	df 93       	push	r29
    549c:	dd 27       	eor	r29, r29
    549e:	b9 2f       	mov	r27, r25
    54a0:	bf 77       	andi	r27, 0x7F	; 127
    54a2:	40 e8       	ldi	r20, 0x80	; 128
    54a4:	5f e3       	ldi	r21, 0x3F	; 63
    54a6:	16 16       	cp	r1, r22
    54a8:	17 06       	cpc	r1, r23
    54aa:	48 07       	cpc	r20, r24
    54ac:	5b 07       	cpc	r21, r27
    54ae:	10 f4       	brcc	.+4      	; 0x54b4 <atan+0x1a>
    54b0:	d9 2f       	mov	r29, r25
    54b2:	34 d2       	rcall	.+1128   	; 0x591c <inverse>
    54b4:	9f 93       	push	r25
    54b6:	8f 93       	push	r24
    54b8:	7f 93       	push	r23
    54ba:	6f 93       	push	r22
    54bc:	2d d3       	rcall	.+1626   	; 0x5b18 <square>
    54be:	e0 ea       	ldi	r30, 0xA0	; 160
    54c0:	f0 e0       	ldi	r31, 0x00	; 0
    54c2:	71 d1       	rcall	.+738    	; 0x57a6 <__fp_powser>
    54c4:	dc d1       	rcall	.+952    	; 0x587e <__fp_round>
    54c6:	2f 91       	pop	r18
    54c8:	3f 91       	pop	r19
    54ca:	4f 91       	pop	r20
    54cc:	5f 91       	pop	r21
    54ce:	39 d2       	rcall	.+1138   	; 0x5942 <__mulsf3x>
    54d0:	dd 23       	and	r29, r29
    54d2:	49 f0       	breq	.+18     	; 0x54e6 <atan+0x4c>
    54d4:	90 58       	subi	r25, 0x80	; 128
    54d6:	a2 ea       	ldi	r26, 0xA2	; 162
    54d8:	2a ed       	ldi	r18, 0xDA	; 218
    54da:	3f e0       	ldi	r19, 0x0F	; 15
    54dc:	49 ec       	ldi	r20, 0xC9	; 201
    54de:	5f e3       	ldi	r21, 0x3F	; 63
    54e0:	d0 78       	andi	r29, 0x80	; 128
    54e2:	5d 27       	eor	r21, r29
    54e4:	36 df       	rcall	.-404    	; 0x5352 <__addsf3x>
    54e6:	df 91       	pop	r29
    54e8:	ca c1       	rjmp	.+916    	; 0x587e <__fp_round>

000054ea <__cmpsf2>:
    54ea:	30 d1       	rcall	.+608    	; 0x574c <__fp_cmp>
    54ec:	08 f4       	brcc	.+2      	; 0x54f0 <__cmpsf2+0x6>
    54ee:	81 e0       	ldi	r24, 0x01	; 1
    54f0:	08 95       	ret

000054f2 <cos>:
    54f2:	9e d1       	rcall	.+828    	; 0x5830 <__fp_rempio2>
    54f4:	e3 95       	inc	r30
    54f6:	d4 c1       	rjmp	.+936    	; 0x58a0 <__fp_sinus>

000054f8 <__divsf3>:
    54f8:	0c d0       	rcall	.+24     	; 0x5512 <__divsf3x>
    54fa:	c1 c1       	rjmp	.+898    	; 0x587e <__fp_round>
    54fc:	91 d1       	rcall	.+802    	; 0x5820 <__fp_pscB>
    54fe:	40 f0       	brcs	.+16     	; 0x5510 <__divsf3+0x18>
    5500:	88 d1       	rcall	.+784    	; 0x5812 <__fp_pscA>
    5502:	30 f0       	brcs	.+12     	; 0x5510 <__divsf3+0x18>
    5504:	21 f4       	brne	.+8      	; 0x550e <__divsf3+0x16>
    5506:	5f 3f       	cpi	r21, 0xFF	; 255
    5508:	19 f0       	breq	.+6      	; 0x5510 <__divsf3+0x18>
    550a:	44 c1       	rjmp	.+648    	; 0x5794 <__fp_inf>
    550c:	51 11       	cpse	r21, r1
    550e:	fc c1       	rjmp	.+1016   	; 0x5908 <__fp_szero>
    5510:	47 c1       	rjmp	.+654    	; 0x57a0 <__fp_nan>

00005512 <__divsf3x>:
    5512:	d7 d1       	rcall	.+942    	; 0x58c2 <__fp_split3>
    5514:	98 f3       	brcs	.-26     	; 0x54fc <__divsf3+0x4>

00005516 <__divsf3_pse>:
    5516:	99 23       	and	r25, r25
    5518:	c9 f3       	breq	.-14     	; 0x550c <__divsf3+0x14>
    551a:	55 23       	and	r21, r21
    551c:	b1 f3       	breq	.-20     	; 0x550a <__divsf3+0x12>
    551e:	95 1b       	sub	r25, r21
    5520:	55 0b       	sbc	r21, r21
    5522:	bb 27       	eor	r27, r27
    5524:	aa 27       	eor	r26, r26
    5526:	62 17       	cp	r22, r18
    5528:	73 07       	cpc	r23, r19
    552a:	84 07       	cpc	r24, r20
    552c:	38 f0       	brcs	.+14     	; 0x553c <__divsf3_pse+0x26>
    552e:	9f 5f       	subi	r25, 0xFF	; 255
    5530:	5f 4f       	sbci	r21, 0xFF	; 255
    5532:	22 0f       	add	r18, r18
    5534:	33 1f       	adc	r19, r19
    5536:	44 1f       	adc	r20, r20
    5538:	aa 1f       	adc	r26, r26
    553a:	a9 f3       	breq	.-22     	; 0x5526 <__divsf3_pse+0x10>
    553c:	33 d0       	rcall	.+102    	; 0x55a4 <__divsf3_pse+0x8e>
    553e:	0e 2e       	mov	r0, r30
    5540:	3a f0       	brmi	.+14     	; 0x5550 <__divsf3_pse+0x3a>
    5542:	e0 e8       	ldi	r30, 0x80	; 128
    5544:	30 d0       	rcall	.+96     	; 0x55a6 <__divsf3_pse+0x90>
    5546:	91 50       	subi	r25, 0x01	; 1
    5548:	50 40       	sbci	r21, 0x00	; 0
    554a:	e6 95       	lsr	r30
    554c:	00 1c       	adc	r0, r0
    554e:	ca f7       	brpl	.-14     	; 0x5542 <__divsf3_pse+0x2c>
    5550:	29 d0       	rcall	.+82     	; 0x55a4 <__divsf3_pse+0x8e>
    5552:	fe 2f       	mov	r31, r30
    5554:	27 d0       	rcall	.+78     	; 0x55a4 <__divsf3_pse+0x8e>
    5556:	66 0f       	add	r22, r22
    5558:	77 1f       	adc	r23, r23
    555a:	88 1f       	adc	r24, r24
    555c:	bb 1f       	adc	r27, r27
    555e:	26 17       	cp	r18, r22
    5560:	37 07       	cpc	r19, r23
    5562:	48 07       	cpc	r20, r24
    5564:	ab 07       	cpc	r26, r27
    5566:	b0 e8       	ldi	r27, 0x80	; 128
    5568:	09 f0       	breq	.+2      	; 0x556c <__divsf3_pse+0x56>
    556a:	bb 0b       	sbc	r27, r27
    556c:	80 2d       	mov	r24, r0
    556e:	bf 01       	movw	r22, r30
    5570:	ff 27       	eor	r31, r31
    5572:	93 58       	subi	r25, 0x83	; 131
    5574:	5f 4f       	sbci	r21, 0xFF	; 255
    5576:	2a f0       	brmi	.+10     	; 0x5582 <__divsf3_pse+0x6c>
    5578:	9e 3f       	cpi	r25, 0xFE	; 254
    557a:	51 05       	cpc	r21, r1
    557c:	68 f0       	brcs	.+26     	; 0x5598 <__divsf3_pse+0x82>
    557e:	0a c1       	rjmp	.+532    	; 0x5794 <__fp_inf>
    5580:	c3 c1       	rjmp	.+902    	; 0x5908 <__fp_szero>
    5582:	5f 3f       	cpi	r21, 0xFF	; 255
    5584:	ec f3       	brlt	.-6      	; 0x5580 <__divsf3_pse+0x6a>
    5586:	98 3e       	cpi	r25, 0xE8	; 232
    5588:	dc f3       	brlt	.-10     	; 0x5580 <__divsf3_pse+0x6a>
    558a:	86 95       	lsr	r24
    558c:	77 95       	ror	r23
    558e:	67 95       	ror	r22
    5590:	b7 95       	ror	r27
    5592:	f7 95       	ror	r31
    5594:	9f 5f       	subi	r25, 0xFF	; 255
    5596:	c9 f7       	brne	.-14     	; 0x558a <__divsf3_pse+0x74>
    5598:	88 0f       	add	r24, r24
    559a:	91 1d       	adc	r25, r1
    559c:	96 95       	lsr	r25
    559e:	87 95       	ror	r24
    55a0:	97 f9       	bld	r25, 7
    55a2:	08 95       	ret
    55a4:	e1 e0       	ldi	r30, 0x01	; 1
    55a6:	66 0f       	add	r22, r22
    55a8:	77 1f       	adc	r23, r23
    55aa:	88 1f       	adc	r24, r24
    55ac:	bb 1f       	adc	r27, r27
    55ae:	62 17       	cp	r22, r18
    55b0:	73 07       	cpc	r23, r19
    55b2:	84 07       	cpc	r24, r20
    55b4:	ba 07       	cpc	r27, r26
    55b6:	20 f0       	brcs	.+8      	; 0x55c0 <__divsf3_pse+0xaa>
    55b8:	62 1b       	sub	r22, r18
    55ba:	73 0b       	sbc	r23, r19
    55bc:	84 0b       	sbc	r24, r20
    55be:	ba 0b       	sbc	r27, r26
    55c0:	ee 1f       	adc	r30, r30
    55c2:	88 f7       	brcc	.-30     	; 0x55a6 <__divsf3_pse+0x90>
    55c4:	e0 95       	com	r30
    55c6:	08 95       	ret

000055c8 <__fixunssfsi>:
    55c8:	84 d1       	rcall	.+776    	; 0x58d2 <__fp_splitA>
    55ca:	88 f0       	brcs	.+34     	; 0x55ee <__fixunssfsi+0x26>
    55cc:	9f 57       	subi	r25, 0x7F	; 127
    55ce:	90 f0       	brcs	.+36     	; 0x55f4 <__fixunssfsi+0x2c>
    55d0:	b9 2f       	mov	r27, r25
    55d2:	99 27       	eor	r25, r25
    55d4:	b7 51       	subi	r27, 0x17	; 23
    55d6:	a0 f0       	brcs	.+40     	; 0x5600 <__fixunssfsi+0x38>
    55d8:	d1 f0       	breq	.+52     	; 0x560e <__fixunssfsi+0x46>
    55da:	66 0f       	add	r22, r22
    55dc:	77 1f       	adc	r23, r23
    55de:	88 1f       	adc	r24, r24
    55e0:	99 1f       	adc	r25, r25
    55e2:	1a f0       	brmi	.+6      	; 0x55ea <__fixunssfsi+0x22>
    55e4:	ba 95       	dec	r27
    55e6:	c9 f7       	brne	.-14     	; 0x55da <__fixunssfsi+0x12>
    55e8:	12 c0       	rjmp	.+36     	; 0x560e <__fixunssfsi+0x46>
    55ea:	b1 30       	cpi	r27, 0x01	; 1
    55ec:	81 f0       	breq	.+32     	; 0x560e <__fixunssfsi+0x46>
    55ee:	8b d1       	rcall	.+790    	; 0x5906 <__fp_zero>
    55f0:	b1 e0       	ldi	r27, 0x01	; 1
    55f2:	08 95       	ret
    55f4:	88 c1       	rjmp	.+784    	; 0x5906 <__fp_zero>
    55f6:	67 2f       	mov	r22, r23
    55f8:	78 2f       	mov	r23, r24
    55fa:	88 27       	eor	r24, r24
    55fc:	b8 5f       	subi	r27, 0xF8	; 248
    55fe:	39 f0       	breq	.+14     	; 0x560e <__fixunssfsi+0x46>
    5600:	b9 3f       	cpi	r27, 0xF9	; 249
    5602:	cc f3       	brlt	.-14     	; 0x55f6 <__fixunssfsi+0x2e>
    5604:	86 95       	lsr	r24
    5606:	77 95       	ror	r23
    5608:	67 95       	ror	r22
    560a:	b3 95       	inc	r27
    560c:	d9 f7       	brne	.-10     	; 0x5604 <__fixunssfsi+0x3c>
    560e:	3e f4       	brtc	.+14     	; 0x561e <__fixunssfsi+0x56>
    5610:	90 95       	com	r25
    5612:	80 95       	com	r24
    5614:	70 95       	com	r23
    5616:	61 95       	neg	r22
    5618:	7f 4f       	sbci	r23, 0xFF	; 255
    561a:	8f 4f       	sbci	r24, 0xFF	; 255
    561c:	9f 4f       	sbci	r25, 0xFF	; 255
    561e:	08 95       	ret

00005620 <__floatunsisf>:
    5620:	e8 94       	clt
    5622:	09 c0       	rjmp	.+18     	; 0x5636 <__floatsisf+0x12>

00005624 <__floatsisf>:
    5624:	97 fb       	bst	r25, 7
    5626:	3e f4       	brtc	.+14     	; 0x5636 <__floatsisf+0x12>
    5628:	90 95       	com	r25
    562a:	80 95       	com	r24
    562c:	70 95       	com	r23
    562e:	61 95       	neg	r22
    5630:	7f 4f       	sbci	r23, 0xFF	; 255
    5632:	8f 4f       	sbci	r24, 0xFF	; 255
    5634:	9f 4f       	sbci	r25, 0xFF	; 255
    5636:	99 23       	and	r25, r25
    5638:	a9 f0       	breq	.+42     	; 0x5664 <__floatsisf+0x40>
    563a:	f9 2f       	mov	r31, r25
    563c:	96 e9       	ldi	r25, 0x96	; 150
    563e:	bb 27       	eor	r27, r27
    5640:	93 95       	inc	r25
    5642:	f6 95       	lsr	r31
    5644:	87 95       	ror	r24
    5646:	77 95       	ror	r23
    5648:	67 95       	ror	r22
    564a:	b7 95       	ror	r27
    564c:	f1 11       	cpse	r31, r1
    564e:	f8 cf       	rjmp	.-16     	; 0x5640 <__floatsisf+0x1c>
    5650:	fa f4       	brpl	.+62     	; 0x5690 <__floatsisf+0x6c>
    5652:	bb 0f       	add	r27, r27
    5654:	11 f4       	brne	.+4      	; 0x565a <__floatsisf+0x36>
    5656:	60 ff       	sbrs	r22, 0
    5658:	1b c0       	rjmp	.+54     	; 0x5690 <__floatsisf+0x6c>
    565a:	6f 5f       	subi	r22, 0xFF	; 255
    565c:	7f 4f       	sbci	r23, 0xFF	; 255
    565e:	8f 4f       	sbci	r24, 0xFF	; 255
    5660:	9f 4f       	sbci	r25, 0xFF	; 255
    5662:	16 c0       	rjmp	.+44     	; 0x5690 <__floatsisf+0x6c>
    5664:	88 23       	and	r24, r24
    5666:	11 f0       	breq	.+4      	; 0x566c <__floatsisf+0x48>
    5668:	96 e9       	ldi	r25, 0x96	; 150
    566a:	11 c0       	rjmp	.+34     	; 0x568e <__floatsisf+0x6a>
    566c:	77 23       	and	r23, r23
    566e:	21 f0       	breq	.+8      	; 0x5678 <__floatsisf+0x54>
    5670:	9e e8       	ldi	r25, 0x8E	; 142
    5672:	87 2f       	mov	r24, r23
    5674:	76 2f       	mov	r23, r22
    5676:	05 c0       	rjmp	.+10     	; 0x5682 <__floatsisf+0x5e>
    5678:	66 23       	and	r22, r22
    567a:	71 f0       	breq	.+28     	; 0x5698 <__floatsisf+0x74>
    567c:	96 e8       	ldi	r25, 0x86	; 134
    567e:	86 2f       	mov	r24, r22
    5680:	70 e0       	ldi	r23, 0x00	; 0
    5682:	60 e0       	ldi	r22, 0x00	; 0
    5684:	2a f0       	brmi	.+10     	; 0x5690 <__floatsisf+0x6c>
    5686:	9a 95       	dec	r25
    5688:	66 0f       	add	r22, r22
    568a:	77 1f       	adc	r23, r23
    568c:	88 1f       	adc	r24, r24
    568e:	da f7       	brpl	.-10     	; 0x5686 <__floatsisf+0x62>
    5690:	88 0f       	add	r24, r24
    5692:	96 95       	lsr	r25
    5694:	87 95       	ror	r24
    5696:	97 f9       	bld	r25, 7
    5698:	08 95       	ret

0000569a <__floatundisf>:
    569a:	e8 94       	clt

0000569c <__fp_di2sf>:
    569c:	f9 2f       	mov	r31, r25
    569e:	96 eb       	ldi	r25, 0xB6	; 182
    56a0:	ff 23       	and	r31, r31
    56a2:	81 f0       	breq	.+32     	; 0x56c4 <__fp_di2sf+0x28>
    56a4:	12 16       	cp	r1, r18
    56a6:	13 06       	cpc	r1, r19
    56a8:	14 06       	cpc	r1, r20
    56aa:	44 0b       	sbc	r20, r20
    56ac:	93 95       	inc	r25
    56ae:	f6 95       	lsr	r31
    56b0:	87 95       	ror	r24
    56b2:	77 95       	ror	r23
    56b4:	67 95       	ror	r22
    56b6:	57 95       	ror	r21
    56b8:	40 40       	sbci	r20, 0x00	; 0
    56ba:	ff 23       	and	r31, r31
    56bc:	b9 f7       	brne	.-18     	; 0x56ac <__fp_di2sf+0x10>
    56be:	1b c0       	rjmp	.+54     	; 0x56f6 <__fp_di2sf+0x5a>
    56c0:	99 27       	eor	r25, r25
    56c2:	08 95       	ret
    56c4:	88 23       	and	r24, r24
    56c6:	51 f4       	brne	.+20     	; 0x56dc <__fp_di2sf+0x40>
    56c8:	98 50       	subi	r25, 0x08	; 8
    56ca:	d2 f7       	brpl	.-12     	; 0x56c0 <__fp_di2sf+0x24>
    56cc:	87 2b       	or	r24, r23
    56ce:	76 2f       	mov	r23, r22
    56d0:	65 2f       	mov	r22, r21
    56d2:	54 2f       	mov	r21, r20
    56d4:	43 2f       	mov	r20, r19
    56d6:	32 2f       	mov	r19, r18
    56d8:	20 e0       	ldi	r18, 0x00	; 0
    56da:	b1 f3       	breq	.-20     	; 0x56c8 <__fp_di2sf+0x2c>
    56dc:	12 16       	cp	r1, r18
    56de:	13 06       	cpc	r1, r19
    56e0:	14 06       	cpc	r1, r20
    56e2:	44 0b       	sbc	r20, r20
    56e4:	88 23       	and	r24, r24
    56e6:	3a f0       	brmi	.+14     	; 0x56f6 <__fp_di2sf+0x5a>
    56e8:	9a 95       	dec	r25
    56ea:	44 0f       	add	r20, r20
    56ec:	55 1f       	adc	r21, r21
    56ee:	66 1f       	adc	r22, r22
    56f0:	77 1f       	adc	r23, r23
    56f2:	88 1f       	adc	r24, r24
    56f4:	ca f7       	brpl	.-14     	; 0x56e8 <__fp_di2sf+0x4c>
    56f6:	55 23       	and	r21, r21
    56f8:	4a f4       	brpl	.+18     	; 0x570c <__fp_di2sf+0x70>
    56fa:	44 0f       	add	r20, r20
    56fc:	55 1f       	adc	r21, r21
    56fe:	11 f4       	brne	.+4      	; 0x5704 <__fp_di2sf+0x68>
    5700:	60 ff       	sbrs	r22, 0
    5702:	04 c0       	rjmp	.+8      	; 0x570c <__fp_di2sf+0x70>
    5704:	6f 5f       	subi	r22, 0xFF	; 255
    5706:	7f 4f       	sbci	r23, 0xFF	; 255
    5708:	8f 4f       	sbci	r24, 0xFF	; 255
    570a:	9f 4f       	sbci	r25, 0xFF	; 255
    570c:	88 0f       	add	r24, r24
    570e:	96 95       	lsr	r25
    5710:	87 95       	ror	r24
    5712:	97 f9       	bld	r25, 7
    5714:	08 95       	ret

00005716 <__fp_arccos>:
    5716:	df 93       	push	r29
    5718:	cf 93       	push	r28
    571a:	1f 93       	push	r17
    571c:	0f 93       	push	r16
    571e:	8b 01       	movw	r16, r22
    5720:	ec 01       	movw	r28, r24
    5722:	ed ec       	ldi	r30, 0xCD	; 205
    5724:	f0 e0       	ldi	r31, 0x00	; 0
    5726:	3f d0       	rcall	.+126    	; 0x57a6 <__fp_powser>
    5728:	aa d0       	rcall	.+340    	; 0x587e <__fp_round>
    572a:	98 01       	movw	r18, r16
    572c:	ae 01       	movw	r20, r28
    572e:	8b 01       	movw	r16, r22
    5730:	ec 01       	movw	r28, r24
    5732:	60 e0       	ldi	r22, 0x00	; 0
    5734:	70 e0       	ldi	r23, 0x00	; 0
    5736:	80 e8       	ldi	r24, 0x80	; 128
    5738:	9f e3       	ldi	r25, 0x3F	; 63
    573a:	f9 dd       	rcall	.-1038   	; 0x532e <__subsf3>
    573c:	af d1       	rcall	.+862    	; 0x5a9c <sqrt>
    573e:	98 01       	movw	r18, r16
    5740:	ae 01       	movw	r20, r28
    5742:	0f 91       	pop	r16
    5744:	1f 91       	pop	r17
    5746:	cf 91       	pop	r28
    5748:	df 91       	pop	r29
    574a:	fb c0       	rjmp	.+502    	; 0x5942 <__mulsf3x>

0000574c <__fp_cmp>:
    574c:	99 0f       	add	r25, r25
    574e:	00 08       	sbc	r0, r0
    5750:	55 0f       	add	r21, r21
    5752:	aa 0b       	sbc	r26, r26
    5754:	e0 e8       	ldi	r30, 0x80	; 128
    5756:	fe ef       	ldi	r31, 0xFE	; 254
    5758:	16 16       	cp	r1, r22
    575a:	17 06       	cpc	r1, r23
    575c:	e8 07       	cpc	r30, r24
    575e:	f9 07       	cpc	r31, r25
    5760:	c0 f0       	brcs	.+48     	; 0x5792 <__fp_cmp+0x46>
    5762:	12 16       	cp	r1, r18
    5764:	13 06       	cpc	r1, r19
    5766:	e4 07       	cpc	r30, r20
    5768:	f5 07       	cpc	r31, r21
    576a:	98 f0       	brcs	.+38     	; 0x5792 <__fp_cmp+0x46>
    576c:	62 1b       	sub	r22, r18
    576e:	73 0b       	sbc	r23, r19
    5770:	84 0b       	sbc	r24, r20
    5772:	95 0b       	sbc	r25, r21
    5774:	39 f4       	brne	.+14     	; 0x5784 <__fp_cmp+0x38>
    5776:	0a 26       	eor	r0, r26
    5778:	61 f0       	breq	.+24     	; 0x5792 <__fp_cmp+0x46>
    577a:	23 2b       	or	r18, r19
    577c:	24 2b       	or	r18, r20
    577e:	25 2b       	or	r18, r21
    5780:	21 f4       	brne	.+8      	; 0x578a <__fp_cmp+0x3e>
    5782:	08 95       	ret
    5784:	0a 26       	eor	r0, r26
    5786:	09 f4       	brne	.+2      	; 0x578a <__fp_cmp+0x3e>
    5788:	a1 40       	sbci	r26, 0x01	; 1
    578a:	a6 95       	lsr	r26
    578c:	8f ef       	ldi	r24, 0xFF	; 255
    578e:	81 1d       	adc	r24, r1
    5790:	81 1d       	adc	r24, r1
    5792:	08 95       	ret

00005794 <__fp_inf>:
    5794:	97 f9       	bld	r25, 7
    5796:	9f 67       	ori	r25, 0x7F	; 127
    5798:	80 e8       	ldi	r24, 0x80	; 128
    579a:	70 e0       	ldi	r23, 0x00	; 0
    579c:	60 e0       	ldi	r22, 0x00	; 0
    579e:	08 95       	ret

000057a0 <__fp_nan>:
    57a0:	9f ef       	ldi	r25, 0xFF	; 255
    57a2:	80 ec       	ldi	r24, 0xC0	; 192
    57a4:	08 95       	ret

000057a6 <__fp_powser>:
    57a6:	df 93       	push	r29
    57a8:	cf 93       	push	r28
    57aa:	1f 93       	push	r17
    57ac:	0f 93       	push	r16
    57ae:	ff 92       	push	r15
    57b0:	ef 92       	push	r14
    57b2:	df 92       	push	r13
    57b4:	7b 01       	movw	r14, r22
    57b6:	8c 01       	movw	r16, r24
    57b8:	68 94       	set
    57ba:	05 c0       	rjmp	.+10     	; 0x57c6 <__fp_powser+0x20>
    57bc:	da 2e       	mov	r13, r26
    57be:	ef 01       	movw	r28, r30
    57c0:	c0 d0       	rcall	.+384    	; 0x5942 <__mulsf3x>
    57c2:	fe 01       	movw	r30, r28
    57c4:	e8 94       	clt
    57c6:	a5 91       	lpm	r26, Z+
    57c8:	25 91       	lpm	r18, Z+
    57ca:	35 91       	lpm	r19, Z+
    57cc:	45 91       	lpm	r20, Z+
    57ce:	55 91       	lpm	r21, Z+
    57d0:	ae f3       	brts	.-22     	; 0x57bc <__fp_powser+0x16>
    57d2:	ef 01       	movw	r28, r30
    57d4:	be dd       	rcall	.-1156   	; 0x5352 <__addsf3x>
    57d6:	fe 01       	movw	r30, r28
    57d8:	97 01       	movw	r18, r14
    57da:	a8 01       	movw	r20, r16
    57dc:	da 94       	dec	r13
    57de:	79 f7       	brne	.-34     	; 0x57be <__fp_powser+0x18>
    57e0:	df 90       	pop	r13
    57e2:	ef 90       	pop	r14
    57e4:	ff 90       	pop	r15
    57e6:	0f 91       	pop	r16
    57e8:	1f 91       	pop	r17
    57ea:	cf 91       	pop	r28
    57ec:	df 91       	pop	r29
    57ee:	08 95       	ret

000057f0 <__fp_powsodd>:
    57f0:	9f 93       	push	r25
    57f2:	8f 93       	push	r24
    57f4:	7f 93       	push	r23
    57f6:	6f 93       	push	r22
    57f8:	ff 93       	push	r31
    57fa:	ef 93       	push	r30
    57fc:	9b 01       	movw	r18, r22
    57fe:	ac 01       	movw	r20, r24
    5800:	94 d0       	rcall	.+296    	; 0x592a <__mulsf3>
    5802:	ef 91       	pop	r30
    5804:	ff 91       	pop	r31
    5806:	cf df       	rcall	.-98     	; 0x57a6 <__fp_powser>
    5808:	2f 91       	pop	r18
    580a:	3f 91       	pop	r19
    580c:	4f 91       	pop	r20
    580e:	5f 91       	pop	r21
    5810:	8c c0       	rjmp	.+280    	; 0x592a <__mulsf3>

00005812 <__fp_pscA>:
    5812:	00 24       	eor	r0, r0
    5814:	0a 94       	dec	r0
    5816:	16 16       	cp	r1, r22
    5818:	17 06       	cpc	r1, r23
    581a:	18 06       	cpc	r1, r24
    581c:	09 06       	cpc	r0, r25
    581e:	08 95       	ret

00005820 <__fp_pscB>:
    5820:	00 24       	eor	r0, r0
    5822:	0a 94       	dec	r0
    5824:	12 16       	cp	r1, r18
    5826:	13 06       	cpc	r1, r19
    5828:	14 06       	cpc	r1, r20
    582a:	05 06       	cpc	r0, r21
    582c:	08 95       	ret
    582e:	b8 cf       	rjmp	.-144    	; 0x57a0 <__fp_nan>

00005830 <__fp_rempio2>:
    5830:	50 d0       	rcall	.+160    	; 0x58d2 <__fp_splitA>
    5832:	e8 f3       	brcs	.-6      	; 0x582e <__fp_pscB+0xe>
    5834:	e8 94       	clt
    5836:	e0 e0       	ldi	r30, 0x00	; 0
    5838:	bb 27       	eor	r27, r27
    583a:	9f 57       	subi	r25, 0x7F	; 127
    583c:	f0 f0       	brcs	.+60     	; 0x587a <__fp_rempio2+0x4a>
    583e:	2a ed       	ldi	r18, 0xDA	; 218
    5840:	3f e0       	ldi	r19, 0x0F	; 15
    5842:	49 ec       	ldi	r20, 0xC9	; 201
    5844:	06 c0       	rjmp	.+12     	; 0x5852 <__fp_rempio2+0x22>
    5846:	ee 0f       	add	r30, r30
    5848:	bb 0f       	add	r27, r27
    584a:	66 1f       	adc	r22, r22
    584c:	77 1f       	adc	r23, r23
    584e:	88 1f       	adc	r24, r24
    5850:	28 f0       	brcs	.+10     	; 0x585c <__fp_rempio2+0x2c>
    5852:	b2 3a       	cpi	r27, 0xA2	; 162
    5854:	62 07       	cpc	r22, r18
    5856:	73 07       	cpc	r23, r19
    5858:	84 07       	cpc	r24, r20
    585a:	28 f0       	brcs	.+10     	; 0x5866 <__fp_rempio2+0x36>
    585c:	b2 5a       	subi	r27, 0xA2	; 162
    585e:	62 0b       	sbc	r22, r18
    5860:	73 0b       	sbc	r23, r19
    5862:	84 0b       	sbc	r24, r20
    5864:	e3 95       	inc	r30
    5866:	9a 95       	dec	r25
    5868:	72 f7       	brpl	.-36     	; 0x5846 <__fp_rempio2+0x16>
    586a:	80 38       	cpi	r24, 0x80	; 128
    586c:	30 f4       	brcc	.+12     	; 0x587a <__fp_rempio2+0x4a>
    586e:	9a 95       	dec	r25
    5870:	bb 0f       	add	r27, r27
    5872:	66 1f       	adc	r22, r22
    5874:	77 1f       	adc	r23, r23
    5876:	88 1f       	adc	r24, r24
    5878:	d2 f7       	brpl	.-12     	; 0x586e <__fp_rempio2+0x3e>
    587a:	90 48       	sbci	r25, 0x80	; 128
    587c:	83 c1       	rjmp	.+774    	; 0x5b84 <__fp_mpack_finite>

0000587e <__fp_round>:
    587e:	09 2e       	mov	r0, r25
    5880:	03 94       	inc	r0
    5882:	00 0c       	add	r0, r0
    5884:	11 f4       	brne	.+4      	; 0x588a <__fp_round+0xc>
    5886:	88 23       	and	r24, r24
    5888:	52 f0       	brmi	.+20     	; 0x589e <__fp_round+0x20>
    588a:	bb 0f       	add	r27, r27
    588c:	40 f4       	brcc	.+16     	; 0x589e <__fp_round+0x20>
    588e:	bf 2b       	or	r27, r31
    5890:	11 f4       	brne	.+4      	; 0x5896 <__fp_round+0x18>
    5892:	60 ff       	sbrs	r22, 0
    5894:	04 c0       	rjmp	.+8      	; 0x589e <__fp_round+0x20>
    5896:	6f 5f       	subi	r22, 0xFF	; 255
    5898:	7f 4f       	sbci	r23, 0xFF	; 255
    589a:	8f 4f       	sbci	r24, 0xFF	; 255
    589c:	9f 4f       	sbci	r25, 0xFF	; 255
    589e:	08 95       	ret

000058a0 <__fp_sinus>:
    58a0:	ef 93       	push	r30
    58a2:	e0 ff       	sbrs	r30, 0
    58a4:	06 c0       	rjmp	.+12     	; 0x58b2 <__fp_sinus+0x12>
    58a6:	a2 ea       	ldi	r26, 0xA2	; 162
    58a8:	2a ed       	ldi	r18, 0xDA	; 218
    58aa:	3f e0       	ldi	r19, 0x0F	; 15
    58ac:	49 ec       	ldi	r20, 0xC9	; 201
    58ae:	5f eb       	ldi	r21, 0xBF	; 191
    58b0:	50 dd       	rcall	.-1376   	; 0x5352 <__addsf3x>
    58b2:	e5 df       	rcall	.-54     	; 0x587e <__fp_round>
    58b4:	0f 90       	pop	r0
    58b6:	03 94       	inc	r0
    58b8:	01 fc       	sbrc	r0, 1
    58ba:	90 58       	subi	r25, 0x80	; 128
    58bc:	e5 ef       	ldi	r30, 0xF5	; 245
    58be:	f0 e0       	ldi	r31, 0x00	; 0
    58c0:	97 cf       	rjmp	.-210    	; 0x57f0 <__fp_powsodd>

000058c2 <__fp_split3>:
    58c2:	57 fd       	sbrc	r21, 7
    58c4:	90 58       	subi	r25, 0x80	; 128
    58c6:	44 0f       	add	r20, r20
    58c8:	55 1f       	adc	r21, r21
    58ca:	59 f0       	breq	.+22     	; 0x58e2 <__fp_splitA+0x10>
    58cc:	5f 3f       	cpi	r21, 0xFF	; 255
    58ce:	71 f0       	breq	.+28     	; 0x58ec <__fp_splitA+0x1a>
    58d0:	47 95       	ror	r20

000058d2 <__fp_splitA>:
    58d2:	88 0f       	add	r24, r24
    58d4:	97 fb       	bst	r25, 7
    58d6:	99 1f       	adc	r25, r25
    58d8:	61 f0       	breq	.+24     	; 0x58f2 <__fp_splitA+0x20>
    58da:	9f 3f       	cpi	r25, 0xFF	; 255
    58dc:	79 f0       	breq	.+30     	; 0x58fc <__fp_splitA+0x2a>
    58de:	87 95       	ror	r24
    58e0:	08 95       	ret
    58e2:	12 16       	cp	r1, r18
    58e4:	13 06       	cpc	r1, r19
    58e6:	14 06       	cpc	r1, r20
    58e8:	55 1f       	adc	r21, r21
    58ea:	f2 cf       	rjmp	.-28     	; 0x58d0 <__fp_split3+0xe>
    58ec:	46 95       	lsr	r20
    58ee:	f1 df       	rcall	.-30     	; 0x58d2 <__fp_splitA>
    58f0:	08 c0       	rjmp	.+16     	; 0x5902 <__fp_splitA+0x30>
    58f2:	16 16       	cp	r1, r22
    58f4:	17 06       	cpc	r1, r23
    58f6:	18 06       	cpc	r1, r24
    58f8:	99 1f       	adc	r25, r25
    58fa:	f1 cf       	rjmp	.-30     	; 0x58de <__fp_splitA+0xc>
    58fc:	86 95       	lsr	r24
    58fe:	71 05       	cpc	r23, r1
    5900:	61 05       	cpc	r22, r1
    5902:	08 94       	sec
    5904:	08 95       	ret

00005906 <__fp_zero>:
    5906:	e8 94       	clt

00005908 <__fp_szero>:
    5908:	bb 27       	eor	r27, r27
    590a:	66 27       	eor	r22, r22
    590c:	77 27       	eor	r23, r23
    590e:	cb 01       	movw	r24, r22
    5910:	97 f9       	bld	r25, 7
    5912:	08 95       	ret

00005914 <__gesf2>:
    5914:	1b df       	rcall	.-458    	; 0x574c <__fp_cmp>
    5916:	08 f4       	brcc	.+2      	; 0x591a <__gesf2+0x6>
    5918:	8f ef       	ldi	r24, 0xFF	; 255
    591a:	08 95       	ret

0000591c <inverse>:
    591c:	9b 01       	movw	r18, r22
    591e:	ac 01       	movw	r20, r24
    5920:	60 e0       	ldi	r22, 0x00	; 0
    5922:	70 e0       	ldi	r23, 0x00	; 0
    5924:	80 e8       	ldi	r24, 0x80	; 128
    5926:	9f e3       	ldi	r25, 0x3F	; 63
    5928:	e7 cd       	rjmp	.-1074   	; 0x54f8 <__divsf3>

0000592a <__mulsf3>:
    592a:	0b d0       	rcall	.+22     	; 0x5942 <__mulsf3x>
    592c:	a8 cf       	rjmp	.-176    	; 0x587e <__fp_round>
    592e:	71 df       	rcall	.-286    	; 0x5812 <__fp_pscA>
    5930:	28 f0       	brcs	.+10     	; 0x593c <__mulsf3+0x12>
    5932:	76 df       	rcall	.-276    	; 0x5820 <__fp_pscB>
    5934:	18 f0       	brcs	.+6      	; 0x593c <__mulsf3+0x12>
    5936:	95 23       	and	r25, r21
    5938:	09 f0       	breq	.+2      	; 0x593c <__mulsf3+0x12>
    593a:	2c cf       	rjmp	.-424    	; 0x5794 <__fp_inf>
    593c:	31 cf       	rjmp	.-414    	; 0x57a0 <__fp_nan>
    593e:	11 24       	eor	r1, r1
    5940:	e3 cf       	rjmp	.-58     	; 0x5908 <__fp_szero>

00005942 <__mulsf3x>:
    5942:	bf df       	rcall	.-130    	; 0x58c2 <__fp_split3>
    5944:	a0 f3       	brcs	.-24     	; 0x592e <__mulsf3+0x4>

00005946 <__mulsf3_pse>:
    5946:	95 9f       	mul	r25, r21
    5948:	d1 f3       	breq	.-12     	; 0x593e <__mulsf3+0x14>
    594a:	95 0f       	add	r25, r21
    594c:	50 e0       	ldi	r21, 0x00	; 0
    594e:	55 1f       	adc	r21, r21
    5950:	62 9f       	mul	r22, r18
    5952:	f0 01       	movw	r30, r0
    5954:	72 9f       	mul	r23, r18
    5956:	bb 27       	eor	r27, r27
    5958:	f0 0d       	add	r31, r0
    595a:	b1 1d       	adc	r27, r1
    595c:	63 9f       	mul	r22, r19
    595e:	aa 27       	eor	r26, r26
    5960:	f0 0d       	add	r31, r0
    5962:	b1 1d       	adc	r27, r1
    5964:	aa 1f       	adc	r26, r26
    5966:	64 9f       	mul	r22, r20
    5968:	66 27       	eor	r22, r22
    596a:	b0 0d       	add	r27, r0
    596c:	a1 1d       	adc	r26, r1
    596e:	66 1f       	adc	r22, r22
    5970:	82 9f       	mul	r24, r18
    5972:	22 27       	eor	r18, r18
    5974:	b0 0d       	add	r27, r0
    5976:	a1 1d       	adc	r26, r1
    5978:	62 1f       	adc	r22, r18
    597a:	73 9f       	mul	r23, r19
    597c:	b0 0d       	add	r27, r0
    597e:	a1 1d       	adc	r26, r1
    5980:	62 1f       	adc	r22, r18
    5982:	83 9f       	mul	r24, r19
    5984:	a0 0d       	add	r26, r0
    5986:	61 1d       	adc	r22, r1
    5988:	22 1f       	adc	r18, r18
    598a:	74 9f       	mul	r23, r20
    598c:	33 27       	eor	r19, r19
    598e:	a0 0d       	add	r26, r0
    5990:	61 1d       	adc	r22, r1
    5992:	23 1f       	adc	r18, r19
    5994:	84 9f       	mul	r24, r20
    5996:	60 0d       	add	r22, r0
    5998:	21 1d       	adc	r18, r1
    599a:	82 2f       	mov	r24, r18
    599c:	76 2f       	mov	r23, r22
    599e:	6a 2f       	mov	r22, r26
    59a0:	11 24       	eor	r1, r1
    59a2:	9f 57       	subi	r25, 0x7F	; 127
    59a4:	50 40       	sbci	r21, 0x00	; 0
    59a6:	8a f0       	brmi	.+34     	; 0x59ca <__mulsf3_pse+0x84>
    59a8:	e1 f0       	breq	.+56     	; 0x59e2 <__mulsf3_pse+0x9c>
    59aa:	88 23       	and	r24, r24
    59ac:	4a f0       	brmi	.+18     	; 0x59c0 <__mulsf3_pse+0x7a>
    59ae:	ee 0f       	add	r30, r30
    59b0:	ff 1f       	adc	r31, r31
    59b2:	bb 1f       	adc	r27, r27
    59b4:	66 1f       	adc	r22, r22
    59b6:	77 1f       	adc	r23, r23
    59b8:	88 1f       	adc	r24, r24
    59ba:	91 50       	subi	r25, 0x01	; 1
    59bc:	50 40       	sbci	r21, 0x00	; 0
    59be:	a9 f7       	brne	.-22     	; 0x59aa <__mulsf3_pse+0x64>
    59c0:	9e 3f       	cpi	r25, 0xFE	; 254
    59c2:	51 05       	cpc	r21, r1
    59c4:	70 f0       	brcs	.+28     	; 0x59e2 <__mulsf3_pse+0x9c>
    59c6:	e6 ce       	rjmp	.-564    	; 0x5794 <__fp_inf>
    59c8:	9f cf       	rjmp	.-194    	; 0x5908 <__fp_szero>
    59ca:	5f 3f       	cpi	r21, 0xFF	; 255
    59cc:	ec f3       	brlt	.-6      	; 0x59c8 <__mulsf3_pse+0x82>
    59ce:	98 3e       	cpi	r25, 0xE8	; 232
    59d0:	dc f3       	brlt	.-10     	; 0x59c8 <__mulsf3_pse+0x82>
    59d2:	86 95       	lsr	r24
    59d4:	77 95       	ror	r23
    59d6:	67 95       	ror	r22
    59d8:	b7 95       	ror	r27
    59da:	f7 95       	ror	r31
    59dc:	e7 95       	ror	r30
    59de:	9f 5f       	subi	r25, 0xFF	; 255
    59e0:	c1 f7       	brne	.-16     	; 0x59d2 <__mulsf3_pse+0x8c>
    59e2:	fe 2b       	or	r31, r30
    59e4:	88 0f       	add	r24, r24
    59e6:	91 1d       	adc	r25, r1
    59e8:	96 95       	lsr	r25
    59ea:	87 95       	ror	r24
    59ec:	97 f9       	bld	r25, 7
    59ee:	08 95       	ret

000059f0 <pow>:
    59f0:	fa 01       	movw	r30, r20
    59f2:	ee 0f       	add	r30, r30
    59f4:	ff 1f       	adc	r31, r31
    59f6:	30 96       	adiw	r30, 0x00	; 0
    59f8:	21 05       	cpc	r18, r1
    59fa:	31 05       	cpc	r19, r1
    59fc:	99 f1       	breq	.+102    	; 0x5a64 <pow+0x74>
    59fe:	61 15       	cp	r22, r1
    5a00:	71 05       	cpc	r23, r1
    5a02:	61 f4       	brne	.+24     	; 0x5a1c <pow+0x2c>
    5a04:	80 38       	cpi	r24, 0x80	; 128
    5a06:	bf e3       	ldi	r27, 0x3F	; 63
    5a08:	9b 07       	cpc	r25, r27
    5a0a:	49 f1       	breq	.+82     	; 0x5a5e <pow+0x6e>
    5a0c:	68 94       	set
    5a0e:	90 38       	cpi	r25, 0x80	; 128
    5a10:	81 05       	cpc	r24, r1
    5a12:	61 f0       	breq	.+24     	; 0x5a2c <pow+0x3c>
    5a14:	80 38       	cpi	r24, 0x80	; 128
    5a16:	bf ef       	ldi	r27, 0xFF	; 255
    5a18:	9b 07       	cpc	r25, r27
    5a1a:	41 f0       	breq	.+16     	; 0x5a2c <pow+0x3c>
    5a1c:	99 23       	and	r25, r25
    5a1e:	42 f5       	brpl	.+80     	; 0x5a70 <pow+0x80>
    5a20:	ff 3f       	cpi	r31, 0xFF	; 255
    5a22:	e1 05       	cpc	r30, r1
    5a24:	31 05       	cpc	r19, r1
    5a26:	21 05       	cpc	r18, r1
    5a28:	11 f1       	breq	.+68     	; 0x5a6e <pow+0x7e>
    5a2a:	e8 94       	clt
    5a2c:	08 94       	sec
    5a2e:	e7 95       	ror	r30
    5a30:	d9 01       	movw	r26, r18
    5a32:	aa 23       	and	r26, r26
    5a34:	29 f4       	brne	.+10     	; 0x5a40 <pow+0x50>
    5a36:	ab 2f       	mov	r26, r27
    5a38:	be 2f       	mov	r27, r30
    5a3a:	f8 5f       	subi	r31, 0xF8	; 248
    5a3c:	d0 f3       	brcs	.-12     	; 0x5a32 <pow+0x42>
    5a3e:	10 c0       	rjmp	.+32     	; 0x5a60 <pow+0x70>
    5a40:	ff 5f       	subi	r31, 0xFF	; 255
    5a42:	70 f4       	brcc	.+28     	; 0x5a60 <pow+0x70>
    5a44:	a6 95       	lsr	r26
    5a46:	e0 f7       	brcc	.-8      	; 0x5a40 <pow+0x50>
    5a48:	f7 39       	cpi	r31, 0x97	; 151
    5a4a:	50 f0       	brcs	.+20     	; 0x5a60 <pow+0x70>
    5a4c:	19 f0       	breq	.+6      	; 0x5a54 <pow+0x64>
    5a4e:	ff 3a       	cpi	r31, 0xAF	; 175
    5a50:	38 f4       	brcc	.+14     	; 0x5a60 <pow+0x70>
    5a52:	9f 77       	andi	r25, 0x7F	; 127
    5a54:	9f 93       	push	r25
    5a56:	0c d0       	rcall	.+24     	; 0x5a70 <pow+0x80>
    5a58:	0f 90       	pop	r0
    5a5a:	07 fc       	sbrc	r0, 7
    5a5c:	90 58       	subi	r25, 0x80	; 128
    5a5e:	08 95       	ret
    5a60:	3e f0       	brts	.+14     	; 0x5a70 <pow+0x80>
    5a62:	9e ce       	rjmp	.-708    	; 0x57a0 <__fp_nan>
    5a64:	60 e0       	ldi	r22, 0x00	; 0
    5a66:	70 e0       	ldi	r23, 0x00	; 0
    5a68:	80 e8       	ldi	r24, 0x80	; 128
    5a6a:	9f e3       	ldi	r25, 0x3F	; 63
    5a6c:	08 95       	ret
    5a6e:	4f e7       	ldi	r20, 0x7F	; 127
    5a70:	9f 77       	andi	r25, 0x7F	; 127
    5a72:	5f 93       	push	r21
    5a74:	4f 93       	push	r20
    5a76:	3f 93       	push	r19
    5a78:	2f 93       	push	r18
    5a7a:	d2 d0       	rcall	.+420    	; 0x5c20 <log>
    5a7c:	2f 91       	pop	r18
    5a7e:	3f 91       	pop	r19
    5a80:	4f 91       	pop	r20
    5a82:	5f 91       	pop	r21
    5a84:	52 df       	rcall	.-348    	; 0x592a <__mulsf3>
    5a86:	50 c0       	rjmp	.+160    	; 0x5b28 <exp>

00005a88 <sin>:
    5a88:	9f 93       	push	r25
    5a8a:	d2 de       	rcall	.-604    	; 0x5830 <__fp_rempio2>
    5a8c:	0f 90       	pop	r0
    5a8e:	07 fc       	sbrc	r0, 7
    5a90:	ee 5f       	subi	r30, 0xFE	; 254
    5a92:	06 cf       	rjmp	.-500    	; 0x58a0 <__fp_sinus>
    5a94:	11 f4       	brne	.+4      	; 0x5a9a <sin+0x12>
    5a96:	0e f4       	brtc	.+2      	; 0x5a9a <sin+0x12>
    5a98:	83 ce       	rjmp	.-762    	; 0x57a0 <__fp_nan>
    5a9a:	72 c0       	rjmp	.+228    	; 0x5b80 <__fp_mpack>

00005a9c <sqrt>:
    5a9c:	1a df       	rcall	.-460    	; 0x58d2 <__fp_splitA>
    5a9e:	d0 f3       	brcs	.-12     	; 0x5a94 <sin+0xc>
    5aa0:	99 23       	and	r25, r25
    5aa2:	d9 f3       	breq	.-10     	; 0x5a9a <sin+0x12>
    5aa4:	ce f3       	brts	.-14     	; 0x5a98 <sin+0x10>
    5aa6:	9f 57       	subi	r25, 0x7F	; 127
    5aa8:	55 0b       	sbc	r21, r21
    5aaa:	87 ff       	sbrs	r24, 7
    5aac:	77 d0       	rcall	.+238    	; 0x5b9c <__fp_norm2>
    5aae:	00 24       	eor	r0, r0
    5ab0:	a0 e6       	ldi	r26, 0x60	; 96
    5ab2:	40 ea       	ldi	r20, 0xA0	; 160
    5ab4:	90 01       	movw	r18, r0
    5ab6:	80 58       	subi	r24, 0x80	; 128
    5ab8:	56 95       	lsr	r21
    5aba:	97 95       	ror	r25
    5abc:	28 f4       	brcc	.+10     	; 0x5ac8 <sqrt+0x2c>
    5abe:	80 5c       	subi	r24, 0xC0	; 192
    5ac0:	66 0f       	add	r22, r22
    5ac2:	77 1f       	adc	r23, r23
    5ac4:	88 1f       	adc	r24, r24
    5ac6:	20 f0       	brcs	.+8      	; 0x5ad0 <sqrt+0x34>
    5ac8:	26 17       	cp	r18, r22
    5aca:	37 07       	cpc	r19, r23
    5acc:	48 07       	cpc	r20, r24
    5ace:	30 f4       	brcc	.+12     	; 0x5adc <sqrt+0x40>
    5ad0:	62 1b       	sub	r22, r18
    5ad2:	73 0b       	sbc	r23, r19
    5ad4:	84 0b       	sbc	r24, r20
    5ad6:	20 29       	or	r18, r0
    5ad8:	31 29       	or	r19, r1
    5ada:	4a 2b       	or	r20, r26
    5adc:	a6 95       	lsr	r26
    5ade:	17 94       	ror	r1
    5ae0:	07 94       	ror	r0
    5ae2:	20 25       	eor	r18, r0
    5ae4:	31 25       	eor	r19, r1
    5ae6:	4a 27       	eor	r20, r26
    5ae8:	58 f7       	brcc	.-42     	; 0x5ac0 <sqrt+0x24>
    5aea:	66 0f       	add	r22, r22
    5aec:	77 1f       	adc	r23, r23
    5aee:	88 1f       	adc	r24, r24
    5af0:	20 f0       	brcs	.+8      	; 0x5afa <sqrt+0x5e>
    5af2:	26 17       	cp	r18, r22
    5af4:	37 07       	cpc	r19, r23
    5af6:	48 07       	cpc	r20, r24
    5af8:	30 f4       	brcc	.+12     	; 0x5b06 <sqrt+0x6a>
    5afa:	62 0b       	sbc	r22, r18
    5afc:	73 0b       	sbc	r23, r19
    5afe:	84 0b       	sbc	r24, r20
    5b00:	20 0d       	add	r18, r0
    5b02:	31 1d       	adc	r19, r1
    5b04:	41 1d       	adc	r20, r1
    5b06:	a0 95       	com	r26
    5b08:	81 f7       	brne	.-32     	; 0x5aea <sqrt+0x4e>
    5b0a:	b9 01       	movw	r22, r18
    5b0c:	84 2f       	mov	r24, r20
    5b0e:	91 58       	subi	r25, 0x81	; 129
    5b10:	88 0f       	add	r24, r24
    5b12:	96 95       	lsr	r25
    5b14:	87 95       	ror	r24
    5b16:	08 95       	ret

00005b18 <square>:
    5b18:	9b 01       	movw	r18, r22
    5b1a:	ac 01       	movw	r20, r24
    5b1c:	06 cf       	rjmp	.-500    	; 0x592a <__mulsf3>
    5b1e:	19 f4       	brne	.+6      	; 0x5b26 <square+0xe>
    5b20:	0e f0       	brts	.+2      	; 0x5b24 <square+0xc>
    5b22:	38 ce       	rjmp	.-912    	; 0x5794 <__fp_inf>
    5b24:	f0 ce       	rjmp	.-544    	; 0x5906 <__fp_zero>
    5b26:	3c ce       	rjmp	.-904    	; 0x57a0 <__fp_nan>

00005b28 <exp>:
    5b28:	d4 de       	rcall	.-600    	; 0x58d2 <__fp_splitA>
    5b2a:	c8 f3       	brcs	.-14     	; 0x5b1e <square+0x6>
    5b2c:	96 38       	cpi	r25, 0x86	; 134
    5b2e:	c0 f7       	brcc	.-16     	; 0x5b20 <square+0x8>
    5b30:	07 f8       	bld	r0, 7
    5b32:	0f 92       	push	r0
    5b34:	e8 94       	clt
    5b36:	2b e3       	ldi	r18, 0x3B	; 59
    5b38:	3a ea       	ldi	r19, 0xAA	; 170
    5b3a:	48 eb       	ldi	r20, 0xB8	; 184
    5b3c:	5f e7       	ldi	r21, 0x7F	; 127
    5b3e:	03 df       	rcall	.-506    	; 0x5946 <__mulsf3_pse>
    5b40:	0f 92       	push	r0
    5b42:	0f 92       	push	r0
    5b44:	0f 92       	push	r0
    5b46:	4d b7       	in	r20, 0x3d	; 61
    5b48:	5e b7       	in	r21, 0x3e	; 62
    5b4a:	0f 92       	push	r0
    5b4c:	a9 d0       	rcall	.+338    	; 0x5ca0 <modf>
    5b4e:	e3 e1       	ldi	r30, 0x13	; 19
    5b50:	f1 e0       	ldi	r31, 0x01	; 1
    5b52:	29 de       	rcall	.-942    	; 0x57a6 <__fp_powser>
    5b54:	4f 91       	pop	r20
    5b56:	5f 91       	pop	r21
    5b58:	ef 91       	pop	r30
    5b5a:	ff 91       	pop	r31
    5b5c:	e5 95       	asr	r30
    5b5e:	ee 1f       	adc	r30, r30
    5b60:	ff 1f       	adc	r31, r31
    5b62:	49 f0       	breq	.+18     	; 0x5b76 <exp+0x4e>
    5b64:	fe 57       	subi	r31, 0x7E	; 126
    5b66:	e0 68       	ori	r30, 0x80	; 128
    5b68:	44 27       	eor	r20, r20
    5b6a:	ee 0f       	add	r30, r30
    5b6c:	44 1f       	adc	r20, r20
    5b6e:	fa 95       	dec	r31
    5b70:	e1 f7       	brne	.-8      	; 0x5b6a <exp+0x42>
    5b72:	41 95       	neg	r20
    5b74:	55 0b       	sbc	r21, r21
    5b76:	1b d0       	rcall	.+54     	; 0x5bae <ldexp>
    5b78:	0f 90       	pop	r0
    5b7a:	07 fe       	sbrs	r0, 7
    5b7c:	cf ce       	rjmp	.-610    	; 0x591c <inverse>
    5b7e:	08 95       	ret

00005b80 <__fp_mpack>:
    5b80:	9f 3f       	cpi	r25, 0xFF	; 255
    5b82:	31 f0       	breq	.+12     	; 0x5b90 <__fp_mpack_finite+0xc>

00005b84 <__fp_mpack_finite>:
    5b84:	91 50       	subi	r25, 0x01	; 1
    5b86:	20 f4       	brcc	.+8      	; 0x5b90 <__fp_mpack_finite+0xc>
    5b88:	87 95       	ror	r24
    5b8a:	77 95       	ror	r23
    5b8c:	67 95       	ror	r22
    5b8e:	b7 95       	ror	r27
    5b90:	88 0f       	add	r24, r24
    5b92:	91 1d       	adc	r25, r1
    5b94:	96 95       	lsr	r25
    5b96:	87 95       	ror	r24
    5b98:	97 f9       	bld	r25, 7
    5b9a:	08 95       	ret

00005b9c <__fp_norm2>:
    5b9c:	91 50       	subi	r25, 0x01	; 1
    5b9e:	50 40       	sbci	r21, 0x00	; 0
    5ba0:	66 0f       	add	r22, r22
    5ba2:	77 1f       	adc	r23, r23
    5ba4:	88 1f       	adc	r24, r24
    5ba6:	d2 f7       	brpl	.-12     	; 0x5b9c <__fp_norm2>
    5ba8:	08 95       	ret
    5baa:	f4 cd       	rjmp	.-1048   	; 0x5794 <__fp_inf>
    5bac:	e9 cf       	rjmp	.-46     	; 0x5b80 <__fp_mpack>

00005bae <ldexp>:
    5bae:	91 de       	rcall	.-734    	; 0x58d2 <__fp_splitA>
    5bb0:	e8 f3       	brcs	.-6      	; 0x5bac <__fp_norm2+0x10>
    5bb2:	99 23       	and	r25, r25
    5bb4:	d9 f3       	breq	.-10     	; 0x5bac <__fp_norm2+0x10>
    5bb6:	94 0f       	add	r25, r20
    5bb8:	51 1d       	adc	r21, r1
    5bba:	bb f3       	brvs	.-18     	; 0x5baa <__fp_norm2+0xe>
    5bbc:	91 50       	subi	r25, 0x01	; 1
    5bbe:	50 40       	sbci	r21, 0x00	; 0
    5bc0:	94 f0       	brlt	.+36     	; 0x5be6 <ldexp+0x38>
    5bc2:	59 f0       	breq	.+22     	; 0x5bda <ldexp+0x2c>
    5bc4:	88 23       	and	r24, r24
    5bc6:	32 f0       	brmi	.+12     	; 0x5bd4 <ldexp+0x26>
    5bc8:	66 0f       	add	r22, r22
    5bca:	77 1f       	adc	r23, r23
    5bcc:	88 1f       	adc	r24, r24
    5bce:	91 50       	subi	r25, 0x01	; 1
    5bd0:	50 40       	sbci	r21, 0x00	; 0
    5bd2:	c1 f7       	brne	.-16     	; 0x5bc4 <ldexp+0x16>
    5bd4:	9e 3f       	cpi	r25, 0xFE	; 254
    5bd6:	51 05       	cpc	r21, r1
    5bd8:	44 f7       	brge	.-48     	; 0x5baa <__fp_norm2+0xe>
    5bda:	88 0f       	add	r24, r24
    5bdc:	91 1d       	adc	r25, r1
    5bde:	96 95       	lsr	r25
    5be0:	87 95       	ror	r24
    5be2:	97 f9       	bld	r25, 7
    5be4:	08 95       	ret
    5be6:	5f 3f       	cpi	r21, 0xFF	; 255
    5be8:	ac f0       	brlt	.+42     	; 0x5c14 <ldexp+0x66>
    5bea:	98 3e       	cpi	r25, 0xE8	; 232
    5bec:	9c f0       	brlt	.+38     	; 0x5c14 <ldexp+0x66>
    5bee:	bb 27       	eor	r27, r27
    5bf0:	86 95       	lsr	r24
    5bf2:	77 95       	ror	r23
    5bf4:	67 95       	ror	r22
    5bf6:	b7 95       	ror	r27
    5bf8:	08 f4       	brcc	.+2      	; 0x5bfc <ldexp+0x4e>
    5bfa:	b1 60       	ori	r27, 0x01	; 1
    5bfc:	93 95       	inc	r25
    5bfe:	c1 f7       	brne	.-16     	; 0x5bf0 <ldexp+0x42>
    5c00:	bb 0f       	add	r27, r27
    5c02:	58 f7       	brcc	.-42     	; 0x5bda <ldexp+0x2c>
    5c04:	11 f4       	brne	.+4      	; 0x5c0a <ldexp+0x5c>
    5c06:	60 ff       	sbrs	r22, 0
    5c08:	e8 cf       	rjmp	.-48     	; 0x5bda <ldexp+0x2c>
    5c0a:	6f 5f       	subi	r22, 0xFF	; 255
    5c0c:	7f 4f       	sbci	r23, 0xFF	; 255
    5c0e:	8f 4f       	sbci	r24, 0xFF	; 255
    5c10:	9f 4f       	sbci	r25, 0xFF	; 255
    5c12:	e3 cf       	rjmp	.-58     	; 0x5bda <ldexp+0x2c>
    5c14:	79 ce       	rjmp	.-782    	; 0x5908 <__fp_szero>
    5c16:	0e f0       	brts	.+2      	; 0x5c1a <ldexp+0x6c>
    5c18:	b3 cf       	rjmp	.-154    	; 0x5b80 <__fp_mpack>
    5c1a:	c2 cd       	rjmp	.-1148   	; 0x57a0 <__fp_nan>
    5c1c:	68 94       	set
    5c1e:	ba cd       	rjmp	.-1164   	; 0x5794 <__fp_inf>

00005c20 <log>:
    5c20:	58 de       	rcall	.-848    	; 0x58d2 <__fp_splitA>
    5c22:	c8 f3       	brcs	.-14     	; 0x5c16 <ldexp+0x68>
    5c24:	99 23       	and	r25, r25
    5c26:	d1 f3       	breq	.-12     	; 0x5c1c <ldexp+0x6e>
    5c28:	c6 f3       	brts	.-16     	; 0x5c1a <ldexp+0x6c>
    5c2a:	df 93       	push	r29
    5c2c:	cf 93       	push	r28
    5c2e:	1f 93       	push	r17
    5c30:	0f 93       	push	r16
    5c32:	ff 92       	push	r15
    5c34:	c9 2f       	mov	r28, r25
    5c36:	dd 27       	eor	r29, r29
    5c38:	88 23       	and	r24, r24
    5c3a:	2a f0       	brmi	.+10     	; 0x5c46 <log+0x26>
    5c3c:	21 97       	sbiw	r28, 0x01	; 1
    5c3e:	66 0f       	add	r22, r22
    5c40:	77 1f       	adc	r23, r23
    5c42:	88 1f       	adc	r24, r24
    5c44:	da f7       	brpl	.-10     	; 0x5c3c <log+0x1c>
    5c46:	20 e0       	ldi	r18, 0x00	; 0
    5c48:	30 e0       	ldi	r19, 0x00	; 0
    5c4a:	40 e8       	ldi	r20, 0x80	; 128
    5c4c:	5f eb       	ldi	r21, 0xBF	; 191
    5c4e:	9f e3       	ldi	r25, 0x3F	; 63
    5c50:	88 39       	cpi	r24, 0x98	; 152
    5c52:	20 f0       	brcs	.+8      	; 0x5c5c <log+0x3c>
    5c54:	80 3e       	cpi	r24, 0xE0	; 224
    5c56:	30 f0       	brcs	.+12     	; 0x5c64 <log+0x44>
    5c58:	21 96       	adiw	r28, 0x01	; 1
    5c5a:	8f 77       	andi	r24, 0x7F	; 127
    5c5c:	69 db       	rcall	.-2350   	; 0x5330 <__addsf3>
    5c5e:	eb e3       	ldi	r30, 0x3B	; 59
    5c60:	f1 e0       	ldi	r31, 0x01	; 1
    5c62:	03 c0       	rjmp	.+6      	; 0x5c6a <log+0x4a>
    5c64:	65 db       	rcall	.-2358   	; 0x5330 <__addsf3>
    5c66:	e8 e6       	ldi	r30, 0x68	; 104
    5c68:	f1 e0       	ldi	r31, 0x01	; 1
    5c6a:	9d dd       	rcall	.-1222   	; 0x57a6 <__fp_powser>
    5c6c:	8b 01       	movw	r16, r22
    5c6e:	be 01       	movw	r22, r28
    5c70:	ec 01       	movw	r28, r24
    5c72:	fb 2e       	mov	r15, r27
    5c74:	6f 57       	subi	r22, 0x7F	; 127
    5c76:	71 09       	sbc	r23, r1
    5c78:	75 95       	asr	r23
    5c7a:	77 1f       	adc	r23, r23
    5c7c:	88 0b       	sbc	r24, r24
    5c7e:	99 0b       	sbc	r25, r25
    5c80:	d1 dc       	rcall	.-1630   	; 0x5624 <__floatsisf>
    5c82:	28 e1       	ldi	r18, 0x18	; 24
    5c84:	32 e7       	ldi	r19, 0x72	; 114
    5c86:	41 e3       	ldi	r20, 0x31	; 49
    5c88:	5f e3       	ldi	r21, 0x3F	; 63
    5c8a:	5b de       	rcall	.-842    	; 0x5942 <__mulsf3x>
    5c8c:	af 2d       	mov	r26, r15
    5c8e:	98 01       	movw	r18, r16
    5c90:	ae 01       	movw	r20, r28
    5c92:	ff 90       	pop	r15
    5c94:	0f 91       	pop	r16
    5c96:	1f 91       	pop	r17
    5c98:	cf 91       	pop	r28
    5c9a:	df 91       	pop	r29
    5c9c:	5a db       	rcall	.-2380   	; 0x5352 <__addsf3x>
    5c9e:	ef cd       	rjmp	.-1058   	; 0x587e <__fp_round>

00005ca0 <modf>:
    5ca0:	fa 01       	movw	r30, r20
    5ca2:	dc 01       	movw	r26, r24
    5ca4:	aa 0f       	add	r26, r26
    5ca6:	bb 1f       	adc	r27, r27
    5ca8:	9b 01       	movw	r18, r22
    5caa:	ac 01       	movw	r20, r24
    5cac:	bf 57       	subi	r27, 0x7F	; 127
    5cae:	28 f4       	brcc	.+10     	; 0x5cba <modf+0x1a>
    5cb0:	22 27       	eor	r18, r18
    5cb2:	33 27       	eor	r19, r19
    5cb4:	44 27       	eor	r20, r20
    5cb6:	50 78       	andi	r21, 0x80	; 128
    5cb8:	1f c0       	rjmp	.+62     	; 0x5cf8 <modf+0x58>
    5cba:	b7 51       	subi	r27, 0x17	; 23
    5cbc:	88 f4       	brcc	.+34     	; 0x5ce0 <modf+0x40>
    5cbe:	ab 2f       	mov	r26, r27
    5cc0:	00 24       	eor	r0, r0
    5cc2:	46 95       	lsr	r20
    5cc4:	37 95       	ror	r19
    5cc6:	27 95       	ror	r18
    5cc8:	01 1c       	adc	r0, r1
    5cca:	a3 95       	inc	r26
    5ccc:	d2 f3       	brmi	.-12     	; 0x5cc2 <modf+0x22>
    5cce:	00 20       	and	r0, r0
    5cd0:	69 f0       	breq	.+26     	; 0x5cec <modf+0x4c>
    5cd2:	22 0f       	add	r18, r18
    5cd4:	33 1f       	adc	r19, r19
    5cd6:	44 1f       	adc	r20, r20
    5cd8:	b3 95       	inc	r27
    5cda:	da f3       	brmi	.-10     	; 0x5cd2 <modf+0x32>
    5cdc:	0d d0       	rcall	.+26     	; 0x5cf8 <modf+0x58>
    5cde:	27 cb       	rjmp	.-2482   	; 0x532e <__subsf3>
    5ce0:	61 30       	cpi	r22, 0x01	; 1
    5ce2:	71 05       	cpc	r23, r1
    5ce4:	a0 e8       	ldi	r26, 0x80	; 128
    5ce6:	8a 07       	cpc	r24, r26
    5ce8:	b9 46       	sbci	r27, 0x69	; 105
    5cea:	30 f4       	brcc	.+12     	; 0x5cf8 <modf+0x58>
    5cec:	9b 01       	movw	r18, r22
    5cee:	ac 01       	movw	r20, r24
    5cf0:	66 27       	eor	r22, r22
    5cf2:	77 27       	eor	r23, r23
    5cf4:	88 27       	eor	r24, r24
    5cf6:	90 78       	andi	r25, 0x80	; 128
    5cf8:	30 96       	adiw	r30, 0x00	; 0
    5cfa:	21 f0       	breq	.+8      	; 0x5d04 <modf+0x64>
    5cfc:	20 83       	st	Z, r18
    5cfe:	31 83       	std	Z+1, r19	; 0x01
    5d00:	42 83       	std	Z+2, r20	; 0x02
    5d02:	53 83       	std	Z+3, r21	; 0x03
    5d04:	08 95       	ret

00005d06 <__divmodhi4>:
    5d06:	97 fb       	bst	r25, 7
    5d08:	07 2e       	mov	r0, r23
    5d0a:	16 f4       	brtc	.+4      	; 0x5d10 <__divmodhi4+0xa>
    5d0c:	00 94       	com	r0
    5d0e:	06 d0       	rcall	.+12     	; 0x5d1c <__divmodhi4_neg1>
    5d10:	77 fd       	sbrc	r23, 7
    5d12:	08 d0       	rcall	.+16     	; 0x5d24 <__divmodhi4_neg2>
    5d14:	72 d0       	rcall	.+228    	; 0x5dfa <__udivmodhi4>
    5d16:	07 fc       	sbrc	r0, 7
    5d18:	05 d0       	rcall	.+10     	; 0x5d24 <__divmodhi4_neg2>
    5d1a:	3e f4       	brtc	.+14     	; 0x5d2a <__divmodhi4_exit>

00005d1c <__divmodhi4_neg1>:
    5d1c:	90 95       	com	r25
    5d1e:	81 95       	neg	r24
    5d20:	9f 4f       	sbci	r25, 0xFF	; 255
    5d22:	08 95       	ret

00005d24 <__divmodhi4_neg2>:
    5d24:	70 95       	com	r23
    5d26:	61 95       	neg	r22
    5d28:	7f 4f       	sbci	r23, 0xFF	; 255

00005d2a <__divmodhi4_exit>:
    5d2a:	08 95       	ret

00005d2c <__umulsidi3>:
    5d2c:	e8 94       	clt

00005d2e <__umulsidi3_helper>:
    5d2e:	df 93       	push	r29
    5d30:	cf 93       	push	r28
    5d32:	fc 01       	movw	r30, r24
    5d34:	db 01       	movw	r26, r22
    5d36:	75 d0       	rcall	.+234    	; 0x5e22 <__umulhisi3>
    5d38:	7f 93       	push	r23
    5d3a:	6f 93       	push	r22
    5d3c:	e9 01       	movw	r28, r18
    5d3e:	9a 01       	movw	r18, r20
    5d40:	ac 01       	movw	r20, r24
    5d42:	bf 93       	push	r27
    5d44:	af 93       	push	r26
    5d46:	3f 93       	push	r19
    5d48:	2f 93       	push	r18
    5d4a:	df 01       	movw	r26, r30
    5d4c:	6a d0       	rcall	.+212    	; 0x5e22 <__umulhisi3>
    5d4e:	26 f4       	brtc	.+8      	; 0x5d58 <__umulsidi3_helper+0x2a>
    5d50:	6c 1b       	sub	r22, r28
    5d52:	7d 0b       	sbc	r23, r29
    5d54:	82 0b       	sbc	r24, r18
    5d56:	93 0b       	sbc	r25, r19
    5d58:	9e 01       	movw	r18, r28
    5d5a:	eb 01       	movw	r28, r22
    5d5c:	fc 01       	movw	r30, r24
    5d5e:	70 d0       	rcall	.+224    	; 0x5e40 <__muldi3_6>
    5d60:	af 91       	pop	r26
    5d62:	bf 91       	pop	r27
    5d64:	2f 91       	pop	r18
    5d66:	3f 91       	pop	r19
    5d68:	6b d0       	rcall	.+214    	; 0x5e40 <__muldi3_6>
    5d6a:	be 01       	movw	r22, r28
    5d6c:	cf 01       	movw	r24, r30
    5d6e:	f9 01       	movw	r30, r18
    5d70:	2f 91       	pop	r18
    5d72:	3f 91       	pop	r19
    5d74:	cf 91       	pop	r28
    5d76:	df 91       	pop	r29
    5d78:	08 95       	ret

00005d7a <__ashldi3>:
    5d7a:	0f 93       	push	r16
    5d7c:	08 30       	cpi	r16, 0x08	; 8
    5d7e:	90 f0       	brcs	.+36     	; 0x5da4 <__ashldi3+0x2a>
    5d80:	98 2f       	mov	r25, r24
    5d82:	87 2f       	mov	r24, r23
    5d84:	76 2f       	mov	r23, r22
    5d86:	65 2f       	mov	r22, r21
    5d88:	54 2f       	mov	r21, r20
    5d8a:	43 2f       	mov	r20, r19
    5d8c:	32 2f       	mov	r19, r18
    5d8e:	22 27       	eor	r18, r18
    5d90:	08 50       	subi	r16, 0x08	; 8
    5d92:	f4 cf       	rjmp	.-24     	; 0x5d7c <__ashldi3+0x2>
    5d94:	22 0f       	add	r18, r18
    5d96:	33 1f       	adc	r19, r19
    5d98:	44 1f       	adc	r20, r20
    5d9a:	55 1f       	adc	r21, r21
    5d9c:	66 1f       	adc	r22, r22
    5d9e:	77 1f       	adc	r23, r23
    5da0:	88 1f       	adc	r24, r24
    5da2:	99 1f       	adc	r25, r25
    5da4:	0a 95       	dec	r16
    5da6:	b2 f7       	brpl	.-20     	; 0x5d94 <__ashldi3+0x1a>
    5da8:	0f 91       	pop	r16
    5daa:	08 95       	ret

00005dac <__adddi3>:
    5dac:	2a 0d       	add	r18, r10
    5dae:	3b 1d       	adc	r19, r11
    5db0:	4c 1d       	adc	r20, r12
    5db2:	5d 1d       	adc	r21, r13
    5db4:	6e 1d       	adc	r22, r14
    5db6:	7f 1d       	adc	r23, r15
    5db8:	80 1f       	adc	r24, r16
    5dba:	91 1f       	adc	r25, r17
    5dbc:	08 95       	ret

00005dbe <__adddi3_s8>:
    5dbe:	00 24       	eor	r0, r0
    5dc0:	a7 fd       	sbrc	r26, 7
    5dc2:	00 94       	com	r0
    5dc4:	2a 0f       	add	r18, r26
    5dc6:	30 1d       	adc	r19, r0
    5dc8:	40 1d       	adc	r20, r0
    5dca:	50 1d       	adc	r21, r0
    5dcc:	60 1d       	adc	r22, r0
    5dce:	70 1d       	adc	r23, r0
    5dd0:	80 1d       	adc	r24, r0
    5dd2:	90 1d       	adc	r25, r0
    5dd4:	08 95       	ret

00005dd6 <__subdi3>:
    5dd6:	2a 19       	sub	r18, r10
    5dd8:	3b 09       	sbc	r19, r11
    5dda:	4c 09       	sbc	r20, r12
    5ddc:	5d 09       	sbc	r21, r13
    5dde:	6e 09       	sbc	r22, r14
    5de0:	7f 09       	sbc	r23, r15
    5de2:	80 0b       	sbc	r24, r16
    5de4:	91 0b       	sbc	r25, r17
    5de6:	08 95       	ret

00005de8 <__cmpdi2>:
    5de8:	2a 15       	cp	r18, r10
    5dea:	3b 05       	cpc	r19, r11
    5dec:	4c 05       	cpc	r20, r12
    5dee:	5d 05       	cpc	r21, r13
    5df0:	6e 05       	cpc	r22, r14
    5df2:	7f 05       	cpc	r23, r15
    5df4:	80 07       	cpc	r24, r16
    5df6:	91 07       	cpc	r25, r17
    5df8:	08 95       	ret

00005dfa <__udivmodhi4>:
    5dfa:	aa 1b       	sub	r26, r26
    5dfc:	bb 1b       	sub	r27, r27
    5dfe:	51 e1       	ldi	r21, 0x11	; 17
    5e00:	07 c0       	rjmp	.+14     	; 0x5e10 <__udivmodhi4_ep>

00005e02 <__udivmodhi4_loop>:
    5e02:	aa 1f       	adc	r26, r26
    5e04:	bb 1f       	adc	r27, r27
    5e06:	a6 17       	cp	r26, r22
    5e08:	b7 07       	cpc	r27, r23
    5e0a:	10 f0       	brcs	.+4      	; 0x5e10 <__udivmodhi4_ep>
    5e0c:	a6 1b       	sub	r26, r22
    5e0e:	b7 0b       	sbc	r27, r23

00005e10 <__udivmodhi4_ep>:
    5e10:	88 1f       	adc	r24, r24
    5e12:	99 1f       	adc	r25, r25
    5e14:	5a 95       	dec	r21
    5e16:	a9 f7       	brne	.-22     	; 0x5e02 <__udivmodhi4_loop>
    5e18:	80 95       	com	r24
    5e1a:	90 95       	com	r25
    5e1c:	bc 01       	movw	r22, r24
    5e1e:	cd 01       	movw	r24, r26
    5e20:	08 95       	ret

00005e22 <__umulhisi3>:
    5e22:	a2 9f       	mul	r26, r18
    5e24:	b0 01       	movw	r22, r0
    5e26:	b3 9f       	mul	r27, r19
    5e28:	c0 01       	movw	r24, r0
    5e2a:	a3 9f       	mul	r26, r19
    5e2c:	70 0d       	add	r23, r0
    5e2e:	81 1d       	adc	r24, r1
    5e30:	11 24       	eor	r1, r1
    5e32:	91 1d       	adc	r25, r1
    5e34:	b2 9f       	mul	r27, r18
    5e36:	70 0d       	add	r23, r0
    5e38:	81 1d       	adc	r24, r1
    5e3a:	11 24       	eor	r1, r1
    5e3c:	91 1d       	adc	r25, r1
    5e3e:	08 95       	ret

00005e40 <__muldi3_6>:
    5e40:	f0 df       	rcall	.-32     	; 0x5e22 <__umulhisi3>
    5e42:	46 0f       	add	r20, r22
    5e44:	57 1f       	adc	r21, r23
    5e46:	c8 1f       	adc	r28, r24
    5e48:	d9 1f       	adc	r29, r25
    5e4a:	08 f4       	brcc	.+2      	; 0x5e4e <__muldi3_6+0xe>
    5e4c:	31 96       	adiw	r30, 0x01	; 1
    5e4e:	08 95       	ret

00005e50 <_exit>:
    5e50:	f8 94       	cli

00005e52 <__stop_program>:
    5e52:	ff cf       	rjmp	.-2      	; 0x5e52 <__stop_program>
